
dhrystone4sim:     file format elf32-littleriscv


Disassembly of section .init:

80000000 <_start>:
80000000:	30047073          	csrci	mstatus,8
80000004:	10001197          	auipc	gp,0x10001
80000008:	20c18193          	addi	gp,gp,524 # 90001210 <__global_pointer$>
8000000c:	10010117          	auipc	sp,0x10010
80000010:	ff410113          	addi	sp,sp,-12 # 90010000 <_sp>
80000014:	00000517          	auipc	a0,0x0
80000018:	09050513          	addi	a0,a0,144 # 800000a4 <_itcm>
8000001c:	00000597          	auipc	a1,0x0
80000020:	08858593          	addi	a1,a1,136 # 800000a4 <_itcm>
80000024:	02b50063          	beq	a0,a1,80000044 <_start+0x44>
80000028:	00002617          	auipc	a2,0x2
8000002c:	45460613          	addi	a2,a2,1108 # 8000247c <_eitcm>
80000030:	00c5fa63          	bgeu	a1,a2,80000044 <_start+0x44>
80000034:	00052283          	lw	t0,0(a0)
80000038:	0055a023          	sw	t0,0(a1)
8000003c:	0511                	addi	a0,a0,4
8000003e:	0591                	addi	a1,a1,4
80000040:	fec5eae3          	bltu	a1,a2,80000034 <_start+0x34>
80000044:	00002517          	auipc	a0,0x2
80000048:	43c50513          	addi	a0,a0,1084 # 80002480 <__fini_array_end>
8000004c:	10000597          	auipc	a1,0x10000
80000050:	fb458593          	addi	a1,a1,-76 # 90000000 <_data>
80000054:	80818613          	addi	a2,gp,-2040 # 90000a18 <Begin_Cycle>
80000058:	00c5fa63          	bgeu	a1,a2,8000006c <_start+0x6c>
8000005c:	00052283          	lw	t0,0(a0)
80000060:	0055a023          	sw	t0,0(a1)
80000064:	0511                	addi	a0,a0,4
80000066:	0591                	addi	a1,a1,4
80000068:	fec5eae3          	bltu	a1,a2,8000005c <_start+0x5c>
8000006c:	80818513          	addi	a0,gp,-2040 # 90000a18 <Begin_Cycle>
80000070:	10003597          	auipc	a1,0x10003
80000074:	26058593          	addi	a1,a1,608 # 900032d0 <_end>
80000078:	00b57763          	bgeu	a0,a1,80000086 <_start+0x86>
8000007c:	00052023          	sw	zero,0(a0)
80000080:	0511                	addi	a0,a0,4
80000082:	feb56de3          	bltu	a0,a1,8000007c <_start+0x7c>
80000086:	00002517          	auipc	a0,0x2
8000008a:	13450513          	addi	a0,a0,308 # 800021ba <__libc_fini_array>
8000008e:	0f6020ef          	jal	ra,80002184 <atexit>
80000092:	160020ef          	jal	ra,800021f2 <__libc_init_array>
80000096:	4501                	li	a0,0
80000098:	4581                	li	a1,0
8000009a:	2029                	jal	800000a4 <_itcm>
8000009c:	0f20206f          	j	8000218e <exit>
800000a0:	a001                	j	800000a0 <_start+0xa0>

Disassembly of section .ilalign:

800000a2 <_itcm-0x2>:
	...

Disassembly of section .text:

800000a4 <main>:
800000a4:	7135                	addi	sp,sp,-160
800000a6:	03000513          	li	a0,48
800000aa:	cf06                	sw	ra,156(sp)
800000ac:	cd22                	sw	s0,152(sp)
800000ae:	dae6                	sw	s9,116(sp)
800000b0:	d6ee                	sw	s11,108(sp)
800000b2:	cb26                	sw	s1,148(sp)
800000b4:	c94a                	sw	s2,144(sp)
800000b6:	c74e                	sw	s3,140(sp)
800000b8:	c552                	sw	s4,136(sp)
800000ba:	c356                	sw	s5,132(sp)
800000bc:	c15a                	sw	s6,128(sp)
800000be:	dede                	sw	s7,124(sp)
800000c0:	dce2                	sw	s8,120(sp)
800000c2:	d8ea                	sw	s10,112(sp)
800000c4:	4cd000ef          	jal	ra,80000d90 <__wrap_malloc>
800000c8:	83c18413          	addi	s0,gp,-1988 # 90000a4c <Next_Ptr_Glob>
800000cc:	c008                	sw	a0,0(s0)
800000ce:	03000513          	li	a0,48
800000d2:	c022                	sw	s0,0(sp)
800000d4:	4bd000ef          	jal	ra,80000d90 <__wrap_malloc>
800000d8:	401c                	lw	a5,0(s0)
800000da:	84018c93          	addi	s9,gp,-1984 # 90000a50 <Ptr_Glob>
800000de:	00aca023          	sw	a0,0(s9)
800000e2:	c11c                	sw	a5,0(a0)
800000e4:	4789                	li	a5,2
800000e6:	c51c                	sw	a5,8(a0)
800000e8:	900005b7          	lui	a1,0x90000
800000ec:	02800793          	li	a5,40
800000f0:	c55c                	sw	a5,12(a0)
800000f2:	467d                	li	a2,31
800000f4:	00c58593          	addi	a1,a1,12 # 9000000c <_sp+0xffff000c>
800000f8:	00052223          	sw	zero,4(a0)
800000fc:	0541                	addi	a0,a0,16
800000fe:	15e020ef          	jal	ra,8000225c <memcpy>
80000102:	900007b7          	lui	a5,0x90000
80000106:	5a478793          	addi	a5,a5,1444 # 900005a4 <_sp+0xffff05a4>
8000010a:	0007ae03          	lw	t3,0(a5)
8000010e:	0047a303          	lw	t1,4(a5)
80000112:	0087a883          	lw	a7,8(a5)
80000116:	00c7a803          	lw	a6,12(a5)
8000011a:	4b8c                	lw	a1,16(a5)
8000011c:	4bd0                	lw	a2,20(a5)
8000011e:	4f94                	lw	a3,24(a5)
80000120:	01c7d703          	lhu	a4,28(a5)
80000124:	01e7c783          	lbu	a5,30(a5)
80000128:	90000437          	lui	s0,0x90000
8000012c:	90001db7          	lui	s11,0x90001
80000130:	02e11e23          	sh	a4,60(sp)
80000134:	02f10f23          	sb	a5,62(sp)
80000138:	b30d8713          	addi	a4,s11,-1232 # 90000b30 <_sp+0xffff0b30>
8000013c:	47a9                	li	a5,10
8000013e:	52c40513          	addi	a0,s0,1324 # 9000052c <_sp+0xffff052c>
80000142:	64f72e23          	sw	a5,1628(a4)
80000146:	d072                	sw	t3,32(sp)
80000148:	d21a                	sw	t1,36(sp)
8000014a:	d446                	sw	a7,40(sp)
8000014c:	d642                	sw	a6,44(sp)
8000014e:	d82e                	sw	a1,48(sp)
80000150:	da32                	sw	a2,52(sp)
80000152:	dc36                	sw	a3,56(sp)
80000154:	03a010ef          	jal	ra,8000118e <__wrap_printf>
80000158:	90000537          	lui	a0,0x90000
8000015c:	02c50513          	addi	a0,a0,44 # 9000002c <_sp+0xffff002c>
80000160:	02e010ef          	jal	ra,8000118e <__wrap_printf>
80000164:	52c40513          	addi	a0,s0,1324
80000168:	026010ef          	jal	ra,8000118e <__wrap_printf>
8000016c:	8441a783          	lw	a5,-1980(gp) # 90000a54 <Reg>
80000170:	5a078063          	beqz	a5,80000710 <main+0x66c>
80000174:	90000537          	lui	a0,0x90000
80000178:	05c50513          	addi	a0,a0,92 # 9000005c <_sp+0xffff005c>
8000017c:	012010ef          	jal	ra,8000118e <__wrap_printf>
80000180:	52c40513          	addi	a0,s0,1324
80000184:	00a010ef          	jal	ra,8000118e <__wrap_printf>
80000188:	90000537          	lui	a0,0x90000
8000018c:	0b850513          	addi	a0,a0,184 # 900000b8 <_sp+0xffff00b8>
80000190:	7ff000ef          	jal	ra,8000118e <__wrap_printf>
80000194:	900007b7          	lui	a5,0x90000
80000198:	52c78513          	addi	a0,a5,1324 # 9000052c <_sp+0xffff052c>
8000019c:	7f3000ef          	jal	ra,8000118e <__wrap_printf>
800001a0:	90000537          	lui	a0,0x90000
800001a4:	3e800593          	li	a1,1000
800001a8:	0f050513          	addi	a0,a0,240 # 900000f0 <_sp+0xffff00f0>
800001ac:	7e3000ef          	jal	ra,8000118e <__wrap_printf>
800001b0:	4501                	li	a0,0
800001b2:	602000ef          	jal	ra,800007b4 <time>
800001b6:	81018793          	addi	a5,gp,-2032 # 90000a20 <Begin_Time>
800001ba:	c388                	sw	a0,0(a5)
800001bc:	4501                	li	a0,0
800001be:	c23e                	sw	a5,4(sp)
800001c0:	23e5                	jal	800007a8 <csr_instret>
800001c2:	80c18793          	addi	a5,gp,-2036 # 90000a1c <Begin_Instret>
800001c6:	c388                	sw	a0,0(a5)
800001c8:	4501                	li	a0,0
800001ca:	c43e                	sw	a5,8(sp)
800001cc:	2bc1                	jal	8000079c <csr_cycle>
800001ce:	80818793          	addi	a5,gp,-2040 # 90000a18 <Begin_Cycle>
800001d2:	900009b7          	lui	s3,0x90000
800001d6:	90000437          	lui	s0,0x90000
800001da:	c63e                	sw	a5,12(sp)
800001dc:	c388                	sw	a0,0(a5)
800001de:	4a05                	li	s4,1
800001e0:	5c498993          	addi	s3,s3,1476 # 900005c4 <_sp+0xffff05c4>
800001e4:	81418d13          	addi	s10,gp,-2028 # 90000a24 <Bool_Glob>
800001e8:	81918913          	addi	s2,gp,-2023 # 90000a29 <Ch_2_Glob>
800001ec:	83418c13          	addi	s8,gp,-1996 # 90000a44 <Int_Glob>
800001f0:	4489                	li	s1,2
800001f2:	5e440413          	addi	s0,s0,1508 # 900005e4 <_sp+0xffff05e4>
800001f6:	0001                	nop
800001f8:	730000ef          	jal	ra,80000928 <Proc_5>
800001fc:	708000ef          	jal	ra,80000904 <Proc_4>
80000200:	01e9c783          	lbu	a5,30(s3)
80000204:	0149a603          	lw	a2,20(s3)
80000208:	0009ae83          	lw	t4,0(s3)
8000020c:	0049ae03          	lw	t3,4(s3)
80000210:	0089a303          	lw	t1,8(s3)
80000214:	00c9a883          	lw	a7,12(s3)
80000218:	0109a803          	lw	a6,16(s3)
8000021c:	0189a683          	lw	a3,24(s3)
80000220:	01c9d703          	lhu	a4,28(s3)
80000224:	04f10f23          	sb	a5,94(sp)
80000228:	008c                	addi	a1,sp,64
8000022a:	4785                	li	a5,1
8000022c:	1008                	addi	a0,sp,32
8000022e:	cab2                	sw	a2,84(sp)
80000230:	ca26                	sw	s1,20(sp)
80000232:	c0f6                	sw	t4,64(sp)
80000234:	c2f2                	sw	t3,68(sp)
80000236:	c49a                	sw	t1,72(sp)
80000238:	c6c6                	sw	a7,76(sp)
8000023a:	c8c2                	sw	a6,80(sp)
8000023c:	ccb6                	sw	a3,88(sp)
8000023e:	04e11e23          	sh	a4,92(sp)
80000242:	ce3e                	sw	a5,28(sp)
80000244:	75c000ef          	jal	ra,800009a0 <Func_2>
80000248:	4652                	lw	a2,20(sp)
8000024a:	00153513          	seqz	a0,a0
8000024e:	00ad2023          	sw	a0,0(s10)
80000252:	02c4c363          	blt	s1,a2,80000278 <main+0x1d4>
80000256:	0001                	nop
80000258:	00261793          	slli	a5,a2,0x2
8000025c:	97b2                	add	a5,a5,a2
8000025e:	17f5                	addi	a5,a5,-3
80000260:	8532                	mv	a0,a2
80000262:	458d                	li	a1,3
80000264:	0830                	addi	a2,sp,24
80000266:	cc3e                	sw	a5,24(sp)
80000268:	6d0000ef          	jal	ra,80000938 <Proc_7>
8000026c:	4652                	lw	a2,20(sp)
8000026e:	0605                	addi	a2,a2,1
80000270:	ca32                	sw	a2,20(sp)
80000272:	fec4d3e3          	bge	s1,a2,80000258 <main+0x1b4>
80000276:	0001                	nop
80000278:	46e2                	lw	a3,24(sp)
8000027a:	85818513          	addi	a0,gp,-1960 # 90000a68 <Arr_1_Glob>
8000027e:	b30d8593          	addi	a1,s11,-1232
80000282:	6c2000ef          	jal	ra,80000944 <Proc_8>
80000286:	000ca503          	lw	a0,0(s9)
8000028a:	2379                	jal	80000818 <Proc_1>
8000028c:	00094703          	lbu	a4,0(s2)
80000290:	04000793          	li	a5,64
80000294:	46e7fc63          	bgeu	a5,a4,8000070c <main+0x668>
80000298:	04100b13          	li	s6,65
8000029c:	4a8d                	li	s5,3
8000029e:	a809                	j	800002b0 <main+0x20c>
800002a0:	00094783          	lbu	a5,0(s2)
800002a4:	0b05                	addi	s6,s6,1
800002a6:	0ffb7b13          	andi	s6,s6,255
800002aa:	0767e363          	bltu	a5,s6,80000310 <main+0x26c>
800002ae:	0001                	nop
800002b0:	04300593          	li	a1,67
800002b4:	855a                	mv	a0,s6
800002b6:	6d2000ef          	jal	ra,80000988 <Func_1>
800002ba:	47f2                	lw	a5,28(sp)
800002bc:	fef512e3          	bne	a0,a5,800002a0 <main+0x1fc>
800002c0:	086c                	addi	a1,sp,28
800002c2:	4501                	li	a0,0
800002c4:	72c000ef          	jal	ra,800009f0 <Proc_6>
800002c8:	01e44783          	lbu	a5,30(s0)
800002cc:	00042303          	lw	t1,0(s0)
800002d0:	00442883          	lw	a7,4(s0)
800002d4:	00842803          	lw	a6,8(s0)
800002d8:	4448                	lw	a0,12(s0)
800002da:	480c                	lw	a1,16(s0)
800002dc:	4850                	lw	a2,20(s0)
800002de:	4c14                	lw	a3,24(s0)
800002e0:	01c45703          	lhu	a4,28(s0)
800002e4:	04f10f23          	sb	a5,94(sp)
800002e8:	00094783          	lbu	a5,0(s2)
800002ec:	0b05                	addi	s6,s6,1
800002ee:	c09a                	sw	t1,64(sp)
800002f0:	c2c6                	sw	a7,68(sp)
800002f2:	c4c2                	sw	a6,72(sp)
800002f4:	c6aa                	sw	a0,76(sp)
800002f6:	c8ae                	sw	a1,80(sp)
800002f8:	cab2                	sw	a2,84(sp)
800002fa:	ccb6                	sw	a3,88(sp)
800002fc:	04e11e23          	sh	a4,92(sp)
80000300:	014c2023          	sw	s4,0(s8)
80000304:	0ffb7b13          	andi	s6,s6,255
80000308:	8ad2                	mv	s5,s4
8000030a:	fb67f3e3          	bgeu	a5,s6,800002b0 <main+0x20c>
8000030e:	0001                	nop
80000310:	47d2                	lw	a5,20(sp)
80000312:	4be2                	lw	s7,24(sp)
80000314:	0848                	addi	a0,sp,20
80000316:	02fa8ab3          	mul	s5,s5,a5
8000031a:	0a05                	addi	s4,s4,1
8000031c:	037acb33          	div	s6,s5,s7
80000320:	ca5a                	sw	s6,20(sp)
80000322:	296d                	jal	800007dc <Proc_2>
80000324:	3e900793          	li	a5,1001
80000328:	ecfa18e3          	bne	s4,a5,800001f8 <main+0x154>
8000032c:	4501                	li	a0,0
8000032e:	21bd                	jal	8000079c <csr_cycle>
80000330:	82418713          	addi	a4,gp,-2012 # 90000a34 <End_Cycle>
80000334:	c308                	sw	a0,0(a4)
80000336:	4501                	li	a0,0
80000338:	29b5                	jal	800007b4 <time>
8000033a:	82c18613          	addi	a2,gp,-2004 # 90000a3c <End_Time>
8000033e:	c208                	sw	a0,0(a2)
80000340:	4501                	li	a0,0
80000342:	219d                	jal	800007a8 <csr_instret>
80000344:	82818693          	addi	a3,gp,-2008 # 90000a38 <End_Instret>
80000348:	c288                	sw	a0,0(a3)
8000034a:	90000537          	lui	a0,0x90000
8000034e:	12050513          	addi	a0,a0,288 # 90000120 <_sp+0xffff0120>
80000352:	63d000ef          	jal	ra,8000118e <__wrap_printf>
80000356:	90000437          	lui	s0,0x90000
8000035a:	52c40513          	addi	a0,s0,1324 # 9000052c <_sp+0xffff052c>
8000035e:	631000ef          	jal	ra,8000118e <__wrap_printf>
80000362:	90000537          	lui	a0,0x90000
80000366:	13050513          	addi	a0,a0,304 # 90000130 <_sp+0xffff0130>
8000036a:	625000ef          	jal	ra,8000118e <__wrap_printf>
8000036e:	52c40513          	addi	a0,s0,1324
80000372:	61d000ef          	jal	ra,8000118e <__wrap_printf>
80000376:	000c2583          	lw	a1,0(s8)
8000037a:	90000537          	lui	a0,0x90000
8000037e:	16850513          	addi	a0,a0,360 # 90000168 <_sp+0xffff0168>
80000382:	90000437          	lui	s0,0x90000
80000386:	609000ef          	jal	ra,8000118e <__wrap_printf>
8000038a:	4595                	li	a1,5
8000038c:	18440513          	addi	a0,s0,388 # 90000184 <_sp+0xffff0184>
80000390:	5ff000ef          	jal	ra,8000118e <__wrap_printf>
80000394:	000d2583          	lw	a1,0(s10)
80000398:	90000537          	lui	a0,0x90000
8000039c:	1a050513          	addi	a0,a0,416 # 900001a0 <_sp+0xffff01a0>
800003a0:	5ef000ef          	jal	ra,8000118e <__wrap_printf>
800003a4:	4585                	li	a1,1
800003a6:	18440513          	addi	a0,s0,388
800003aa:	5e5000ef          	jal	ra,8000118e <__wrap_printf>
800003ae:	8181c583          	lbu	a1,-2024(gp) # 90000a28 <Ch_1_Glob>
800003b2:	90000537          	lui	a0,0x90000
800003b6:	1bc50513          	addi	a0,a0,444 # 900001bc <_sp+0xffff01bc>
800003ba:	5d5000ef          	jal	ra,8000118e <__wrap_printf>
800003be:	900004b7          	lui	s1,0x90000
800003c2:	04100593          	li	a1,65
800003c6:	1d848513          	addi	a0,s1,472 # 900001d8 <_sp+0xffff01d8>
800003ca:	5c5000ef          	jal	ra,8000118e <__wrap_printf>
800003ce:	00094583          	lbu	a1,0(s2)
800003d2:	90000537          	lui	a0,0x90000
800003d6:	1f450513          	addi	a0,a0,500 # 900001f4 <_sp+0xffff01f4>
800003da:	5b5000ef          	jal	ra,8000118e <__wrap_printf>
800003de:	04200593          	li	a1,66
800003e2:	1d848513          	addi	a0,s1,472
800003e6:	5a9000ef          	jal	ra,8000118e <__wrap_printf>
800003ea:	85818793          	addi	a5,gp,-1960 # 90000a68 <Arr_1_Glob>
800003ee:	538c                	lw	a1,32(a5)
800003f0:	90000537          	lui	a0,0x90000
800003f4:	21050513          	addi	a0,a0,528 # 90000210 <_sp+0xffff0210>
800003f8:	597000ef          	jal	ra,8000118e <__wrap_printf>
800003fc:	459d                	li	a1,7
800003fe:	18440513          	addi	a0,s0,388
80000402:	58d000ef          	jal	ra,8000118e <__wrap_printf>
80000406:	900017b7          	lui	a5,0x90001
8000040a:	b3078793          	addi	a5,a5,-1232 # 90000b30 <_sp+0xffff0b30>
8000040e:	65c7a583          	lw	a1,1628(a5)
80000412:	90000537          	lui	a0,0x90000
80000416:	22c50513          	addi	a0,a0,556 # 9000022c <_sp+0xffff022c>
8000041a:	575000ef          	jal	ra,8000118e <__wrap_printf>
8000041e:	90000537          	lui	a0,0x90000
80000422:	24850513          	addi	a0,a0,584 # 90000248 <_sp+0xffff0248>
80000426:	569000ef          	jal	ra,8000118e <__wrap_printf>
8000042a:	90000537          	lui	a0,0x90000
8000042e:	27450513          	addi	a0,a0,628 # 90000274 <_sp+0xffff0274>
80000432:	55d000ef          	jal	ra,8000118e <__wrap_printf>
80000436:	000ca583          	lw	a1,0(s9)
8000043a:	900007b7          	lui	a5,0x90000
8000043e:	28078513          	addi	a0,a5,640 # 90000280 <_sp+0xffff0280>
80000442:	418c                	lw	a1,0(a1)
80000444:	90000c37          	lui	s8,0x90000
80000448:	90000a37          	lui	s4,0x90000
8000044c:	543000ef          	jal	ra,8000118e <__wrap_printf>
80000450:	90000537          	lui	a0,0x90000
80000454:	29c50513          	addi	a0,a0,668 # 9000029c <_sp+0xffff029c>
80000458:	537000ef          	jal	ra,8000118e <__wrap_printf>
8000045c:	000ca583          	lw	a1,0(s9)
80000460:	2d0c0513          	addi	a0,s8,720 # 900002d0 <_sp+0xffff02d0>
80000464:	900009b7          	lui	s3,0x90000
80000468:	41cc                	lw	a1,4(a1)
8000046a:	90000937          	lui	s2,0x90000
8000046e:	90000d37          	lui	s10,0x90000
80000472:	51d000ef          	jal	ra,8000118e <__wrap_printf>
80000476:	4581                	li	a1,0
80000478:	18440513          	addi	a0,s0,388
8000047c:	513000ef          	jal	ra,8000118e <__wrap_printf>
80000480:	000ca583          	lw	a1,0(s9)
80000484:	2eca0513          	addi	a0,s4,748 # 900002ec <_sp+0xffff02ec>
80000488:	417a8ab3          	sub	s5,s5,s7
8000048c:	458c                	lw	a1,8(a1)
8000048e:	90000db7          	lui	s11,0x90000
80000492:	900004b7          	lui	s1,0x90000
80000496:	4f9000ef          	jal	ra,8000118e <__wrap_printf>
8000049a:	4589                	li	a1,2
8000049c:	18440513          	addi	a0,s0,388
800004a0:	4ef000ef          	jal	ra,8000118e <__wrap_printf>
800004a4:	000ca583          	lw	a1,0(s9)
800004a8:	30898513          	addi	a0,s3,776 # 90000308 <_sp+0xffff0308>
800004ac:	45cc                	lw	a1,12(a1)
800004ae:	4e1000ef          	jal	ra,8000118e <__wrap_printf>
800004b2:	45c5                	li	a1,17
800004b4:	18440513          	addi	a0,s0,388
800004b8:	4d7000ef          	jal	ra,8000118e <__wrap_printf>
800004bc:	000ca583          	lw	a1,0(s9)
800004c0:	32490513          	addi	a0,s2,804 # 90000324 <_sp+0xffff0324>
800004c4:	05c1                	addi	a1,a1,16
800004c6:	4c9000ef          	jal	ra,8000118e <__wrap_printf>
800004ca:	340d0513          	addi	a0,s10,832 # 90000340 <_sp+0xffff0340>
800004ce:	4c1000ef          	jal	ra,8000118e <__wrap_printf>
800004d2:	90000537          	lui	a0,0x90000
800004d6:	37850513          	addi	a0,a0,888 # 90000378 <_sp+0xffff0378>
800004da:	4b5000ef          	jal	ra,8000118e <__wrap_printf>
800004de:	4c82                	lw	s9,0(sp)
800004e0:	900007b7          	lui	a5,0x90000
800004e4:	28078513          	addi	a0,a5,640 # 90000280 <_sp+0xffff0280>
800004e8:	000ca583          	lw	a1,0(s9)
800004ec:	418c                	lw	a1,0(a1)
800004ee:	4a1000ef          	jal	ra,8000118e <__wrap_printf>
800004f2:	90000537          	lui	a0,0x90000
800004f6:	38c50513          	addi	a0,a0,908 # 9000038c <_sp+0xffff038c>
800004fa:	495000ef          	jal	ra,8000118e <__wrap_printf>
800004fe:	000ca783          	lw	a5,0(s9)
80000502:	2d0c0513          	addi	a0,s8,720
80000506:	43cc                	lw	a1,4(a5)
80000508:	487000ef          	jal	ra,8000118e <__wrap_printf>
8000050c:	4581                	li	a1,0
8000050e:	18440513          	addi	a0,s0,388
80000512:	47d000ef          	jal	ra,8000118e <__wrap_printf>
80000516:	000ca783          	lw	a5,0(s9)
8000051a:	2eca0513          	addi	a0,s4,748
8000051e:	478c                	lw	a1,8(a5)
80000520:	46f000ef          	jal	ra,8000118e <__wrap_printf>
80000524:	4585                	li	a1,1
80000526:	18440513          	addi	a0,s0,388
8000052a:	465000ef          	jal	ra,8000118e <__wrap_printf>
8000052e:	000ca783          	lw	a5,0(s9)
80000532:	30898513          	addi	a0,s3,776
80000536:	47cc                	lw	a1,12(a5)
80000538:	84818993          	addi	s3,gp,-1976 # 90000a58 <User_Cycle>
8000053c:	453000ef          	jal	ra,8000118e <__wrap_printf>
80000540:	45c9                	li	a1,18
80000542:	18440513          	addi	a0,s0,388
80000546:	449000ef          	jal	ra,8000118e <__wrap_printf>
8000054a:	000ca583          	lw	a1,0(s9)
8000054e:	32490513          	addi	a0,s2,804
80000552:	05c1                	addi	a1,a1,16
80000554:	43b000ef          	jal	ra,8000118e <__wrap_printf>
80000558:	340d0513          	addi	a0,s10,832
8000055c:	433000ef          	jal	ra,8000118e <__wrap_printf>
80000560:	45d2                	lw	a1,20(sp)
80000562:	90000537          	lui	a0,0x90000
80000566:	3cc50513          	addi	a0,a0,972 # 900003cc <_sp+0xffff03cc>
8000056a:	425000ef          	jal	ra,8000118e <__wrap_printf>
8000056e:	4595                	li	a1,5
80000570:	18440513          	addi	a0,s0,388
80000574:	41b000ef          	jal	ra,8000118e <__wrap_printf>
80000578:	003a9793          	slli	a5,s5,0x3
8000057c:	41578ab3          	sub	s5,a5,s5
80000580:	90000537          	lui	a0,0x90000
80000584:	416a85b3          	sub	a1,s5,s6
80000588:	3e850513          	addi	a0,a0,1000 # 900003e8 <_sp+0xffff03e8>
8000058c:	403000ef          	jal	ra,8000118e <__wrap_printf>
80000590:	45b5                	li	a1,13
80000592:	18440513          	addi	a0,s0,388
80000596:	3f9000ef          	jal	ra,8000118e <__wrap_printf>
8000059a:	45e2                	lw	a1,24(sp)
8000059c:	90000537          	lui	a0,0x90000
800005a0:	40450513          	addi	a0,a0,1028 # 90000404 <_sp+0xffff0404>
800005a4:	3eb000ef          	jal	ra,8000118e <__wrap_printf>
800005a8:	459d                	li	a1,7
800005aa:	18440513          	addi	a0,s0,388
800005ae:	3e1000ef          	jal	ra,8000118e <__wrap_printf>
800005b2:	45f2                	lw	a1,28(sp)
800005b4:	90000537          	lui	a0,0x90000
800005b8:	42050513          	addi	a0,a0,1056 # 90000420 <_sp+0xffff0420>
800005bc:	3d3000ef          	jal	ra,8000118e <__wrap_printf>
800005c0:	4585                	li	a1,1
800005c2:	18440513          	addi	a0,s0,388
800005c6:	3c9000ef          	jal	ra,8000118e <__wrap_printf>
800005ca:	90000537          	lui	a0,0x90000
800005ce:	100c                	addi	a1,sp,32
800005d0:	43c50513          	addi	a0,a0,1084 # 9000043c <_sp+0xffff043c>
800005d4:	3bb000ef          	jal	ra,8000118e <__wrap_printf>
800005d8:	90000537          	lui	a0,0x90000
800005dc:	45850513          	addi	a0,a0,1112 # 90000458 <_sp+0xffff0458>
800005e0:	3af000ef          	jal	ra,8000118e <__wrap_printf>
800005e4:	90000537          	lui	a0,0x90000
800005e8:	008c                	addi	a1,sp,64
800005ea:	49050513          	addi	a0,a0,1168 # 90000490 <_sp+0xffff0490>
800005ee:	3a1000ef          	jal	ra,8000118e <__wrap_printf>
800005f2:	90000537          	lui	a0,0x90000
800005f6:	4ac50513          	addi	a0,a0,1196 # 900004ac <_sp+0xffff04ac>
800005fa:	395000ef          	jal	ra,8000118e <__wrap_printf>
800005fe:	90000437          	lui	s0,0x90000
80000602:	52c40513          	addi	a0,s0,1324 # 9000052c <_sp+0xffff052c>
80000606:	389000ef          	jal	ra,8000118e <__wrap_printf>
8000060a:	82c18613          	addi	a2,gp,-2004 # 90000a3c <End_Time>
8000060e:	4792                	lw	a5,4(sp)
80000610:	4208                	lw	a0,0(a2)
80000612:	8b22                	mv	s6,s0
80000614:	4390                	lw	a2,0(a5)
80000616:	82818693          	addi	a3,gp,-2008 # 90000a38 <End_Instret>
8000061a:	47a2                	lw	a5,8(sp)
8000061c:	4280                	lw	s0,0(a3)
8000061e:	8d11                	sub	a0,a0,a2
80000620:	4394                	lw	a3,0(a5)
80000622:	82418713          	addi	a4,gp,-2012 # 90000a34 <End_Cycle>
80000626:	47b2                	lw	a5,12(sp)
80000628:	00072903          	lw	s2,0(a4)
8000062c:	8c15                	sub	s0,s0,a3
8000062e:	439c                	lw	a5,0(a5)
80000630:	40f90933          	sub	s2,s2,a5
80000634:	84a1a823          	sw	a0,-1968(gp) # 90000a60 <User_Time>
80000638:	8481a623          	sw	s0,-1972(gp) # 90000a5c <User_Instret>
8000063c:	0129a023          	sw	s2,0(s3)
80000640:	15d010ef          	jal	ra,80001f9c <__floatsisf>
80000644:	000da583          	lw	a1,0(s11) # 90000000 <_sp+0xffff0000>
80000648:	8a2a                	mv	s4,a0
8000064a:	6c2010ef          	jal	ra,80001d0c <__mulsf3>
8000064e:	0044a583          	lw	a1,4(s1) # 90000004 <_sp+0xffff0004>
80000652:	40c010ef          	jal	ra,80001a5e <__divsf3>
80000656:	82a1ac23          	sw	a0,-1992(gp) # 90000a48 <Microseconds>
8000065a:	0044a503          	lw	a0,4(s1)
8000065e:	85d2                	mv	a1,s4
80000660:	3fe010ef          	jal	ra,80001a5e <__divsf3>
80000664:	3e800793          	li	a5,1000
80000668:	02f44433          	div	s0,s0,a5
8000066c:	82a1a023          	sw	a0,-2016(gp) # 90000a30 <Dhrystones_Per_Second>
80000670:	854a                	mv	a0,s2
80000672:	81c18913          	addi	s2,gp,-2020 # 90000a2c <DMIPS_MHZ>
80000676:	8281a823          	sw	s0,-2000(gp) # 90000a40 <Instret>
8000067a:	123010ef          	jal	ra,80001f9c <__floatsisf>
8000067e:	0044a583          	lw	a1,4(s1)
80000682:	3dc010ef          	jal	ra,80001a5e <__divsf3>
80000686:	85aa                	mv	a1,a0
80000688:	000da503          	lw	a0,0(s11)
8000068c:	3d2010ef          	jal	ra,80001a5e <__divsf3>
80000690:	900007b7          	lui	a5,0x90000
80000694:	0087a583          	lw	a1,8(a5) # 90000008 <_sp+0xffff0008>
80000698:	3c6010ef          	jal	ra,80001a5e <__divsf3>
8000069c:	00a92023          	sw	a0,0(s2)
800006a0:	90000537          	lui	a0,0x90000
800006a4:	3e800593          	li	a1,1000
800006a8:	4e450513          	addi	a0,a0,1252 # 900004e4 <_sp+0xffff04e4>
800006ac:	2e3000ef          	jal	ra,8000118e <__wrap_printf>
800006b0:	0009a583          	lw	a1,0(s3)
800006b4:	90000537          	lui	a0,0x90000
800006b8:	52850513          	addi	a0,a0,1320 # 90000528 <_sp+0xffff0528>
800006bc:	2d3000ef          	jal	ra,8000118e <__wrap_printf>
800006c0:	90000537          	lui	a0,0x90000
800006c4:	53050513          	addi	a0,a0,1328 # 90000530 <_sp+0xffff0530>
800006c8:	2c7000ef          	jal	ra,8000118e <__wrap_printf>
800006cc:	00092503          	lw	a0,0(s2)
800006d0:	193010ef          	jal	ra,80002062 <__extendsfdf2>
800006d4:	862a                	mv	a2,a0
800006d6:	90000537          	lui	a0,0x90000
800006da:	86ae                	mv	a3,a1
800006dc:	56050513          	addi	a0,a0,1376 # 90000560 <_sp+0xffff0560>
800006e0:	2af000ef          	jal	ra,8000118e <__wrap_printf>
800006e4:	52cb0513          	addi	a0,s6,1324
800006e8:	2a7000ef          	jal	ra,8000118e <__wrap_printf>
800006ec:	40fa                	lw	ra,156(sp)
800006ee:	446a                	lw	s0,152(sp)
800006f0:	44da                	lw	s1,148(sp)
800006f2:	494a                	lw	s2,144(sp)
800006f4:	49ba                	lw	s3,140(sp)
800006f6:	4a2a                	lw	s4,136(sp)
800006f8:	4a9a                	lw	s5,132(sp)
800006fa:	4b0a                	lw	s6,128(sp)
800006fc:	5bf6                	lw	s7,124(sp)
800006fe:	5c66                	lw	s8,120(sp)
80000700:	5cd6                	lw	s9,116(sp)
80000702:	5d46                	lw	s10,112(sp)
80000704:	5db6                	lw	s11,108(sp)
80000706:	4501                	li	a0,0
80000708:	610d                	addi	sp,sp,160
8000070a:	8082                	ret
8000070c:	4a8d                	li	s5,3
8000070e:	b109                	j	80000310 <main+0x26c>
80000710:	90000537          	lui	a0,0x90000
80000714:	08850513          	addi	a0,a0,136 # 90000088 <_sp+0xffff0088>
80000718:	277000ef          	jal	ra,8000118e <__wrap_printf>
8000071c:	900007b7          	lui	a5,0x90000
80000720:	52c78513          	addi	a0,a5,1324 # 9000052c <_sp+0xffff052c>
80000724:	26b000ef          	jal	ra,8000118e <__wrap_printf>
80000728:	b485                	j	80000188 <main+0xe4>
	...

8000072c <register_fini>:
8000072c:	80000797          	auipc	a5,0x80000
80000730:	8d478793          	addi	a5,a5,-1836 # 0 <__stack_size-0x800>
80000734:	c799                	beqz	a5,80000742 <register_fini+0x16>
80000736:	00002517          	auipc	a0,0x2
8000073a:	a8450513          	addi	a0,a0,-1404 # 800021ba <__libc_fini_array>
8000073e:	2470106f          	j	80002184 <atexit>
80000742:	8082                	ret

80000744 <trap_entry>:
80000744:	7139                	addi	sp,sp,-64
80000746:	c006                	sw	ra,0(sp)
80000748:	c216                	sw	t0,4(sp)
8000074a:	c41a                	sw	t1,8(sp)
8000074c:	c61e                	sw	t2,12(sp)
8000074e:	c82a                	sw	a0,16(sp)
80000750:	ca2e                	sw	a1,20(sp)
80000752:	cc32                	sw	a2,24(sp)
80000754:	ce36                	sw	a3,28(sp)
80000756:	d03a                	sw	a4,32(sp)
80000758:	d23e                	sw	a5,36(sp)
8000075a:	d442                	sw	a6,40(sp)
8000075c:	d646                	sw	a7,44(sp)
8000075e:	d872                	sw	t3,48(sp)
80000760:	da76                	sw	t4,52(sp)
80000762:	dc7a                	sw	t5,56(sp)
80000764:	de7e                	sw	t6,60(sp)
80000766:	34202573          	csrr	a0,mcause
8000076a:	341025f3          	csrr	a1,mepc
8000076e:	2eed                	jal	80000b68 <handle_trap>
80000770:	34151073          	csrw	mepc,a0
80000774:	4082                	lw	ra,0(sp)
80000776:	4292                	lw	t0,4(sp)
80000778:	4322                	lw	t1,8(sp)
8000077a:	43b2                	lw	t2,12(sp)
8000077c:	4542                	lw	a0,16(sp)
8000077e:	45d2                	lw	a1,20(sp)
80000780:	4662                	lw	a2,24(sp)
80000782:	46f2                	lw	a3,28(sp)
80000784:	5702                	lw	a4,32(sp)
80000786:	5792                	lw	a5,36(sp)
80000788:	5822                	lw	a6,40(sp)
8000078a:	58b2                	lw	a7,44(sp)
8000078c:	5e42                	lw	t3,48(sp)
8000078e:	5ed2                	lw	t4,52(sp)
80000790:	5f62                	lw	t5,56(sp)
80000792:	5ff2                	lw	t6,60(sp)
80000794:	6121                	addi	sp,sp,64
80000796:	30200073          	mret
8000079a:	a001                	j	8000079a <trap_entry+0x56>

8000079c <csr_cycle>:
8000079c:	1141                	addi	sp,sp,-16
8000079e:	c606                	sw	ra,12(sp)
800007a0:	2e81                	jal	80000af0 <get_cycle_value>
800007a2:	40b2                	lw	ra,12(sp)
800007a4:	0141                	addi	sp,sp,16
800007a6:	8082                	ret

800007a8 <csr_instret>:
800007a8:	1141                	addi	sp,sp,-16
800007aa:	c606                	sw	ra,12(sp)
800007ac:	2e05                	jal	80000adc <get_instret_value>
800007ae:	40b2                	lw	ra,12(sp)
800007b0:	0141                	addi	sp,sp,16
800007b2:	8082                	ret

800007b4 <time>:
800007b4:	1141                	addi	sp,sp,-16
800007b6:	c606                	sw	ra,12(sp)
800007b8:	c422                	sw	s0,8(sp)
800007ba:	c226                	sw	s1,4(sp)
800007bc:	2c45                	jal	80000a6c <get_timer_value>
800007be:	842a                	mv	s0,a0
800007c0:	84ae                	mv	s1,a1
800007c2:	2c6d                	jal	80000a7c <get_timer_freq>
800007c4:	862a                	mv	a2,a0
800007c6:	85a6                	mv	a1,s1
800007c8:	8522                	mv	a0,s0
800007ca:	4681                	li	a3,0
800007cc:	1f3000ef          	jal	ra,800011be <__udivdi3>
800007d0:	40b2                	lw	ra,12(sp)
800007d2:	4422                	lw	s0,8(sp)
800007d4:	4492                	lw	s1,4(sp)
800007d6:	0141                	addi	sp,sp,16
800007d8:	8082                	ret
	...

800007dc <Proc_2>:
800007dc:	8181c703          	lbu	a4,-2024(gp) # 90000a28 <Ch_1_Glob>
800007e0:	04100793          	li	a5,65
800007e4:	00f70463          	beq	a4,a5,800007ec <Proc_2+0x10>
800007e8:	8082                	ret
800007ea:	0001                	nop
800007ec:	411c                	lw	a5,0(a0)
800007ee:	8341a703          	lw	a4,-1996(gp) # 90000a44 <Int_Glob>
800007f2:	07a5                	addi	a5,a5,9
800007f4:	8f99                	sub	a5,a5,a4
800007f6:	c11c                	sw	a5,0(a0)
800007f8:	8082                	ret
	...

800007fc <Proc_3>:
800007fc:	84018793          	addi	a5,gp,-1984 # 90000a50 <Ptr_Glob>
80000800:	4390                	lw	a2,0(a5)
80000802:	c609                	beqz	a2,8000080c <Proc_3+0x10>
80000804:	4218                	lw	a4,0(a2)
80000806:	c118                	sw	a4,0(a0)
80000808:	4390                	lw	a2,0(a5)
8000080a:	0001                	nop
8000080c:	8341a583          	lw	a1,-1996(gp) # 90000a44 <Int_Glob>
80000810:	0631                	addi	a2,a2,12
80000812:	4529                	li	a0,10
80000814:	a215                	j	80000938 <Proc_7>
	...

80000818 <Proc_1>:
80000818:	1141                	addi	sp,sp,-16
8000081a:	c04a                	sw	s2,0(sp)
8000081c:	84018913          	addi	s2,gp,-1984 # 90000a50 <Ptr_Glob>
80000820:	00092783          	lw	a5,0(s2)
80000824:	c422                	sw	s0,8(sp)
80000826:	4100                	lw	s0,0(a0)
80000828:	4398                	lw	a4,0(a5)
8000082a:	c226                	sw	s1,4(sp)
8000082c:	0047ae83          	lw	t4,4(a5)
80000830:	0087ae03          	lw	t3,8(a5)
80000834:	0107a303          	lw	t1,16(a5)
80000838:	0147a883          	lw	a7,20(a5)
8000083c:	0187a803          	lw	a6,24(a5)
80000840:	538c                	lw	a1,32(a5)
80000842:	53d0                	lw	a2,36(a5)
80000844:	5794                	lw	a3,40(a5)
80000846:	c606                	sw	ra,12(sp)
80000848:	84aa                	mv	s1,a0
8000084a:	4fc8                	lw	a0,28(a5)
8000084c:	57dc                	lw	a5,44(a5)
8000084e:	c018                	sw	a4,0(s0)
80000850:	4098                	lw	a4,0(s1)
80000852:	cc48                	sw	a0,28(s0)
80000854:	d45c                	sw	a5,44(s0)
80000856:	01d42223          	sw	t4,4(s0)
8000085a:	4795                	li	a5,5
8000085c:	01c42423          	sw	t3,8(s0)
80000860:	00642823          	sw	t1,16(s0)
80000864:	01142a23          	sw	a7,20(s0)
80000868:	01042c23          	sw	a6,24(s0)
8000086c:	d00c                	sw	a1,32(s0)
8000086e:	d050                	sw	a2,36(s0)
80000870:	d414                	sw	a3,40(s0)
80000872:	c4dc                	sw	a5,12(s1)
80000874:	c45c                	sw	a5,12(s0)
80000876:	c018                	sw	a4,0(s0)
80000878:	8522                	mv	a0,s0
8000087a:	3749                	jal	800007fc <Proc_3>
8000087c:	405c                	lw	a5,4(s0)
8000087e:	cfb9                	beqz	a5,800008dc <Proc_1+0xc4>
80000880:	409c                	lw	a5,0(s1)
80000882:	40b2                	lw	ra,12(sp)
80000884:	4422                	lw	s0,8(sp)
80000886:	0007af83          	lw	t6,0(a5)
8000088a:	0047af03          	lw	t5,4(a5)
8000088e:	0087ae83          	lw	t4,8(a5)
80000892:	00c7ae03          	lw	t3,12(a5)
80000896:	0107a303          	lw	t1,16(a5)
8000089a:	0147a883          	lw	a7,20(a5)
8000089e:	0187a803          	lw	a6,24(a5)
800008a2:	4fcc                	lw	a1,28(a5)
800008a4:	5390                	lw	a2,32(a5)
800008a6:	53d4                	lw	a3,36(a5)
800008a8:	5798                	lw	a4,40(a5)
800008aa:	57dc                	lw	a5,44(a5)
800008ac:	01f4a023          	sw	t6,0(s1)
800008b0:	01e4a223          	sw	t5,4(s1)
800008b4:	01d4a423          	sw	t4,8(s1)
800008b8:	01c4a623          	sw	t3,12(s1)
800008bc:	0064a823          	sw	t1,16(s1)
800008c0:	0114aa23          	sw	a7,20(s1)
800008c4:	0104ac23          	sw	a6,24(s1)
800008c8:	cccc                	sw	a1,28(s1)
800008ca:	d090                	sw	a2,32(s1)
800008cc:	d0d4                	sw	a3,36(s1)
800008ce:	d498                	sw	a4,40(s1)
800008d0:	d4dc                	sw	a5,44(s1)
800008d2:	4902                	lw	s2,0(sp)
800008d4:	4492                	lw	s1,4(sp)
800008d6:	0141                	addi	sp,sp,16
800008d8:	8082                	ret
800008da:	0001                	nop
800008dc:	4488                	lw	a0,8(s1)
800008de:	4799                	li	a5,6
800008e0:	00840593          	addi	a1,s0,8
800008e4:	c45c                	sw	a5,12(s0)
800008e6:	2229                	jal	800009f0 <Proc_6>
800008e8:	00092783          	lw	a5,0(s2)
800008ec:	4448                	lw	a0,12(s0)
800008ee:	00c40613          	addi	a2,s0,12
800008f2:	439c                	lw	a5,0(a5)
800008f4:	40b2                	lw	ra,12(sp)
800008f6:	4492                	lw	s1,4(sp)
800008f8:	c01c                	sw	a5,0(s0)
800008fa:	4422                	lw	s0,8(sp)
800008fc:	4902                	lw	s2,0(sp)
800008fe:	45a9                	li	a1,10
80000900:	0141                	addi	sp,sp,16
80000902:	a81d                	j	80000938 <Proc_7>

80000904 <Proc_4>:
80000904:	8181c783          	lbu	a5,-2024(gp) # 90000a28 <Ch_1_Glob>
80000908:	81418713          	addi	a4,gp,-2028 # 90000a24 <Bool_Glob>
8000090c:	4314                	lw	a3,0(a4)
8000090e:	fbf78793          	addi	a5,a5,-65
80000912:	0017b793          	seqz	a5,a5
80000916:	8fd5                	or	a5,a5,a3
80000918:	c31c                	sw	a5,0(a4)
8000091a:	04200713          	li	a4,66
8000091e:	80e18ca3          	sb	a4,-2023(gp) # 90000a29 <Ch_2_Glob>
80000922:	8082                	ret
80000924:	0000                	unimp
	...

80000928 <Proc_5>:
80000928:	04100713          	li	a4,65
8000092c:	80e18c23          	sb	a4,-2024(gp) # 90000a28 <Ch_1_Glob>
80000930:	8001aa23          	sw	zero,-2028(gp) # 90000a24 <Bool_Glob>
80000934:	8082                	ret
	...

80000938 <Proc_7>:
80000938:	0509                	addi	a0,a0,2
8000093a:	95aa                	add	a1,a1,a0
8000093c:	c20c                	sw	a1,0(a2)
8000093e:	8082                	ret
80000940:	0000                	unimp
	...

80000944 <Proc_8>:
80000944:	00560713          	addi	a4,a2,5
80000948:	0c800813          	li	a6,200
8000094c:	03070833          	mul	a6,a4,a6
80000950:	060a                	slli	a2,a2,0x2
80000952:	00271793          	slli	a5,a4,0x2
80000956:	953e                	add	a0,a0,a5
80000958:	c114                	sw	a3,0(a0)
8000095a:	dd38                	sw	a4,120(a0)
8000095c:	c154                	sw	a3,4(a0)
8000095e:	00c807b3          	add	a5,a6,a2
80000962:	97ae                	add	a5,a5,a1
80000964:	4b94                	lw	a3,16(a5)
80000966:	cbd8                	sw	a4,20(a5)
80000968:	cf98                	sw	a4,24(a5)
8000096a:	00168713          	addi	a4,a3,1
8000096e:	cb98                	sw	a4,16(a5)
80000970:	411c                	lw	a5,0(a0)
80000972:	95c2                	add	a1,a1,a6
80000974:	95b2                	add	a1,a1,a2
80000976:	6605                	lui	a2,0x1
80000978:	95b2                	add	a1,a1,a2
8000097a:	faf5aa23          	sw	a5,-76(a1)
8000097e:	4715                	li	a4,5
80000980:	82e1aa23          	sw	a4,-1996(gp) # 90000a44 <Int_Glob>
80000984:	8082                	ret
	...

80000988 <Func_1>:
80000988:	0ff57513          	andi	a0,a0,255
8000098c:	0ff5f593          	andi	a1,a1,255
80000990:	00b50463          	beq	a0,a1,80000998 <Func_1+0x10>
80000994:	4501                	li	a0,0
80000996:	8082                	ret
80000998:	80a18c23          	sb	a0,-2024(gp) # 90000a28 <Ch_1_Glob>
8000099c:	4505                	li	a0,1
8000099e:	8082                	ret

800009a0 <Func_2>:
800009a0:	1141                	addi	sp,sp,-16
800009a2:	c226                	sw	s1,4(sp)
800009a4:	c04a                	sw	s2,0(sp)
800009a6:	c606                	sw	ra,12(sp)
800009a8:	c422                	sw	s0,8(sp)
800009aa:	84aa                	mv	s1,a0
800009ac:	892e                	mv	s2,a1
800009ae:	0001                	nop
800009b0:	00394583          	lbu	a1,3(s2)
800009b4:	0024c503          	lbu	a0,2(s1)
800009b8:	3fc1                	jal	80000988 <Func_1>
800009ba:	842a                	mv	s0,a0
800009bc:	f975                	bnez	a0,800009b0 <Func_2+0x10>
800009be:	85ca                	mv	a1,s2
800009c0:	8526                	mv	a0,s1
800009c2:	0b1010ef          	jal	ra,80002272 <strcmp>
800009c6:	00a05763          	blez	a0,800009d4 <Func_2+0x34>
800009ca:	4729                	li	a4,10
800009cc:	82e1aa23          	sw	a4,-1996(gp) # 90000a44 <Int_Glob>
800009d0:	4405                	li	s0,1
800009d2:	0001                	nop
800009d4:	8522                	mv	a0,s0
800009d6:	40b2                	lw	ra,12(sp)
800009d8:	4422                	lw	s0,8(sp)
800009da:	4492                	lw	s1,4(sp)
800009dc:	4902                	lw	s2,0(sp)
800009de:	0141                	addi	sp,sp,16
800009e0:	8082                	ret
	...

800009e4 <Func_3>:
800009e4:	1579                	addi	a0,a0,-2
800009e6:	00153513          	seqz	a0,a0
800009ea:	8082                	ret
800009ec:	0000                	unimp
	...

800009f0 <Proc_6>:
800009f0:	1141                	addi	sp,sp,-16
800009f2:	c422                	sw	s0,8(sp)
800009f4:	c226                	sw	s1,4(sp)
800009f6:	842a                	mv	s0,a0
800009f8:	c606                	sw	ra,12(sp)
800009fa:	84ae                	mv	s1,a1
800009fc:	37e5                	jal	800009e4 <Func_3>
800009fe:	87a2                	mv	a5,s0
80000a00:	e111                	bnez	a0,80000a04 <Proc_6+0x14>
80000a02:	478d                	li	a5,3
80000a04:	c09c                	sw	a5,0(s1)
80000a06:	4785                	li	a5,1
80000a08:	04f40263          	beq	s0,a5,80000a4c <Proc_6+0x5c>
80000a0c:	0287d063          	bge	a5,s0,80000a2c <Proc_6+0x3c>
80000a10:	4709                	li	a4,2
80000a12:	02e40763          	beq	s0,a4,80000a40 <Proc_6+0x50>
80000a16:	4791                	li	a5,4
80000a18:	00f41463          	bne	s0,a5,80000a20 <Proc_6+0x30>
80000a1c:	c098                	sw	a4,0(s1)
80000a1e:	0001                	nop
80000a20:	40b2                	lw	ra,12(sp)
80000a22:	4422                	lw	s0,8(sp)
80000a24:	4492                	lw	s1,4(sp)
80000a26:	0141                	addi	sp,sp,16
80000a28:	8082                	ret
80000a2a:	0001                	nop
80000a2c:	f875                	bnez	s0,80000a20 <Proc_6+0x30>
80000a2e:	0001                	nop
80000a30:	40b2                	lw	ra,12(sp)
80000a32:	4422                	lw	s0,8(sp)
80000a34:	0004a023          	sw	zero,0(s1)
80000a38:	4492                	lw	s1,4(sp)
80000a3a:	0141                	addi	sp,sp,16
80000a3c:	8082                	ret
80000a3e:	0001                	nop
80000a40:	40b2                	lw	ra,12(sp)
80000a42:	4422                	lw	s0,8(sp)
80000a44:	c09c                	sw	a5,0(s1)
80000a46:	4492                	lw	s1,4(sp)
80000a48:	0141                	addi	sp,sp,16
80000a4a:	8082                	ret
80000a4c:	8341a703          	lw	a4,-1996(gp) # 90000a44 <Int_Glob>
80000a50:	06400793          	li	a5,100
80000a54:	fce7cee3          	blt	a5,a4,80000a30 <Proc_6+0x40>
80000a58:	478d                	li	a5,3
80000a5a:	c09c                	sw	a5,0(s1)
80000a5c:	b7d1                	j	80000a20 <Proc_6+0x30>
	...

80000a60 <mtime_lo>:
80000a60:	0200c7b7          	lui	a5,0x200c
80000a64:	ff87a503          	lw	a0,-8(a5) # 200bff8 <__stack_size+0x200b7f8>
80000a68:	8082                	ret
	...

80000a6c <get_timer_value>:
80000a6c:	1141                	addi	sp,sp,-16
80000a6e:	c606                	sw	ra,12(sp)
80000a70:	3fc5                	jal	80000a60 <mtime_lo>
80000a72:	40b2                	lw	ra,12(sp)
80000a74:	4581                	li	a1,0
80000a76:	0141                	addi	sp,sp,16
80000a78:	8082                	ret
	...

80000a7c <get_timer_freq>:
80000a7c:	6521                	lui	a0,0x8
80000a7e:	8082                	ret
80000a80:	0000                	unimp
	...

80000a84 <measure_cpu_freq>:
80000a84:	1101                	addi	sp,sp,-32
80000a86:	ce06                	sw	ra,28(sp)
80000a88:	ca26                	sw	s1,20(sp)
80000a8a:	c84a                	sw	s2,16(sp)
80000a8c:	c64e                	sw	s3,12(sp)
80000a8e:	cc22                	sw	s0,24(sp)
80000a90:	84aa                	mv	s1,a0
80000a92:	37ed                	jal	80000a7c <get_timer_freq>
80000a94:	89aa                	mv	s3,a0
80000a96:	37e9                	jal	80000a60 <mtime_lo>
80000a98:	892a                	mv	s2,a0
80000a9a:	0001                	nop
80000a9c:	37d1                	jal	80000a60 <mtime_lo>
80000a9e:	842a                	mv	s0,a0
80000aa0:	fea90ee3          	beq	s2,a0,80000a9c <measure_cpu_freq+0x18>
80000aa4:	b0002973          	csrr	s2,mcycle
80000aa8:	3f65                	jal	80000a60 <mtime_lo>
80000aaa:	8d01                	sub	a0,a0,s0
80000aac:	fe956ee3          	bltu	a0,s1,80000aa8 <measure_cpu_freq+0x24>
80000ab0:	b00027f3          	csrr	a5,mcycle
80000ab4:	412787b3          	sub	a5,a5,s2
80000ab8:	02a7f733          	remu	a4,a5,a0
80000abc:	40f2                	lw	ra,28(sp)
80000abe:	4462                	lw	s0,24(sp)
80000ac0:	44d2                	lw	s1,20(sp)
80000ac2:	4942                	lw	s2,16(sp)
80000ac4:	02a7d7b3          	divu	a5,a5,a0
80000ac8:	03370733          	mul	a4,a4,s3
80000acc:	02a75533          	divu	a0,a4,a0
80000ad0:	033787b3          	mul	a5,a5,s3
80000ad4:	49b2                	lw	s3,12(sp)
80000ad6:	6105                	addi	sp,sp,32
80000ad8:	953e                	add	a0,a0,a5
80000ada:	8082                	ret

80000adc <get_instret_value>:
80000adc:	b82025f3          	csrr	a1,minstreth
80000ae0:	b0202573          	csrr	a0,minstret
80000ae4:	b82027f3          	csrr	a5,minstreth
80000ae8:	fef59ae3          	bne	a1,a5,80000adc <get_instret_value>
80000aec:	8082                	ret
	...

80000af0 <get_cycle_value>:
80000af0:	b80025f3          	csrr	a1,mcycleh
80000af4:	b0002573          	csrr	a0,mcycle
80000af8:	b80027f3          	csrr	a5,mcycleh
80000afc:	fef59ae3          	bne	a1,a5,80000af0 <get_cycle_value>
80000b00:	8082                	ret
	...

80000b04 <get_cpu_freq>:
80000b04:	1141                	addi	sp,sp,-16
80000b06:	4505                	li	a0,1
80000b08:	c606                	sw	ra,12(sp)
80000b0a:	3fad                	jal	80000a84 <measure_cpu_freq>
80000b0c:	40b2                	lw	ra,12(sp)
80000b0e:	06400513          	li	a0,100
80000b12:	0141                	addi	sp,sp,16
80000b14:	bf85                	j	80000a84 <measure_cpu_freq>
	...

80000b18 <uart_init.constprop.1>:
80000b18:	100127b7          	lui	a5,0x10012
80000b1c:	5fd8                	lw	a4,60(a5)
80000b1e:	fffd06b7          	lui	a3,0xfffd0
80000b22:	1141                	addi	sp,sp,-16
80000b24:	16fd                	addi	a3,a3,-1
80000b26:	c606                	sw	ra,12(sp)
80000b28:	8f75                	and	a4,a4,a3
80000b2a:	dfd8                	sw	a4,60(a5)
80000b2c:	5f98                	lw	a4,56(a5)
80000b2e:	000306b7          	lui	a3,0x30
80000b32:	8f55                	or	a4,a4,a3
80000b34:	df98                	sw	a4,56(a5)
80000b36:	37f9                	jal	80000b04 <get_cpu_freq>
80000b38:	67f1                	lui	a5,0x1c
80000b3a:	20078793          	addi	a5,a5,512 # 1c200 <__stack_size+0x1ba00>
80000b3e:	02f55533          	divu	a0,a0,a5
80000b42:	100137b7          	lui	a5,0x10013
80000b46:	40b2                	lw	ra,12(sp)
80000b48:	157d                	addi	a0,a0,-1
80000b4a:	cf88                	sw	a0,24(a5)
80000b4c:	4798                	lw	a4,8(a5)
80000b4e:	00176713          	ori	a4,a4,1
80000b52:	c798                	sw	a4,8(a5)
80000b54:	47d8                	lw	a4,12(a5)
80000b56:	00176713          	ori	a4,a4,1
80000b5a:	c7d8                	sw	a4,12(a5)
80000b5c:	0141                	addi	sp,sp,16
80000b5e:	8082                	ret

80000b60 <handle_m_ext_interrupt>:
80000b60:	8082                	ret
	...

80000b64 <handle_m_time_interrupt>:
80000b64:	8082                	ret
	...

80000b68 <handle_trap>:
80000b68:	1141                	addi	sp,sp,-16
80000b6a:	c422                	sw	s0,8(sp)
80000b6c:	c606                	sw	ra,12(sp)
80000b6e:	c226                	sw	s1,4(sp)
80000b70:	842a                	mv	s0,a0
80000b72:	00054f63          	bltz	a0,80000b90 <handle_trap+0x28>
80000b76:	0001                	nop
80000b78:	900005b7          	lui	a1,0x90000
80000b7c:	4615                	li	a2,5
80000b7e:	61858593          	addi	a1,a1,1560 # 90000618 <_sp+0xffff0618>
80000b82:	4505                	li	a0,1
80000b84:	730010ef          	jal	ra,800022b4 <write>
80000b88:	00140513          	addi	a0,s0,1
80000b8c:	28b1                	jal	80000be8 <_exit>
80000b8e:	0001                	nop
80000b90:	00151793          	slli	a5,a0,0x1
80000b94:	8385                	srli	a5,a5,0x1
80000b96:	472d                	li	a4,11
80000b98:	84ae                	mv	s1,a1
80000b9a:	00e78d63          	beq	a5,a4,80000bb4 <handle_trap+0x4c>
80000b9e:	471d                	li	a4,7
80000ba0:	fce79ce3          	bne	a5,a4,80000b78 <handle_trap+0x10>
80000ba4:	37c1                	jal	80000b64 <handle_m_time_interrupt>
80000ba6:	0001                	nop
80000ba8:	40b2                	lw	ra,12(sp)
80000baa:	4422                	lw	s0,8(sp)
80000bac:	8526                	mv	a0,s1
80000bae:	4492                	lw	s1,4(sp)
80000bb0:	0141                	addi	sp,sp,16
80000bb2:	8082                	ret
80000bb4:	3775                	jal	80000b60 <handle_m_ext_interrupt>
80000bb6:	bfcd                	j	80000ba8 <handle_trap+0x40>
80000bb8:	0000                	unimp
	...

80000bbc <_init>:
80000bbc:	1141                	addi	sp,sp,-16
80000bbe:	c606                	sw	ra,12(sp)
80000bc0:	3fa1                	jal	80000b18 <uart_init.constprop.1>
80000bc2:	3789                	jal	80000b04 <get_cpu_freq>
80000bc4:	85aa                	mv	a1,a0
80000bc6:	90000537          	lui	a0,0x90000
80000bca:	60450513          	addi	a0,a0,1540 # 90000604 <_sp+0xffff0604>
80000bce:	23c1                	jal	8000118e <__wrap_printf>
80000bd0:	800007b7          	lui	a5,0x80000
80000bd4:	74478793          	addi	a5,a5,1860 # 80000744 <_sp+0xefff0744>
80000bd8:	30579073          	csrw	mtvec,a5
80000bdc:	40b2                	lw	ra,12(sp)
80000bde:	0141                	addi	sp,sp,16
80000be0:	8082                	ret
	...

80000be4 <_fini>:
80000be4:	8082                	ret
	...

80000be8 <_exit>:
80000be8:	900007b7          	lui	a5,0x90000
80000bec:	62078793          	addi	a5,a5,1568 # 90000620 <_sp+0xffff0620>
80000bf0:	0007af03          	lw	t5,0(a5)
80000bf4:	0047ae83          	lw	t4,4(a5)
80000bf8:	0087ae03          	lw	t3,8(a5)
80000bfc:	00c7a303          	lw	t1,12(a5)
80000c00:	0107a883          	lw	a7,16(a5)
80000c04:	0147a803          	lw	a6,20(a5)
80000c08:	4f94                	lw	a3,24(a5)
80000c0a:	01c7d703          	lhu	a4,28(a5)
80000c0e:	01e7c783          	lbu	a5,30(a5)
80000c12:	7179                	addi	sp,sp,-48
80000c14:	4679                	li	a2,30
80000c16:	d422                	sw	s0,40(sp)
80000c18:	858a                	mv	a1,sp
80000c1a:	842a                	mv	s0,a0
80000c1c:	4509                	li	a0,2
80000c1e:	d606                	sw	ra,44(sp)
80000c20:	c07a                	sw	t5,0(sp)
80000c22:	c276                	sw	t4,4(sp)
80000c24:	c472                	sw	t3,8(sp)
80000c26:	c61a                	sw	t1,12(sp)
80000c28:	c846                	sw	a7,16(sp)
80000c2a:	ca42                	sw	a6,20(sp)
80000c2c:	cc36                	sw	a3,24(sp)
80000c2e:	00e11e23          	sh	a4,28(sp)
80000c32:	00f10f23          	sb	a5,30(sp)
80000c36:	67e010ef          	jal	ra,800022b4 <write>
80000c3a:	85a2                	mv	a1,s0
80000c3c:	4509                	li	a0,2
80000c3e:	2819                	jal	80000c54 <write_hex>
80000c40:	900005b7          	lui	a1,0x90000
80000c44:	4605                	li	a2,1
80000c46:	52c58593          	addi	a1,a1,1324 # 9000052c <_sp+0xffff052c>
80000c4a:	4509                	li	a0,2
80000c4c:	668010ef          	jal	ra,800022b4 <write>
80000c50:	a001                	j	80000c50 <_exit+0x68>
	...

80000c54 <write_hex>:
80000c54:	7179                	addi	sp,sp,-48
80000c56:	ca56                	sw	s5,20(sp)
80000c58:	8aae                	mv	s5,a1
80000c5a:	900005b7          	lui	a1,0x90000
80000c5e:	4609                	li	a2,2
80000c60:	64058593          	addi	a1,a1,1600 # 90000640 <_sp+0xffff0640>
80000c64:	d422                	sw	s0,40(sp)
80000c66:	d226                	sw	s1,36(sp)
80000c68:	d04a                	sw	s2,32(sp)
80000c6a:	ce4e                	sw	s3,28(sp)
80000c6c:	cc52                	sw	s4,24(sp)
80000c6e:	d606                	sw	ra,44(sp)
80000c70:	8a2a                	mv	s4,a0
80000c72:	4471                	li	s0,28
80000c74:	640010ef          	jal	ra,800022b4 <write>
80000c78:	49bd                	li	s3,15
80000c7a:	4925                	li	s2,9
80000c7c:	54f1                	li	s1,-4
80000c7e:	a839                	j	80000c9c <write_hex+0x48>
80000c80:	0ff6f793          	andi	a5,a3,255
80000c84:	1471                	addi	s0,s0,-4
80000c86:	4605                	li	a2,1
80000c88:	00f10593          	addi	a1,sp,15
80000c8c:	8552                	mv	a0,s4
80000c8e:	00f107a3          	sb	a5,15(sp)
80000c92:	622010ef          	jal	ra,800022b4 <write>
80000c96:	02940f63          	beq	s0,s1,80000cd4 <write_hex+0x80>
80000c9a:	0001                	nop
80000c9c:	008997b3          	sll	a5,s3,s0
80000ca0:	0157f7b3          	and	a5,a5,s5
80000ca4:	0087d7b3          	srl	a5,a5,s0
80000ca8:	0ff7f793          	andi	a5,a5,255
80000cac:	03078693          	addi	a3,a5,48
80000cb0:	03778713          	addi	a4,a5,55
80000cb4:	fcf976e3          	bgeu	s2,a5,80000c80 <write_hex+0x2c>
80000cb8:	0ff77793          	andi	a5,a4,255
80000cbc:	1471                	addi	s0,s0,-4
80000cbe:	4605                	li	a2,1
80000cc0:	00f10593          	addi	a1,sp,15
80000cc4:	8552                	mv	a0,s4
80000cc6:	00f107a3          	sb	a5,15(sp)
80000cca:	5ea010ef          	jal	ra,800022b4 <write>
80000cce:	fc9417e3          	bne	s0,s1,80000c9c <write_hex+0x48>
80000cd2:	0001                	nop
80000cd4:	50b2                	lw	ra,44(sp)
80000cd6:	5422                	lw	s0,40(sp)
80000cd8:	5492                	lw	s1,36(sp)
80000cda:	5902                	lw	s2,32(sp)
80000cdc:	49f2                	lw	s3,28(sp)
80000cde:	4a62                	lw	s4,24(sp)
80000ce0:	4ad2                	lw	s5,20(sp)
80000ce2:	6145                	addi	sp,sp,48
80000ce4:	8082                	ret
	...

80000ce8 <_isatty>:
80000ce8:	157d                	addi	a0,a0,-1
80000cea:	00253513          	sltiu	a0,a0,2
80000cee:	8082                	ret
80000cf0:	0000                	unimp
	...

80000cf4 <_sbrk>:
80000cf4:	900017b7          	lui	a5,0x90001
80000cf8:	a1078793          	addi	a5,a5,-1520 # 90000a10 <_sp+0xffff0a10>
80000cfc:	4394                	lw	a3,0(a5)
80000cfe:	90003737          	lui	a4,0x90003
80000d02:	2d070713          	addi	a4,a4,720 # 900032d0 <_sp+0xffff32d0>
80000d06:	9536                	add	a0,a0,a3
80000d08:	00e56c63          	bltu	a0,a4,80000d20 <_sbrk+0x2c>
80000d0c:	90010737          	lui	a4,0x90010
80000d10:	80070713          	addi	a4,a4,-2048 # 9000f800 <_sp+0xfffff800>
80000d14:	00a76663          	bltu	a4,a0,80000d20 <_sbrk+0x2c>
80000d18:	c388                	sw	a0,0(a5)
80000d1a:	8536                	mv	a0,a3
80000d1c:	8082                	ret
80000d1e:	0001                	nop
80000d20:	56fd                	li	a3,-1
80000d22:	8536                	mv	a0,a3
80000d24:	8082                	ret
	...

80000d28 <_stub.isra.0>:
80000d28:	557d                	li	a0,-1
80000d2a:	8082                	ret
80000d2c:	0000                	unimp
	...

80000d30 <_write>:
80000d30:	1141                	addi	sp,sp,-16
80000d32:	c422                	sw	s0,8(sp)
80000d34:	c226                	sw	s1,4(sp)
80000d36:	c606                	sw	ra,12(sp)
80000d38:	842e                	mv	s0,a1
80000d3a:	84b2                	mv	s1,a2
80000d3c:	566010ef          	jal	ra,800022a2 <isatty>
80000d40:	e511                	bnez	a0,80000d4c <_write+0x1c>
80000d42:	4422                	lw	s0,8(sp)
80000d44:	40b2                	lw	ra,12(sp)
80000d46:	4492                	lw	s1,4(sp)
80000d48:	0141                	addi	sp,sp,16
80000d4a:	bff9                	j	80000d28 <_stub.isra.0>
80000d4c:	c495                	beqz	s1,80000d78 <_write+0x48>
80000d4e:	85a2                	mv	a1,s0
80000d50:	00940533          	add	a0,s0,s1
80000d54:	10013737          	lui	a4,0x10013
80000d58:	46a9                	li	a3,10
80000d5a:	4635                	li	a2,13
80000d5c:	431c                	lw	a5,0(a4)
80000d5e:	fe07cfe3          	bltz	a5,80000d5c <_write+0x2c>
80000d62:	0005c783          	lbu	a5,0(a1)
80000d66:	c31c                	sw	a5,0(a4)
80000d68:	0005c783          	lbu	a5,0(a1)
80000d6c:	00d78c63          	beq	a5,a3,80000d84 <_write+0x54>
80000d70:	0585                	addi	a1,a1,1
80000d72:	fea595e3          	bne	a1,a0,80000d5c <_write+0x2c>
80000d76:	0001                	nop
80000d78:	40b2                	lw	ra,12(sp)
80000d7a:	4422                	lw	s0,8(sp)
80000d7c:	8526                	mv	a0,s1
80000d7e:	4492                	lw	s1,4(sp)
80000d80:	0141                	addi	sp,sp,16
80000d82:	8082                	ret
80000d84:	431c                	lw	a5,0(a4)
80000d86:	fe07cfe3          	bltz	a5,80000d84 <_write+0x54>
80000d8a:	c310                	sw	a2,0(a4)
80000d8c:	b7d5                	j	80000d70 <_write+0x40>
	...

80000d90 <__wrap_malloc>:
80000d90:	1141                	addi	sp,sp,-16
80000d92:	c606                	sw	ra,12(sp)
80000d94:	512010ef          	jal	ra,800022a6 <sbrk>
80000d98:	00150793          	addi	a5,a0,1
80000d9c:	40b2                	lw	ra,12(sp)
80000d9e:	00f037b3          	snez	a5,a5
80000da2:	40f007b3          	neg	a5,a5
80000da6:	8d7d                	and	a0,a0,a5
80000da8:	0141                	addi	sp,sp,16
80000daa:	8082                	ret

80000dac <sprintf_putch>:
80000dac:	419c                	lw	a5,0(a1)
80000dae:	00a78023          	sb	a0,0(a5)
80000db2:	419c                	lw	a5,0(a1)
80000db4:	0785                	addi	a5,a5,1
80000db6:	c19c                	sw	a5,0(a1)
80000db8:	8082                	ret

80000dba <putchar>:
80000dba:	1101                	addi	sp,sp,-32
80000dbc:	c62a                	sw	a0,12(sp)
80000dbe:	4605                	li	a2,1
80000dc0:	006c                	addi	a1,sp,12
80000dc2:	4505                	li	a0,1
80000dc4:	ce06                	sw	ra,28(sp)
80000dc6:	4ee010ef          	jal	ra,800022b4 <write>
80000dca:	4785                	li	a5,1
80000dcc:	00f51663          	bne	a0,a5,80000dd8 <putchar+0x1e>
80000dd0:	4532                	lw	a0,12(sp)
80000dd2:	40f2                	lw	ra,28(sp)
80000dd4:	6105                	addi	sp,sp,32
80000dd6:	8082                	ret
80000dd8:	557d                	li	a0,-1
80000dda:	bfe5                	j	80000dd2 <putchar+0x18>

80000ddc <vprintfmt>:
80000ddc:	7111                	addi	sp,sp,-256
80000dde:	900007b7          	lui	a5,0x90000
80000de2:	cde2                	sw	s8,216(sp)
80000de4:	40000c37          	lui	s8,0x40000
80000de8:	d5d2                	sw	s4,232(sp)
80000dea:	d3d6                	sw	s5,228(sp)
80000dec:	d1da                	sw	s6,224(sp)
80000dee:	7a07aa03          	lw	s4,1952(a5) # 900007a0 <_sp+0xffff07a0>
80000df2:	7a47aa83          	lw	s5,1956(a5)
80000df6:	90000b37          	lui	s6,0x90000
80000dfa:	fffc0793          	addi	a5,s8,-1 # 3fffffff <__stack_size+0x3ffff7ff>
80000dfe:	dda2                	sw	s0,248(sp)
80000e00:	dba6                	sw	s1,244(sp)
80000e02:	d9ca                	sw	s2,240(sp)
80000e04:	d7ce                	sw	s3,236(sp)
80000e06:	df86                	sw	ra,252(sp)
80000e08:	cfde                	sw	s7,220(sp)
80000e0a:	cbe6                	sw	s9,212(sp)
80000e0c:	c9ea                	sw	s10,208(sp)
80000e0e:	c7ee                	sw	s11,204(sp)
80000e10:	892a                	mv	s2,a0
80000e12:	84ae                	mv	s1,a1
80000e14:	8432                	mv	s0,a2
80000e16:	89b6                	mv	s3,a3
80000e18:	644b0b13          	addi	s6,s6,1604 # 90000644 <_sp+0xffff0644>
80000e1c:	c63e                	sw	a5,12(sp)
80000e1e:	00044503          	lbu	a0,0(s0)
80000e22:	02500793          	li	a5,37
80000e26:	00f50e63          	beq	a0,a5,80000e42 <vprintfmt+0x66>
80000e2a:	c521                	beqz	a0,80000e72 <vprintfmt+0x96>
80000e2c:	02500b93          	li	s7,37
80000e30:	a011                	j	80000e34 <vprintfmt+0x58>
80000e32:	c121                	beqz	a0,80000e72 <vprintfmt+0x96>
80000e34:	85a6                	mv	a1,s1
80000e36:	0405                	addi	s0,s0,1
80000e38:	9902                	jalr	s2
80000e3a:	00044503          	lbu	a0,0(s0)
80000e3e:	ff751ae3          	bne	a0,s7,80000e32 <vprintfmt+0x56>
80000e42:	00144583          	lbu	a1,1(s0)
80000e46:	00140d13          	addi	s10,s0,1
80000e4a:	86ea                	mv	a3,s10
80000e4c:	02000b93          	li	s7,32
80000e50:	5cfd                	li	s9,-1
80000e52:	5c7d                	li	s8,-1
80000e54:	05500813          	li	a6,85
80000e58:	48a5                	li	a7,9
80000e5a:	fdd58793          	addi	a5,a1,-35
80000e5e:	0ff7f793          	andi	a5,a5,255
80000e62:	00168413          	addi	s0,a3,1 # 30001 <__stack_size+0x2f801>
80000e66:	28f86f63          	bltu	a6,a5,80001104 <vprintfmt+0x328>
80000e6a:	078a                	slli	a5,a5,0x2
80000e6c:	97da                	add	a5,a5,s6
80000e6e:	439c                	lw	a5,0(a5)
80000e70:	8782                	jr	a5
80000e72:	50fe                	lw	ra,252(sp)
80000e74:	546e                	lw	s0,248(sp)
80000e76:	54de                	lw	s1,244(sp)
80000e78:	594e                	lw	s2,240(sp)
80000e7a:	59be                	lw	s3,236(sp)
80000e7c:	5a2e                	lw	s4,232(sp)
80000e7e:	5a9e                	lw	s5,228(sp)
80000e80:	5b0e                	lw	s6,224(sp)
80000e82:	4bfe                	lw	s7,220(sp)
80000e84:	4c6e                	lw	s8,216(sp)
80000e86:	4cde                	lw	s9,212(sp)
80000e88:	4d4e                	lw	s10,208(sp)
80000e8a:	4dbe                	lw	s11,204(sp)
80000e8c:	6111                	addi	sp,sp,256
80000e8e:	8082                	ret
80000e90:	8bae                	mv	s7,a1
80000e92:	0016c583          	lbu	a1,1(a3)
80000e96:	86a2                	mv	a3,s0
80000e98:	b7c9                	j	80000e5a <vprintfmt+0x7e>
80000e9a:	4721                	li	a4,8
80000e9c:	0009a783          	lw	a5,0(s3)
80000ea0:	0991                	addi	s3,s3,4
80000ea2:	02e7fdb3          	remu	s11,a5,a4
80000ea6:	00d4                	addi	a3,sp,68
80000ea8:	4c85                	li	s9,1
80000eaa:	c0ee                	sw	s11,64(sp)
80000eac:	00e7f463          	bgeu	a5,a4,80000eb4 <vprintfmt+0xd8>
80000eb0:	a485                	j	80001110 <vprintfmt+0x334>
80000eb2:	8cea                	mv	s9,s10
80000eb4:	02e7d7b3          	divu	a5,a5,a4
80000eb8:	0691                	addi	a3,a3,4
80000eba:	001c8d13          	addi	s10,s9,1
80000ebe:	02e7fdb3          	remu	s11,a5,a4
80000ec2:	ffb6ae23          	sw	s11,-4(a3)
80000ec6:	fee7f6e3          	bgeu	a5,a4,80000eb2 <vprintfmt+0xd6>
80000eca:	018d5863          	bge	s10,s8,80000eda <vprintfmt+0xfe>
80000ece:	1c7d                	addi	s8,s8,-1
80000ed0:	85a6                	mv	a1,s1
80000ed2:	855e                	mv	a0,s7
80000ed4:	9902                	jalr	s2
80000ed6:	ff8d4ce3          	blt	s10,s8,80000ece <vprintfmt+0xf2>
80000eda:	47b2                	lw	a5,12(sp)
80000edc:	0098                	addi	a4,sp,64
80000ede:	03c10d13          	addi	s10,sp,60
80000ee2:	97e6                	add	a5,a5,s9
80000ee4:	078a                	slli	a5,a5,0x2
80000ee6:	00f70c33          	add	s8,a4,a5
80000eea:	4ba5                	li	s7,9
80000eec:	a021                	j	80000ef4 <vprintfmt+0x118>
80000eee:	000c2d83          	lw	s11,0(s8)
80000ef2:	1c71                	addi	s8,s8,-4
80000ef4:	01bbb533          	sltu	a0,s7,s11
80000ef8:	40a00533          	neg	a0,a0
80000efc:	02757513          	andi	a0,a0,39
80000f00:	03050513          	addi	a0,a0,48
80000f04:	85a6                	mv	a1,s1
80000f06:	956e                	add	a0,a0,s11
80000f08:	9902                	jalr	s2
80000f0a:	ff8d12e3          	bne	s10,s8,80000eee <vprintfmt+0x112>
80000f0e:	bf01                	j	80000e1e <vprintfmt+0x42>
80000f10:	4741                	li	a4,16
80000f12:	b769                	j	80000e9c <vprintfmt+0xc0>
80000f14:	85a6                	mv	a1,s1
80000f16:	02500513          	li	a0,37
80000f1a:	9902                	jalr	s2
80000f1c:	b709                	j	80000e1e <vprintfmt+0x42>
80000f1e:	0009ad03          	lw	s10,0(s3)
80000f22:	0991                	addi	s3,s3,4
80000f24:	220d4d63          	bltz	s10,8000115e <vprintfmt+0x382>
80000f28:	87ea                	mv	a5,s10
80000f2a:	4729                	li	a4,10
80000f2c:	bf9d                	j	80000ea2 <vprintfmt+0xc6>
80000f2e:	099d                	addi	s3,s3,7
80000f30:	ff89f993          	andi	s3,s3,-8
80000f34:	0049ad83          	lw	s11,4(s3)
80000f38:	0009ac03          	lw	s8,0(s3)
80000f3c:	09a1                	addi	s3,s3,8
80000f3e:	87ee                	mv	a5,s11
80000f40:	8be2                	mv	s7,s8
80000f42:	1c0dcd63          	bltz	s11,8000111c <vprintfmt+0x340>
80000f46:	01905f63          	blez	s9,80000f64 <vprintfmt+0x188>
80000f4a:	4d01                	li	s10,0
80000f4c:	855e                	mv	a0,s7
80000f4e:	85be                	mv	a1,a5
80000f50:	8652                	mv	a2,s4
80000f52:	86d6                	mv	a3,s5
80000f54:	2509                	jal	80001556 <__muldf3>
80000f56:	0d05                	addi	s10,s10,1
80000f58:	8c2a                	mv	s8,a0
80000f5a:	8dae                	mv	s11,a1
80000f5c:	8baa                	mv	s7,a0
80000f5e:	87ae                	mv	a5,a1
80000f60:	ffac96e3          	bne	s9,s10,80000f4c <vprintfmt+0x170>
80000f64:	8562                	mv	a0,s8
80000f66:	85ee                	mv	a1,s11
80000f68:	02010b93          	addi	s7,sp,32
80000f6c:	ce5e                	sw	s7,28(sp)
80000f6e:	295000ef          	jal	ra,80001a02 <__fixunsdfsi>
80000f72:	46a9                	li	a3,10
80000f74:	02d576b3          	remu	a3,a0,a3
80000f78:	47a5                	li	a5,9
80000f7a:	c0b6                	sw	a3,64(sp)
80000f7c:	20a7f763          	bgeu	a5,a0,8000118a <vprintfmt+0x3ae>
80000f80:	00dc                	addi	a5,sp,68
80000f82:	4585                	li	a1,1
80000f84:	4829                	li	a6,10
80000f86:	06300313          	li	t1,99
80000f8a:	a019                	j	80000f90 <vprintfmt+0x1b4>
80000f8c:	8532                	mv	a0,a2
80000f8e:	85c6                	mv	a1,a7
80000f90:	03055633          	divu	a2,a0,a6
80000f94:	0791                	addi	a5,a5,4
80000f96:	00158893          	addi	a7,a1,1
80000f9a:	030676b3          	remu	a3,a2,a6
80000f9e:	fed7ae23          	sw	a3,-4(a5)
80000fa2:	fea365e3          	bltu	t1,a0,80000f8c <vprintfmt+0x1b0>
80000fa6:	47b2                	lw	a5,12(sp)
80000fa8:	03c10d93          	addi	s11,sp,60
80000fac:	4d25                	li	s10,9
80000fae:	00f58633          	add	a2,a1,a5
80000fb2:	060a                	slli	a2,a2,0x2
80000fb4:	009c                	addi	a5,sp,64
80000fb6:	00c78c33          	add	s8,a5,a2
80000fba:	a021                	j	80000fc2 <vprintfmt+0x1e6>
80000fbc:	000c2683          	lw	a3,0(s8)
80000fc0:	1c71                	addi	s8,s8,-4
80000fc2:	00dd37b3          	sltu	a5,s10,a3
80000fc6:	40f007b3          	neg	a5,a5
80000fca:	0277f793          	andi	a5,a5,39
80000fce:	03078793          	addi	a5,a5,48
80000fd2:	086c                	addi	a1,sp,28
80000fd4:	00d78533          	add	a0,a5,a3
80000fd8:	3bd1                	jal	80000dac <sprintf_putch>
80000fda:	ffbc11e3          	bne	s8,s11,80000fbc <vprintfmt+0x1e0>
80000fde:	47f2                	lw	a5,28(sp)
80000fe0:	03905763          	blez	s9,8000100e <vprintfmt+0x232>
80000fe4:	fffcc593          	not	a1,s9
80000fe8:	56fd                	li	a3,-1
80000fea:	97b6                	add	a5,a5,a3
80000fec:	0007c603          	lbu	a2,0(a5)
80000ff0:	16fd                	addi	a3,a3,-1
80000ff2:	00c780a3          	sb	a2,1(a5)
80000ff6:	47f2                	lw	a5,28(sp)
80000ff8:	fed599e3          	bne	a1,a3,80000fea <vprintfmt+0x20e>
80000ffc:	41978733          	sub	a4,a5,s9
80001000:	02e00793          	li	a5,46
80001004:	00f70023          	sb	a5,0(a4) # 10013000 <__stack_size+0x10012800>
80001008:	47f2                	lw	a5,28(sp)
8000100a:	0785                	addi	a5,a5,1
8000100c:	ce3e                	sw	a5,28(sp)
8000100e:	e0fbf8e3          	bgeu	s7,a5,80000e1e <vprintfmt+0x42>
80001012:	000bc503          	lbu	a0,0(s7)
80001016:	85a6                	mv	a1,s1
80001018:	0b85                	addi	s7,s7,1
8000101a:	9902                	jalr	s2
8000101c:	47f2                	lw	a5,28(sp)
8000101e:	fefbeae3          	bltu	s7,a5,80001012 <vprintfmt+0x236>
80001022:	bbf5                	j	80000e1e <vprintfmt+0x42>
80001024:	0009ad03          	lw	s10,0(s3)
80001028:	0991                	addi	s3,s3,4
8000102a:	140d0263          	beqz	s10,8000116e <vprintfmt+0x392>
8000102e:	13805263          	blez	s8,80001152 <vprintfmt+0x376>
80001032:	02d00793          	li	a5,45
80001036:	10fb9063          	bne	s7,a5,80001136 <vprintfmt+0x35a>
8000103a:	000d4503          	lbu	a0,0(s10)
8000103e:	c105                	beqz	a0,8000105e <vprintfmt+0x282>
80001040:	5bfd                	li	s7,-1
80001042:	000cc563          	bltz	s9,8000104c <vprintfmt+0x270>
80001046:	1cfd                	addi	s9,s9,-1
80001048:	017c8963          	beq	s9,s7,8000105a <vprintfmt+0x27e>
8000104c:	85a6                	mv	a1,s1
8000104e:	0d05                	addi	s10,s10,1
80001050:	9902                	jalr	s2
80001052:	000d4503          	lbu	a0,0(s10)
80001056:	1c7d                	addi	s8,s8,-1
80001058:	f56d                	bnez	a0,80001042 <vprintfmt+0x266>
8000105a:	dd8052e3          	blez	s8,80000e1e <vprintfmt+0x42>
8000105e:	1c7d                	addi	s8,s8,-1
80001060:	85a6                	mv	a1,s1
80001062:	02000513          	li	a0,32
80001066:	9902                	jalr	s2
80001068:	da0c0be3          	beqz	s8,80000e1e <vprintfmt+0x42>
8000106c:	1c7d                	addi	s8,s8,-1
8000106e:	85a6                	mv	a1,s1
80001070:	02000513          	li	a0,32
80001074:	9902                	jalr	s2
80001076:	fe0c14e3          	bnez	s8,8000105e <vprintfmt+0x282>
8000107a:	b355                	j	80000e1e <vprintfmt+0x42>
8000107c:	fffc4793          	not	a5,s8
80001080:	87fd                	srai	a5,a5,0x1f
80001082:	0016c583          	lbu	a1,1(a3)
80001086:	00fc7c33          	and	s8,s8,a5
8000108a:	86a2                	mv	a3,s0
8000108c:	b3f9                	j	80000e5a <vprintfmt+0x7e>
8000108e:	4729                	li	a4,10
80001090:	b531                	j	80000e9c <vprintfmt+0xc0>
80001092:	0016c503          	lbu	a0,1(a3)
80001096:	fd058c93          	addi	s9,a1,-48
8000109a:	86a2                	mv	a3,s0
8000109c:	fd050793          	addi	a5,a0,-48
800010a0:	85aa                	mv	a1,a0
800010a2:	02f8e263          	bltu	a7,a5,800010c6 <vprintfmt+0x2ea>
800010a6:	002c9793          	slli	a5,s9,0x2
800010aa:	01978733          	add	a4,a5,s9
800010ae:	0685                	addi	a3,a3,1
800010b0:	0706                	slli	a4,a4,0x1
800010b2:	972a                	add	a4,a4,a0
800010b4:	0006c503          	lbu	a0,0(a3)
800010b8:	fd070c93          	addi	s9,a4,-48
800010bc:	fd050793          	addi	a5,a0,-48
800010c0:	85aa                	mv	a1,a0
800010c2:	fef8f2e3          	bgeu	a7,a5,800010a6 <vprintfmt+0x2ca>
800010c6:	d80c5ae3          	bgez	s8,80000e5a <vprintfmt+0x7e>
800010ca:	8c66                	mv	s8,s9
800010cc:	5cfd                	li	s9,-1
800010ce:	b371                	j	80000e5a <vprintfmt+0x7e>
800010d0:	0009a503          	lw	a0,0(s3)
800010d4:	85a6                	mv	a1,s1
800010d6:	0991                	addi	s3,s3,4
800010d8:	9902                	jalr	s2
800010da:	b391                	j	80000e1e <vprintfmt+0x42>
800010dc:	03000513          	li	a0,48
800010e0:	85a6                	mv	a1,s1
800010e2:	9902                	jalr	s2
800010e4:	85a6                	mv	a1,s1
800010e6:	07800513          	li	a0,120
800010ea:	9902                	jalr	s2
800010ec:	0991                	addi	s3,s3,4
800010ee:	ffc9a783          	lw	a5,-4(s3)
800010f2:	4741                	li	a4,16
800010f4:	b37d                	j	80000ea2 <vprintfmt+0xc6>
800010f6:	0009ac83          	lw	s9,0(s3)
800010fa:	0016c583          	lbu	a1,1(a3)
800010fe:	0991                	addi	s3,s3,4
80001100:	86a2                	mv	a3,s0
80001102:	b7d1                	j	800010c6 <vprintfmt+0x2ea>
80001104:	85a6                	mv	a1,s1
80001106:	02500513          	li	a0,37
8000110a:	9902                	jalr	s2
8000110c:	846a                	mv	s0,s10
8000110e:	bb01                	j	80000e1e <vprintfmt+0x42>
80001110:	4785                	li	a5,1
80001112:	4c81                	li	s9,0
80001114:	4d05                	li	s10,1
80001116:	db87cce3          	blt	a5,s8,80000ece <vprintfmt+0xf2>
8000111a:	b3c1                	j	80000eda <vprintfmt+0xfe>
8000111c:	85a6                	mv	a1,s1
8000111e:	02d00513          	li	a0,45
80001122:	9902                	jalr	s2
80001124:	001d9793          	slli	a5,s11,0x1
80001128:	8385                	srli	a5,a5,0x1
8000112a:	8dbe                	mv	s11,a5
8000112c:	bd29                	j	80000f46 <vprintfmt+0x16a>
8000112e:	900007b7          	lui	a5,0x90000
80001132:	7a878d13          	addi	s10,a5,1960 # 900007a8 <_sp+0xffff07a8>
80001136:	85e6                	mv	a1,s9
80001138:	856a                	mv	a0,s10
8000113a:	150010ef          	jal	ra,8000228a <strnlen>
8000113e:	40ac0c33          	sub	s8,s8,a0
80001142:	01805863          	blez	s8,80001152 <vprintfmt+0x376>
80001146:	1c7d                	addi	s8,s8,-1
80001148:	85a6                	mv	a1,s1
8000114a:	855e                	mv	a0,s7
8000114c:	9902                	jalr	s2
8000114e:	fe0c1ce3          	bnez	s8,80001146 <vprintfmt+0x36a>
80001152:	000d4503          	lbu	a0,0(s10)
80001156:	cc0504e3          	beqz	a0,80000e1e <vprintfmt+0x42>
8000115a:	5bfd                	li	s7,-1
8000115c:	b5dd                	j	80001042 <vprintfmt+0x266>
8000115e:	85a6                	mv	a1,s1
80001160:	02d00513          	li	a0,45
80001164:	9902                	jalr	s2
80001166:	41a007b3          	neg	a5,s10
8000116a:	4729                	li	a4,10
8000116c:	bb1d                	j	80000ea2 <vprintfmt+0xc6>
8000116e:	01805663          	blez	s8,8000117a <vprintfmt+0x39e>
80001172:	02d00793          	li	a5,45
80001176:	fafb9ce3          	bne	s7,a5,8000112e <vprintfmt+0x352>
8000117a:	900007b7          	lui	a5,0x90000
8000117e:	7a878d13          	addi	s10,a5,1960 # 900007a8 <_sp+0xffff07a8>
80001182:	02800513          	li	a0,40
80001186:	5bfd                	li	s7,-1
80001188:	bd6d                	j	80001042 <vprintfmt+0x266>
8000118a:	4581                	li	a1,0
8000118c:	bd29                	j	80000fa6 <vprintfmt+0x1ca>

8000118e <__wrap_printf>:
8000118e:	7139                	addi	sp,sp,-64
80001190:	02410313          	addi	t1,sp,36
80001194:	d432                	sw	a2,40(sp)
80001196:	862a                	mv	a2,a0
80001198:	80001537          	lui	a0,0x80001
8000119c:	d22e                	sw	a1,36(sp)
8000119e:	d636                	sw	a3,44(sp)
800011a0:	dba50513          	addi	a0,a0,-582 # 80000dba <_sp+0xefff0dba>
800011a4:	869a                	mv	a3,t1
800011a6:	4581                	li	a1,0
800011a8:	ce06                	sw	ra,28(sp)
800011aa:	d83a                	sw	a4,48(sp)
800011ac:	da3e                	sw	a5,52(sp)
800011ae:	dc42                	sw	a6,56(sp)
800011b0:	de46                	sw	a7,60(sp)
800011b2:	c61a                	sw	t1,12(sp)
800011b4:	3125                	jal	80000ddc <vprintfmt>
800011b6:	40f2                	lw	ra,28(sp)
800011b8:	4501                	li	a0,0
800011ba:	6121                	addi	sp,sp,64
800011bc:	8082                	ret

800011be <__udivdi3>:
800011be:	87b6                	mv	a5,a3
800011c0:	88b2                	mv	a7,a2
800011c2:	832a                	mv	t1,a0
800011c4:	882e                	mv	a6,a1
800011c6:	14069d63          	bnez	a3,80001320 <__udivdi3+0x162>
800011ca:	0ac5f963          	bgeu	a1,a2,8000127c <__udivdi3+0xbe>
800011ce:	6741                	lui	a4,0x10
800011d0:	1ae66e63          	bltu	a2,a4,8000138c <__udivdi3+0x1ce>
800011d4:	010007b7          	lui	a5,0x1000
800011d8:	34f66363          	bltu	a2,a5,8000151e <__udivdi3+0x360>
800011dc:	01865693          	srli	a3,a2,0x18
800011e0:	47e1                	li	a5,24
800011e2:	0ffff717          	auipc	a4,0xffff
800011e6:	6ce70713          	addi	a4,a4,1742 # 900008b0 <__clz_tab>
800011ea:	9736                	add	a4,a4,a3
800011ec:	00074703          	lbu	a4,0(a4)
800011f0:	97ba                	add	a5,a5,a4
800011f2:	02000713          	li	a4,32
800011f6:	8f1d                	sub	a4,a4,a5
800011f8:	cb19                	beqz	a4,8000120e <__udivdi3+0x50>
800011fa:	00e59833          	sll	a6,a1,a4
800011fe:	00f557b3          	srl	a5,a0,a5
80001202:	00e618b3          	sll	a7,a2,a4
80001206:	0107e833          	or	a6,a5,a6
8000120a:	00e51333          	sll	t1,a0,a4
8000120e:	0108d613          	srli	a2,a7,0x10
80001212:	02c85533          	divu	a0,a6,a2
80001216:	01089693          	slli	a3,a7,0x10
8000121a:	82c1                	srli	a3,a3,0x10
8000121c:	01035793          	srli	a5,t1,0x10
80001220:	02c87733          	remu	a4,a6,a2
80001224:	02a685b3          	mul	a1,a3,a0
80001228:	0742                	slli	a4,a4,0x10
8000122a:	00f76833          	or	a6,a4,a5
8000122e:	00b87a63          	bgeu	a6,a1,80001242 <__udivdi3+0x84>
80001232:	9846                	add	a6,a6,a7
80001234:	fff50793          	addi	a5,a0,-1
80001238:	01186463          	bltu	a6,a7,80001240 <__udivdi3+0x82>
8000123c:	30b86763          	bltu	a6,a1,8000154a <__udivdi3+0x38c>
80001240:	853e                	mv	a0,a5
80001242:	40b80833          	sub	a6,a6,a1
80001246:	02c85733          	divu	a4,a6,a2
8000124a:	0342                	slli	t1,t1,0x10
8000124c:	01035313          	srli	t1,t1,0x10
80001250:	02c87833          	remu	a6,a6,a2
80001254:	02e686b3          	mul	a3,a3,a4
80001258:	0842                	slli	a6,a6,0x10
8000125a:	00686833          	or	a6,a6,t1
8000125e:	00d87b63          	bgeu	a6,a3,80001274 <__udivdi3+0xb6>
80001262:	9846                	add	a6,a6,a7
80001264:	fff70793          	addi	a5,a4,-1
80001268:	01186563          	bltu	a6,a7,80001272 <__udivdi3+0xb4>
8000126c:	1779                	addi	a4,a4,-2
8000126e:	00d86363          	bltu	a6,a3,80001274 <__udivdi3+0xb6>
80001272:	873e                	mv	a4,a5
80001274:	0542                	slli	a0,a0,0x10
80001276:	8d59                	or	a0,a0,a4
80001278:	4581                	li	a1,0
8000127a:	8082                	ret
8000127c:	e601                	bnez	a2,80001284 <__udivdi3+0xc6>
8000127e:	4705                	li	a4,1
80001280:	02c758b3          	divu	a7,a4,a2
80001284:	6741                	lui	a4,0x10
80001286:	0ee8ea63          	bltu	a7,a4,8000137a <__udivdi3+0x1bc>
8000128a:	010007b7          	lui	a5,0x1000
8000128e:	28f8ec63          	bltu	a7,a5,80001526 <__udivdi3+0x368>
80001292:	0188d693          	srli	a3,a7,0x18
80001296:	47e1                	li	a5,24
80001298:	0ffff717          	auipc	a4,0xffff
8000129c:	61870713          	addi	a4,a4,1560 # 900008b0 <__clz_tab>
800012a0:	9736                	add	a4,a4,a3
800012a2:	00074683          	lbu	a3,0(a4)
800012a6:	96be                	add	a3,a3,a5
800012a8:	02000793          	li	a5,32
800012ac:	8f95                	sub	a5,a5,a3
800012ae:	ebe5                	bnez	a5,8000139e <__udivdi3+0x1e0>
800012b0:	01089e93          	slli	t4,a7,0x10
800012b4:	41158733          	sub	a4,a1,a7
800012b8:	0108df13          	srli	t5,a7,0x10
800012bc:	010ede93          	srli	t4,t4,0x10
800012c0:	4585                	li	a1,1
800012c2:	01035793          	srli	a5,t1,0x10
800012c6:	03e75533          	divu	a0,a4,t5
800012ca:	03e77733          	remu	a4,a4,t5
800012ce:	03d506b3          	mul	a3,a0,t4
800012d2:	0742                	slli	a4,a4,0x10
800012d4:	8fd9                	or	a5,a5,a4
800012d6:	00d7fa63          	bgeu	a5,a3,800012ea <__udivdi3+0x12c>
800012da:	97c6                	add	a5,a5,a7
800012dc:	fff50713          	addi	a4,a0,-1
800012e0:	0117e463          	bltu	a5,a7,800012e8 <__udivdi3+0x12a>
800012e4:	26d7e663          	bltu	a5,a3,80001550 <__udivdi3+0x392>
800012e8:	853a                	mv	a0,a4
800012ea:	8f95                	sub	a5,a5,a3
800012ec:	03e7d733          	divu	a4,a5,t5
800012f0:	0342                	slli	t1,t1,0x10
800012f2:	01035313          	srli	t1,t1,0x10
800012f6:	03e7f7b3          	remu	a5,a5,t5
800012fa:	03d70eb3          	mul	t4,a4,t4
800012fe:	07c2                	slli	a5,a5,0x10
80001300:	0067e7b3          	or	a5,a5,t1
80001304:	01d7fb63          	bgeu	a5,t4,8000131a <__udivdi3+0x15c>
80001308:	97c6                	add	a5,a5,a7
8000130a:	fff70693          	addi	a3,a4,-1
8000130e:	0117e563          	bltu	a5,a7,80001318 <__udivdi3+0x15a>
80001312:	1779                	addi	a4,a4,-2
80001314:	01d7e363          	bltu	a5,t4,8000131a <__udivdi3+0x15c>
80001318:	8736                	mv	a4,a3
8000131a:	0542                	slli	a0,a0,0x10
8000131c:	8d59                	or	a0,a0,a4
8000131e:	8082                	ret
80001320:	04d5e263          	bltu	a1,a3,80001364 <__udivdi3+0x1a6>
80001324:	67c1                	lui	a5,0x10
80001326:	04f6e263          	bltu	a3,a5,8000136a <__udivdi3+0x1ac>
8000132a:	010007b7          	lui	a5,0x1000
8000132e:	1ef6e463          	bltu	a3,a5,80001516 <__udivdi3+0x358>
80001332:	0186d713          	srli	a4,a3,0x18
80001336:	4861                	li	a6,24
80001338:	0ffff797          	auipc	a5,0xffff
8000133c:	57878793          	addi	a5,a5,1400 # 900008b0 <__clz_tab>
80001340:	97ba                	add	a5,a5,a4
80001342:	0007c703          	lbu	a4,0(a5)
80001346:	02000e13          	li	t3,32
8000134a:	9742                	add	a4,a4,a6
8000134c:	40ee0e33          	sub	t3,t3,a4
80001350:	0c0e1a63          	bnez	t3,80001424 <__udivdi3+0x266>
80001354:	1cb6ed63          	bltu	a3,a1,8000152e <__udivdi3+0x370>
80001358:	00c53533          	sltu	a0,a0,a2
8000135c:	00154513          	xori	a0,a0,1
80001360:	4581                	li	a1,0
80001362:	8082                	ret
80001364:	4581                	li	a1,0
80001366:	4501                	li	a0,0
80001368:	8082                	ret
8000136a:	0ff00793          	li	a5,255
8000136e:	1cd7f363          	bgeu	a5,a3,80001534 <__udivdi3+0x376>
80001372:	0086d713          	srli	a4,a3,0x8
80001376:	4821                	li	a6,8
80001378:	b7c1                	j	80001338 <__udivdi3+0x17a>
8000137a:	0ff00713          	li	a4,255
8000137e:	86c6                	mv	a3,a7
80001380:	f1177ce3          	bgeu	a4,a7,80001298 <__udivdi3+0xda>
80001384:	0088d693          	srli	a3,a7,0x8
80001388:	47a1                	li	a5,8
8000138a:	b739                	j	80001298 <__udivdi3+0xda>
8000138c:	0ff00713          	li	a4,255
80001390:	86b2                	mv	a3,a2
80001392:	e4c778e3          	bgeu	a4,a2,800011e2 <__udivdi3+0x24>
80001396:	00865693          	srli	a3,a2,0x8
8000139a:	47a1                	li	a5,8
8000139c:	b599                	j	800011e2 <__udivdi3+0x24>
8000139e:	00f898b3          	sll	a7,a7,a5
800013a2:	00d5d633          	srl	a2,a1,a3
800013a6:	0108df13          	srli	t5,a7,0x10
800013aa:	03e65e33          	divu	t3,a2,t5
800013ae:	00f59733          	sll	a4,a1,a5
800013b2:	00d556b3          	srl	a3,a0,a3
800013b6:	8f55                	or	a4,a4,a3
800013b8:	01089e93          	slli	t4,a7,0x10
800013bc:	010ede93          	srli	t4,t4,0x10
800013c0:	00f51333          	sll	t1,a0,a5
800013c4:	01075593          	srli	a1,a4,0x10
800013c8:	03e676b3          	remu	a3,a2,t5
800013cc:	03ce87b3          	mul	a5,t4,t3
800013d0:	06c2                	slli	a3,a3,0x10
800013d2:	8ecd                	or	a3,a3,a1
800013d4:	00f6fb63          	bgeu	a3,a5,800013ea <__udivdi3+0x22c>
800013d8:	96c6                	add	a3,a3,a7
800013da:	fffe0613          	addi	a2,t3,-1
800013de:	1716e463          	bltu	a3,a7,80001546 <__udivdi3+0x388>
800013e2:	16f6f263          	bgeu	a3,a5,80001546 <__udivdi3+0x388>
800013e6:	1e79                	addi	t3,t3,-2
800013e8:	96c6                	add	a3,a3,a7
800013ea:	8e9d                	sub	a3,a3,a5
800013ec:	03e6d633          	divu	a2,a3,t5
800013f0:	01071793          	slli	a5,a4,0x10
800013f4:	83c1                	srli	a5,a5,0x10
800013f6:	03e6f6b3          	remu	a3,a3,t5
800013fa:	02ce8533          	mul	a0,t4,a2
800013fe:	01069713          	slli	a4,a3,0x10
80001402:	8f5d                	or	a4,a4,a5
80001404:	00a77b63          	bgeu	a4,a0,8000141a <__udivdi3+0x25c>
80001408:	9746                	add	a4,a4,a7
8000140a:	fff60793          	addi	a5,a2,-1 # fff <__stack_size+0x7ff>
8000140e:	13176863          	bltu	a4,a7,8000153e <__udivdi3+0x380>
80001412:	12a77663          	bgeu	a4,a0,8000153e <__udivdi3+0x380>
80001416:	1679                	addi	a2,a2,-2
80001418:	9746                	add	a4,a4,a7
8000141a:	010e1593          	slli	a1,t3,0x10
8000141e:	8f09                	sub	a4,a4,a0
80001420:	8dd1                	or	a1,a1,a2
80001422:	b545                	j	800012c2 <__udivdi3+0x104>
80001424:	00e657b3          	srl	a5,a2,a4
80001428:	01c696b3          	sll	a3,a3,t3
8000142c:	8edd                	or	a3,a3,a5
8000142e:	00e5d333          	srl	t1,a1,a4
80001432:	0106df13          	srli	t5,a3,0x10
80001436:	03e357b3          	divu	a5,t1,t5
8000143a:	01069e93          	slli	t4,a3,0x10
8000143e:	010ede93          	srli	t4,t4,0x10
80001442:	01c59833          	sll	a6,a1,t3
80001446:	00e55733          	srl	a4,a0,a4
8000144a:	01076833          	or	a6,a4,a6
8000144e:	01085893          	srli	a7,a6,0x10
80001452:	01c61633          	sll	a2,a2,t3
80001456:	03e37333          	remu	t1,t1,t5
8000145a:	02fe85b3          	mul	a1,t4,a5
8000145e:	0342                	slli	t1,t1,0x10
80001460:	011368b3          	or	a7,t1,a7
80001464:	00b8fb63          	bgeu	a7,a1,8000147a <__udivdi3+0x2bc>
80001468:	98b6                	add	a7,a7,a3
8000146a:	fff78713          	addi	a4,a5,-1
8000146e:	0cd8ea63          	bltu	a7,a3,80001542 <__udivdi3+0x384>
80001472:	0cb8f863          	bgeu	a7,a1,80001542 <__udivdi3+0x384>
80001476:	17f9                	addi	a5,a5,-2
80001478:	98b6                	add	a7,a7,a3
8000147a:	40b888b3          	sub	a7,a7,a1
8000147e:	03e8d733          	divu	a4,a7,t5
80001482:	0842                	slli	a6,a6,0x10
80001484:	01085813          	srli	a6,a6,0x10
80001488:	03e8f8b3          	remu	a7,a7,t5
8000148c:	02ee8333          	mul	t1,t4,a4
80001490:	08c2                	slli	a7,a7,0x10
80001492:	0108e5b3          	or	a1,a7,a6
80001496:	0065fb63          	bgeu	a1,t1,800014ac <__udivdi3+0x2ee>
8000149a:	95b6                	add	a1,a1,a3
8000149c:	fff70813          	addi	a6,a4,-1
800014a0:	08d5ed63          	bltu	a1,a3,8000153a <__udivdi3+0x37c>
800014a4:	0865fb63          	bgeu	a1,t1,8000153a <__udivdi3+0x37c>
800014a8:	1779                	addi	a4,a4,-2
800014aa:	95b6                	add	a1,a1,a3
800014ac:	07c2                	slli	a5,a5,0x10
800014ae:	6f41                	lui	t5,0x10
800014b0:	8fd9                	or	a5,a5,a4
800014b2:	ffff0713          	addi	a4,t5,-1 # ffff <__stack_size+0xf7ff>
800014b6:	00e7f6b3          	and	a3,a5,a4
800014ba:	0107d893          	srli	a7,a5,0x10
800014be:	8f71                	and	a4,a4,a2
800014c0:	8241                	srli	a2,a2,0x10
800014c2:	02e68eb3          	mul	t4,a3,a4
800014c6:	406585b3          	sub	a1,a1,t1
800014ca:	02c686b3          	mul	a3,a3,a2
800014ce:	010ed813          	srli	a6,t4,0x10
800014d2:	02e88733          	mul	a4,a7,a4
800014d6:	96ba                	add	a3,a3,a4
800014d8:	96c2                	add	a3,a3,a6
800014da:	02c88633          	mul	a2,a7,a2
800014de:	00e6f363          	bgeu	a3,a4,800014e4 <__udivdi3+0x326>
800014e2:	967a                	add	a2,a2,t5
800014e4:	0106d893          	srli	a7,a3,0x10
800014e8:	9646                	add	a2,a2,a7
800014ea:	02c5e263          	bltu	a1,a2,8000150e <__udivdi3+0x350>
800014ee:	00c58563          	beq	a1,a2,800014f8 <__udivdi3+0x33a>
800014f2:	853e                	mv	a0,a5
800014f4:	4581                	li	a1,0
800014f6:	8082                	ret
800014f8:	6741                	lui	a4,0x10
800014fa:	177d                	addi	a4,a4,-1
800014fc:	8ef9                	and	a3,a3,a4
800014fe:	06c2                	slli	a3,a3,0x10
80001500:	00eefeb3          	and	t4,t4,a4
80001504:	01c51533          	sll	a0,a0,t3
80001508:	96f6                	add	a3,a3,t4
8000150a:	fed574e3          	bgeu	a0,a3,800014f2 <__udivdi3+0x334>
8000150e:	fff78513          	addi	a0,a5,-1
80001512:	4581                	li	a1,0
80001514:	8082                	ret
80001516:	0106d713          	srli	a4,a3,0x10
8000151a:	4841                	li	a6,16
8000151c:	bd31                	j	80001338 <__udivdi3+0x17a>
8000151e:	01065693          	srli	a3,a2,0x10
80001522:	47c1                	li	a5,16
80001524:	b97d                	j	800011e2 <__udivdi3+0x24>
80001526:	0108d693          	srli	a3,a7,0x10
8000152a:	47c1                	li	a5,16
8000152c:	b3b5                	j	80001298 <__udivdi3+0xda>
8000152e:	4581                	li	a1,0
80001530:	4505                	li	a0,1
80001532:	8082                	ret
80001534:	8736                	mv	a4,a3
80001536:	4801                	li	a6,0
80001538:	b501                	j	80001338 <__udivdi3+0x17a>
8000153a:	8742                	mv	a4,a6
8000153c:	bf85                	j	800014ac <__udivdi3+0x2ee>
8000153e:	863e                	mv	a2,a5
80001540:	bde9                	j	8000141a <__udivdi3+0x25c>
80001542:	87ba                	mv	a5,a4
80001544:	bf1d                	j	8000147a <__udivdi3+0x2bc>
80001546:	8e32                	mv	t3,a2
80001548:	b54d                	j	800013ea <__udivdi3+0x22c>
8000154a:	1579                	addi	a0,a0,-2
8000154c:	9846                	add	a6,a6,a7
8000154e:	b9d5                	j	80001242 <__udivdi3+0x84>
80001550:	1579                	addi	a0,a0,-2
80001552:	97c6                	add	a5,a5,a7
80001554:	bb59                	j	800012ea <__udivdi3+0x12c>

80001556 <__muldf3>:
80001556:	7139                	addi	sp,sp,-64
80001558:	0145d793          	srli	a5,a1,0x14
8000155c:	dc22                	sw	s0,56(sp)
8000155e:	d84a                	sw	s2,48(sp)
80001560:	d452                	sw	s4,40(sp)
80001562:	00c59413          	slli	s0,a1,0xc
80001566:	de06                	sw	ra,60(sp)
80001568:	da26                	sw	s1,52(sp)
8000156a:	d64e                	sw	s3,44(sp)
8000156c:	d256                	sw	s5,36(sp)
8000156e:	d05a                	sw	s6,32(sp)
80001570:	ce5e                	sw	s7,28(sp)
80001572:	7ff7f793          	andi	a5,a5,2047
80001576:	892a                	mv	s2,a0
80001578:	8031                	srli	s0,s0,0xc
8000157a:	01f5da13          	srli	s4,a1,0x1f
8000157e:	cbfd                	beqz	a5,80001674 <__muldf3+0x11e>
80001580:	7ff00713          	li	a4,2047
80001584:	18e78363          	beq	a5,a4,8000170a <__muldf3+0x1b4>
80001588:	00341513          	slli	a0,s0,0x3
8000158c:	01d95413          	srli	s0,s2,0x1d
80001590:	8c49                	or	s0,s0,a0
80001592:	00800537          	lui	a0,0x800
80001596:	8c49                	or	s0,s0,a0
80001598:	00391493          	slli	s1,s2,0x3
8000159c:	c0178b13          	addi	s6,a5,-1023
800015a0:	4981                	li	s3,0
800015a2:	4b81                	li	s7,0
800015a4:	0146d793          	srli	a5,a3,0x14
800015a8:	00c69913          	slli	s2,a3,0xc
800015ac:	7ff7f793          	andi	a5,a5,2047
800015b0:	00c95913          	srli	s2,s2,0xc
800015b4:	01f6da93          	srli	s5,a3,0x1f
800015b8:	10078a63          	beqz	a5,800016cc <__muldf3+0x176>
800015bc:	7ff00713          	li	a4,2047
800015c0:	04e78463          	beq	a5,a4,80001608 <__muldf3+0xb2>
800015c4:	00391513          	slli	a0,s2,0x3
800015c8:	01d65913          	srli	s2,a2,0x1d
800015cc:	00a96933          	or	s2,s2,a0
800015d0:	c0178793          	addi	a5,a5,-1023
800015d4:	00800537          	lui	a0,0x800
800015d8:	00a96933          	or	s2,s2,a0
800015dc:	00361593          	slli	a1,a2,0x3
800015e0:	9b3e                	add	s6,s6,a5
800015e2:	4801                	li	a6,0
800015e4:	015a46b3          	xor	a3,s4,s5
800015e8:	47bd                	li	a5,15
800015ea:	8536                	mv	a0,a3
800015ec:	001b0613          	addi	a2,s6,1
800015f0:	1737e563          	bltu	a5,s3,8000175a <__muldf3+0x204>
800015f4:	0ffff797          	auipc	a5,0xffff
800015f8:	1bc78793          	addi	a5,a5,444 # 900007b0 <_data+0x7b0>
800015fc:	098a                	slli	s3,s3,0x2
800015fe:	99be                	add	s3,s3,a5
80001600:	0009a703          	lw	a4,0(s3)
80001604:	973e                	add	a4,a4,a5
80001606:	8702                	jr	a4
80001608:	00c965b3          	or	a1,s2,a2
8000160c:	7ffb0b13          	addi	s6,s6,2047
80001610:	12059663          	bnez	a1,8000173c <__muldf3+0x1e6>
80001614:	0029e993          	ori	s3,s3,2
80001618:	4901                	li	s2,0
8000161a:	4809                	li	a6,2
8000161c:	b7e1                	j	800015e4 <__muldf3+0x8e>
8000161e:	4681                	li	a3,0
80001620:	7ff00793          	li	a5,2047
80001624:	00080437          	lui	s0,0x80
80001628:	4481                	li	s1,0
8000162a:	0432                	slli	s0,s0,0xc
8000162c:	07d2                	slli	a5,a5,0x14
8000162e:	8031                	srli	s0,s0,0xc
80001630:	06fe                	slli	a3,a3,0x1f
80001632:	8c5d                	or	s0,s0,a5
80001634:	8c55                	or	s0,s0,a3
80001636:	85a2                	mv	a1,s0
80001638:	50f2                	lw	ra,60(sp)
8000163a:	5462                	lw	s0,56(sp)
8000163c:	8526                	mv	a0,s1
8000163e:	5942                	lw	s2,48(sp)
80001640:	54d2                	lw	s1,52(sp)
80001642:	59b2                	lw	s3,44(sp)
80001644:	5a22                	lw	s4,40(sp)
80001646:	5a92                	lw	s5,36(sp)
80001648:	5b02                	lw	s6,32(sp)
8000164a:	4bf2                	lw	s7,28(sp)
8000164c:	6121                	addi	sp,sp,64
8000164e:	8082                	ret
80001650:	8556                	mv	a0,s5
80001652:	844a                	mv	s0,s2
80001654:	84ae                	mv	s1,a1
80001656:	8bc2                	mv	s7,a6
80001658:	4789                	li	a5,2
8000165a:	0efb8a63          	beq	s7,a5,8000174e <__muldf3+0x1f8>
8000165e:	478d                	li	a5,3
80001660:	fafb8fe3          	beq	s7,a5,8000161e <__muldf3+0xc8>
80001664:	4785                	li	a5,1
80001666:	86aa                	mv	a3,a0
80001668:	38fb9b63          	bne	s7,a5,800019fe <__muldf3+0x4a8>
8000166c:	4781                	li	a5,0
8000166e:	4401                	li	s0,0
80001670:	4481                	li	s1,0
80001672:	bf65                	j	8000162a <__muldf3+0xd4>
80001674:	00a464b3          	or	s1,s0,a0
80001678:	cccd                	beqz	s1,80001732 <__muldf3+0x1dc>
8000167a:	c636                	sw	a3,12(sp)
8000167c:	c432                	sw	a2,8(sp)
8000167e:	2a040a63          	beqz	s0,80001932 <__muldf3+0x3dc>
80001682:	8522                	mv	a0,s0
80001684:	28b000ef          	jal	ra,8000210e <__clzsi2>
80001688:	4622                	lw	a2,8(sp)
8000168a:	46b2                	lw	a3,12(sp)
8000168c:	87aa                	mv	a5,a0
8000168e:	ff550593          	addi	a1,a0,-11 # 7ffff5 <__stack_size+0x7ff7f5>
80001692:	4775                	li	a4,29
80001694:	ff878493          	addi	s1,a5,-8
80001698:	8f0d                	sub	a4,a4,a1
8000169a:	00941433          	sll	s0,s0,s1
8000169e:	00e95733          	srl	a4,s2,a4
800016a2:	8c59                	or	s0,s0,a4
800016a4:	009914b3          	sll	s1,s2,s1
800016a8:	c0d00b13          	li	s6,-1011
800016ac:	40fb0b33          	sub	s6,s6,a5
800016b0:	0146d793          	srli	a5,a3,0x14
800016b4:	00c69913          	slli	s2,a3,0xc
800016b8:	7ff7f793          	andi	a5,a5,2047
800016bc:	4981                	li	s3,0
800016be:	4b81                	li	s7,0
800016c0:	00c95913          	srli	s2,s2,0xc
800016c4:	01f6da93          	srli	s5,a3,0x1f
800016c8:	ee079ae3          	bnez	a5,800015bc <__muldf3+0x66>
800016cc:	00c965b3          	or	a1,s2,a2
800016d0:	c5b1                	beqz	a1,8000171c <__muldf3+0x1c6>
800016d2:	22090f63          	beqz	s2,80001910 <__muldf3+0x3ba>
800016d6:	854a                	mv	a0,s2
800016d8:	c432                	sw	a2,8(sp)
800016da:	235000ef          	jal	ra,8000210e <__clzsi2>
800016de:	4622                	lw	a2,8(sp)
800016e0:	87aa                	mv	a5,a0
800016e2:	ff550693          	addi	a3,a0,-11
800016e6:	4775                	li	a4,29
800016e8:	ff878593          	addi	a1,a5,-8
800016ec:	8f15                	sub	a4,a4,a3
800016ee:	00b91933          	sll	s2,s2,a1
800016f2:	00e65733          	srl	a4,a2,a4
800016f6:	01276933          	or	s2,a4,s2
800016fa:	00b615b3          	sll	a1,a2,a1
800016fe:	40fb07b3          	sub	a5,s6,a5
80001702:	c0d78b13          	addi	s6,a5,-1011
80001706:	4801                	li	a6,0
80001708:	bdf1                	j	800015e4 <__muldf3+0x8e>
8000170a:	00a464b3          	or	s1,s0,a0
8000170e:	ec81                	bnez	s1,80001726 <__muldf3+0x1d0>
80001710:	4401                	li	s0,0
80001712:	49a1                	li	s3,8
80001714:	7ff00b13          	li	s6,2047
80001718:	4b89                	li	s7,2
8000171a:	b569                	j	800015a4 <__muldf3+0x4e>
8000171c:	0019e993          	ori	s3,s3,1
80001720:	4901                	li	s2,0
80001722:	4805                	li	a6,1
80001724:	b5c1                	j	800015e4 <__muldf3+0x8e>
80001726:	84aa                	mv	s1,a0
80001728:	49b1                	li	s3,12
8000172a:	7ff00b13          	li	s6,2047
8000172e:	4b8d                	li	s7,3
80001730:	bd95                	j	800015a4 <__muldf3+0x4e>
80001732:	4401                	li	s0,0
80001734:	4991                	li	s3,4
80001736:	4b01                	li	s6,0
80001738:	4b85                	li	s7,1
8000173a:	b5ad                	j	800015a4 <__muldf3+0x4e>
8000173c:	0039e993          	ori	s3,s3,3
80001740:	85b2                	mv	a1,a2
80001742:	480d                	li	a6,3
80001744:	b545                	j	800015e4 <__muldf3+0x8e>
80001746:	4789                	li	a5,2
80001748:	8552                	mv	a0,s4
8000174a:	f0fb9ae3          	bne	s7,a5,8000165e <__muldf3+0x108>
8000174e:	86aa                	mv	a3,a0
80001750:	7ff00793          	li	a5,2047
80001754:	4401                	li	s0,0
80001756:	4481                	li	s1,0
80001758:	bdc9                	j	8000162a <__muldf3+0xd4>
8000175a:	6e41                	lui	t3,0x10
8000175c:	fffe0713          	addi	a4,t3,-1 # ffff <__stack_size+0xf7ff>
80001760:	0104d793          	srli	a5,s1,0x10
80001764:	0105d813          	srli	a6,a1,0x10
80001768:	8cf9                	and	s1,s1,a4
8000176a:	8df9                	and	a1,a1,a4
8000176c:	02958733          	mul	a4,a1,s1
80001770:	02b78333          	mul	t1,a5,a1
80001774:	01075513          	srli	a0,a4,0x10
80001778:	029808b3          	mul	a7,a6,s1
8000177c:	989a                	add	a7,a7,t1
8000177e:	9546                	add	a0,a0,a7
80001780:	03078f33          	mul	t5,a5,a6
80001784:	00657363          	bgeu	a0,t1,8000178a <__muldf3+0x234>
80001788:	9f72                	add	t5,t5,t3
8000178a:	6ec1                	lui	t4,0x10
8000178c:	fffe8893          	addi	a7,t4,-1 # ffff <__stack_size+0xf7ff>
80001790:	01095293          	srli	t0,s2,0x10
80001794:	01197933          	and	s2,s2,a7
80001798:	01157333          	and	t1,a0,a7
8000179c:	01177733          	and	a4,a4,a7
800017a0:	0342                	slli	t1,t1,0x10
800017a2:	029908b3          	mul	a7,s2,s1
800017a6:	933a                	add	t1,t1,a4
800017a8:	8141                	srli	a0,a0,0x10
800017aa:	03278fb3          	mul	t6,a5,s2
800017ae:	0108de13          	srli	t3,a7,0x10
800017b2:	029284b3          	mul	s1,t0,s1
800017b6:	94fe                	add	s1,s1,t6
800017b8:	94f2                	add	s1,s1,t3
800017ba:	02578733          	mul	a4,a5,t0
800017be:	01f4f363          	bgeu	s1,t6,800017c4 <__muldf3+0x26e>
800017c2:	9776                	add	a4,a4,t4
800017c4:	69c1                	lui	s3,0x10
800017c6:	fff98e13          	addi	t3,s3,-1 # ffff <__stack_size+0xf7ff>
800017ca:	01c477b3          	and	a5,s0,t3
800017ce:	01c4feb3          	and	t4,s1,t3
800017d2:	01045f93          	srli	t6,s0,0x10
800017d6:	80c1                	srli	s1,s1,0x10
800017d8:	01c8f8b3          	and	a7,a7,t3
800017dc:	02f583b3          	mul	t2,a1,a5
800017e0:	00e48e33          	add	t3,s1,a4
800017e4:	0ec2                	slli	t4,t4,0x10
800017e6:	9ec6                	add	t4,t4,a7
800017e8:	9576                	add	a0,a0,t4
800017ea:	02f80733          	mul	a4,a6,a5
800017ee:	0103d893          	srli	a7,t2,0x10
800017f2:	02bf85b3          	mul	a1,t6,a1
800017f6:	972e                	add	a4,a4,a1
800017f8:	98ba                	add	a7,a7,a4
800017fa:	03f80833          	mul	a6,a6,t6
800017fe:	00b8f363          	bgeu	a7,a1,80001804 <__muldf3+0x2ae>
80001802:	984e                	add	a6,a6,s3
80001804:	6741                	lui	a4,0x10
80001806:	fff70413          	addi	s0,a4,-1 # ffff <__stack_size+0xf7ff>
8000180a:	0088f5b3          	and	a1,a7,s0
8000180e:	0108d893          	srli	a7,a7,0x10
80001812:	98c2                	add	a7,a7,a6
80001814:	0083f3b3          	and	t2,t2,s0
80001818:	05c2                	slli	a1,a1,0x10
8000181a:	02f90833          	mul	a6,s2,a5
8000181e:	959e                	add	a1,a1,t2
80001820:	032f8933          	mul	s2,t6,s2
80001824:	01085413          	srli	s0,a6,0x10
80001828:	02f287b3          	mul	a5,t0,a5
8000182c:	97ca                	add	a5,a5,s2
8000182e:	97a2                	add	a5,a5,s0
80001830:	03f28fb3          	mul	t6,t0,t6
80001834:	0127f363          	bgeu	a5,s2,8000183a <__muldf3+0x2e4>
80001838:	9fba                	add	t6,t6,a4
8000183a:	62c1                	lui	t0,0x10
8000183c:	12fd                	addi	t0,t0,-1
8000183e:	0057f733          	and	a4,a5,t0
80001842:	00587833          	and	a6,a6,t0
80001846:	0742                	slli	a4,a4,0x10
80001848:	957a                	add	a0,a0,t5
8000184a:	9742                	add	a4,a4,a6
8000184c:	01d53eb3          	sltu	t4,a0,t4
80001850:	9772                	add	a4,a4,t3
80001852:	952e                	add	a0,a0,a1
80001854:	01d70433          	add	s0,a4,t4
80001858:	00b535b3          	sltu	a1,a0,a1
8000185c:	01140833          	add	a6,s0,a7
80001860:	00b80f33          	add	t5,a6,a1
80001864:	01c73733          	sltu	a4,a4,t3
80001868:	01d43433          	sltu	s0,s0,t4
8000186c:	8c59                	or	s0,s0,a4
8000186e:	83c1                	srli	a5,a5,0x10
80001870:	011838b3          	sltu	a7,a6,a7
80001874:	00bf35b3          	sltu	a1,t5,a1
80001878:	943e                	add	s0,s0,a5
8000187a:	00b8e5b3          	or	a1,a7,a1
8000187e:	00951493          	slli	s1,a0,0x9
80001882:	942e                	add	s0,s0,a1
80001884:	947e                	add	s0,s0,t6
80001886:	0064e4b3          	or	s1,s1,t1
8000188a:	00941713          	slli	a4,s0,0x9
8000188e:	009034b3          	snez	s1,s1
80001892:	017f5413          	srli	s0,t5,0x17
80001896:	815d                	srli	a0,a0,0x17
80001898:	009f1793          	slli	a5,t5,0x9
8000189c:	8cc9                	or	s1,s1,a0
8000189e:	8c59                	or	s0,s0,a4
800018a0:	8cdd                	or	s1,s1,a5
800018a2:	00741793          	slli	a5,s0,0x7
800018a6:	0007db63          	bgez	a5,800018bc <__muldf3+0x366>
800018aa:	0014d793          	srli	a5,s1,0x1
800018ae:	8885                	andi	s1,s1,1
800018b0:	01f41713          	slli	a4,s0,0x1f
800018b4:	8cdd                	or	s1,s1,a5
800018b6:	8cd9                	or	s1,s1,a4
800018b8:	8005                	srli	s0,s0,0x1
800018ba:	8b32                	mv	s6,a2
800018bc:	3ffb0713          	addi	a4,s6,1023
800018c0:	08e05963          	blez	a4,80001952 <__muldf3+0x3fc>
800018c4:	0074f793          	andi	a5,s1,7
800018c8:	cf81                	beqz	a5,800018e0 <__muldf3+0x38a>
800018ca:	00f4f793          	andi	a5,s1,15
800018ce:	4611                	li	a2,4
800018d0:	00c78863          	beq	a5,a2,800018e0 <__muldf3+0x38a>
800018d4:	00448793          	addi	a5,s1,4
800018d8:	0097b4b3          	sltu	s1,a5,s1
800018dc:	9426                	add	s0,s0,s1
800018de:	84be                	mv	s1,a5
800018e0:	00741793          	slli	a5,s0,0x7
800018e4:	0007d863          	bgez	a5,800018f4 <__muldf3+0x39e>
800018e8:	ff0007b7          	lui	a5,0xff000
800018ec:	17fd                	addi	a5,a5,-1
800018ee:	8c7d                	and	s0,s0,a5
800018f0:	400b0713          	addi	a4,s6,1024
800018f4:	7fe00793          	li	a5,2046
800018f8:	0ee7ce63          	blt	a5,a4,800019f4 <__muldf3+0x49e>
800018fc:	0034d793          	srli	a5,s1,0x3
80001900:	01d41493          	slli	s1,s0,0x1d
80001904:	0426                	slli	s0,s0,0x9
80001906:	8cdd                	or	s1,s1,a5
80001908:	8031                	srli	s0,s0,0xc
8000190a:	7ff77793          	andi	a5,a4,2047
8000190e:	bb31                	j	8000162a <__muldf3+0xd4>
80001910:	8532                	mv	a0,a2
80001912:	c432                	sw	a2,8(sp)
80001914:	7fa000ef          	jal	ra,8000210e <__clzsi2>
80001918:	01550693          	addi	a3,a0,21
8000191c:	4771                	li	a4,28
8000191e:	02050793          	addi	a5,a0,32
80001922:	4622                	lw	a2,8(sp)
80001924:	dcd751e3          	bge	a4,a3,800016e6 <__muldf3+0x190>
80001928:	1561                	addi	a0,a0,-8
8000192a:	4581                	li	a1,0
8000192c:	00a61933          	sll	s2,a2,a0
80001930:	b3f9                	j	800016fe <__muldf3+0x1a8>
80001932:	7dc000ef          	jal	ra,8000210e <__clzsi2>
80001936:	01550593          	addi	a1,a0,21
8000193a:	4771                	li	a4,28
8000193c:	02050793          	addi	a5,a0,32
80001940:	4622                	lw	a2,8(sp)
80001942:	46b2                	lw	a3,12(sp)
80001944:	d4b757e3          	bge	a4,a1,80001692 <__muldf3+0x13c>
80001948:	1561                	addi	a0,a0,-8
8000194a:	4481                	li	s1,0
8000194c:	00a91433          	sll	s0,s2,a0
80001950:	bba1                	j	800016a8 <__muldf3+0x152>
80001952:	4605                	li	a2,1
80001954:	8e19                	sub	a2,a2,a4
80001956:	e729                	bnez	a4,800019a0 <__muldf3+0x44a>
80001958:	41eb0793          	addi	a5,s6,1054
8000195c:	00f49733          	sll	a4,s1,a5
80001960:	00f417b3          	sll	a5,s0,a5
80001964:	00c4d4b3          	srl	s1,s1,a2
80001968:	8cdd                	or	s1,s1,a5
8000196a:	00e03733          	snez	a4,a4
8000196e:	8cd9                	or	s1,s1,a4
80001970:	0074f793          	andi	a5,s1,7
80001974:	00c45633          	srl	a2,s0,a2
80001978:	cf81                	beqz	a5,80001990 <__muldf3+0x43a>
8000197a:	00f4f793          	andi	a5,s1,15
8000197e:	4711                	li	a4,4
80001980:	00e78863          	beq	a5,a4,80001990 <__muldf3+0x43a>
80001984:	00448793          	addi	a5,s1,4
80001988:	0097b4b3          	sltu	s1,a5,s1
8000198c:	9626                	add	a2,a2,s1
8000198e:	84be                	mv	s1,a5
80001990:	00861793          	slli	a5,a2,0x8
80001994:	0407d863          	bgez	a5,800019e4 <__muldf3+0x48e>
80001998:	4785                	li	a5,1
8000199a:	4401                	li	s0,0
8000199c:	4481                	li	s1,0
8000199e:	b171                	j	8000162a <__muldf3+0xd4>
800019a0:	03800793          	li	a5,56
800019a4:	ccc7c4e3          	blt	a5,a2,8000166c <__muldf3+0x116>
800019a8:	47fd                	li	a5,31
800019aa:	fac7d7e3          	bge	a5,a2,80001958 <__muldf3+0x402>
800019ae:	5785                	li	a5,-31
800019b0:	40e78733          	sub	a4,a5,a4
800019b4:	02000793          	li	a5,32
800019b8:	00e45733          	srl	a4,s0,a4
800019bc:	00f60763          	beq	a2,a5,800019ca <__muldf3+0x474>
800019c0:	43eb0793          	addi	a5,s6,1086
800019c4:	00f417b3          	sll	a5,s0,a5
800019c8:	8cdd                	or	s1,s1,a5
800019ca:	009034b3          	snez	s1,s1
800019ce:	8cd9                	or	s1,s1,a4
800019d0:	0074f613          	andi	a2,s1,7
800019d4:	4401                	li	s0,0
800019d6:	ca19                	beqz	a2,800019ec <__muldf3+0x496>
800019d8:	00f4f793          	andi	a5,s1,15
800019dc:	4711                	li	a4,4
800019de:	4601                	li	a2,0
800019e0:	fae792e3          	bne	a5,a4,80001984 <__muldf3+0x42e>
800019e4:	00961413          	slli	s0,a2,0x9
800019e8:	8031                	srli	s0,s0,0xc
800019ea:	0676                	slli	a2,a2,0x1d
800019ec:	808d                	srli	s1,s1,0x3
800019ee:	8cd1                	or	s1,s1,a2
800019f0:	4781                	li	a5,0
800019f2:	b925                	j	8000162a <__muldf3+0xd4>
800019f4:	7ff00793          	li	a5,2047
800019f8:	4401                	li	s0,0
800019fa:	4481                	li	s1,0
800019fc:	b13d                	j	8000162a <__muldf3+0xd4>
800019fe:	8b32                	mv	s6,a2
80001a00:	bd75                	j	800018bc <__muldf3+0x366>

80001a02 <__fixunsdfsi>:
80001a02:	0145d793          	srli	a5,a1,0x14
80001a06:	001006b7          	lui	a3,0x100
80001a0a:	fff68713          	addi	a4,a3,-1 # fffff <__stack_size+0xff7ff>
80001a0e:	7ff7f793          	andi	a5,a5,2047
80001a12:	3fe00613          	li	a2,1022
80001a16:	882a                	mv	a6,a0
80001a18:	8f6d                	and	a4,a4,a1
80001a1a:	4501                	li	a0,0
80001a1c:	81fd                	srli	a1,a1,0x1f
80001a1e:	00f65463          	bge	a2,a5,80001a26 <__fixunsdfsi+0x24>
80001a22:	c199                	beqz	a1,80001a28 <__fixunsdfsi+0x26>
80001a24:	8082                	ret
80001a26:	8082                	ret
80001a28:	41e00613          	li	a2,1054
80001a2c:	557d                	li	a0,-1
80001a2e:	fef64be3          	blt	a2,a5,80001a24 <__fixunsdfsi+0x22>
80001a32:	43300513          	li	a0,1075
80001a36:	8d1d                	sub	a0,a0,a5
80001a38:	467d                	li	a2,31
80001a3a:	8f55                	or	a4,a4,a3
80001a3c:	00a64a63          	blt	a2,a0,80001a50 <__fixunsdfsi+0x4e>
80001a40:	bed78793          	addi	a5,a5,-1043 # fefffbed <_sp+0x6efefbed>
80001a44:	00f71733          	sll	a4,a4,a5
80001a48:	00a85533          	srl	a0,a6,a0
80001a4c:	8d59                	or	a0,a0,a4
80001a4e:	8082                	ret
80001a50:	41300513          	li	a0,1043
80001a54:	40f507b3          	sub	a5,a0,a5
80001a58:	00f75533          	srl	a0,a4,a5
80001a5c:	8082                	ret

80001a5e <__divsf3>:
80001a5e:	7139                	addi	sp,sp,-64
80001a60:	01755793          	srli	a5,a0,0x17
80001a64:	d84a                	sw	s2,48(sp)
80001a66:	d256                	sw	s5,36(sp)
80001a68:	ce5e                	sw	s7,28(sp)
80001a6a:	00951a93          	slli	s5,a0,0x9
80001a6e:	01f55913          	srli	s2,a0,0x1f
80001a72:	de06                	sw	ra,60(sp)
80001a74:	dc22                	sw	s0,56(sp)
80001a76:	da26                	sw	s1,52(sp)
80001a78:	d64e                	sw	s3,44(sp)
80001a7a:	d452                	sw	s4,40(sp)
80001a7c:	d05a                	sw	s6,32(sp)
80001a7e:	0ff7f793          	andi	a5,a5,255
80001a82:	009ada93          	srli	s5,s5,0x9
80001a86:	8bca                	mv	s7,s2
80001a88:	12078263          	beqz	a5,80001bac <__divsf3+0x14e>
80001a8c:	0ff00713          	li	a4,255
80001a90:	12e78463          	beq	a5,a4,80001bb8 <__divsf3+0x15a>
80001a94:	0a8e                	slli	s5,s5,0x3
80001a96:	04000737          	lui	a4,0x4000
80001a9a:	00eaeab3          	or	s5,s5,a4
80001a9e:	f8178a13          	addi	s4,a5,-127
80001aa2:	4401                	li	s0,0
80001aa4:	4b01                	li	s6,0
80001aa6:	0175d793          	srli	a5,a1,0x17
80001aaa:	00959493          	slli	s1,a1,0x9
80001aae:	0ff7f793          	andi	a5,a5,255
80001ab2:	80a5                	srli	s1,s1,0x9
80001ab4:	01f5d993          	srli	s3,a1,0x1f
80001ab8:	c7fd                	beqz	a5,80001ba6 <__divsf3+0x148>
80001aba:	0ff00713          	li	a4,255
80001abe:	02e78763          	beq	a5,a4,80001aec <__divsf3+0x8e>
80001ac2:	048e                	slli	s1,s1,0x3
80001ac4:	f8178793          	addi	a5,a5,-127
80001ac8:	04000737          	lui	a4,0x4000
80001acc:	8cd9                	or	s1,s1,a4
80001ace:	40fa0a33          	sub	s4,s4,a5
80001ad2:	4681                	li	a3,0
80001ad4:	8c55                	or	s0,s0,a3
80001ad6:	0ffff717          	auipc	a4,0xffff
80001ada:	d1a70713          	addi	a4,a4,-742 # 900007f0 <_data+0x7f0>
80001ade:	040a                	slli	s0,s0,0x2
80001ae0:	943a                	add	s0,s0,a4
80001ae2:	401c                	lw	a5,0(s0)
80001ae4:	01394933          	xor	s2,s2,s3
80001ae8:	97ba                	add	a5,a5,a4
80001aea:	8782                	jr	a5
80001aec:	f01a0a13          	addi	s4,s4,-255
80001af0:	e8f9                	bnez	s1,80001bc6 <__divsf3+0x168>
80001af2:	4689                	li	a3,2
80001af4:	8c55                	or	s0,s0,a3
80001af6:	0ffff717          	auipc	a4,0xffff
80001afa:	d3a70713          	addi	a4,a4,-710 # 90000830 <_data+0x830>
80001afe:	040a                	slli	s0,s0,0x2
80001b00:	943a                	add	s0,s0,a4
80001b02:	401c                	lw	a5,0(s0)
80001b04:	01394933          	xor	s2,s2,s3
80001b08:	97ba                	add	a5,a5,a4
80001b0a:	8782                	jr	a5
80001b0c:	4901                	li	s2,0
80001b0e:	0ff00713          	li	a4,255
80001b12:	004007b7          	lui	a5,0x400
80001b16:	00979513          	slli	a0,a5,0x9
80001b1a:	50f2                	lw	ra,60(sp)
80001b1c:	5462                	lw	s0,56(sp)
80001b1e:	01771793          	slli	a5,a4,0x17
80001b22:	8125                	srli	a0,a0,0x9
80001b24:	097e                	slli	s2,s2,0x1f
80001b26:	8d5d                	or	a0,a0,a5
80001b28:	01256533          	or	a0,a0,s2
80001b2c:	54d2                	lw	s1,52(sp)
80001b2e:	5942                	lw	s2,48(sp)
80001b30:	59b2                	lw	s3,44(sp)
80001b32:	5a22                	lw	s4,40(sp)
80001b34:	5a92                	lw	s5,36(sp)
80001b36:	5b02                	lw	s6,32(sp)
80001b38:	4bf2                	lw	s7,28(sp)
80001b3a:	6121                	addi	sp,sp,64
80001b3c:	8082                	ret
80001b3e:	0ff00713          	li	a4,255
80001b42:	4781                	li	a5,0
80001b44:	bfc9                	j	80001b16 <__divsf3+0xb8>
80001b46:	8aa6                	mv	s5,s1
80001b48:	8bce                	mv	s7,s3
80001b4a:	8b36                	mv	s6,a3
80001b4c:	4789                	li	a5,2
80001b4e:	1afb0963          	beq	s6,a5,80001d00 <__divsf3+0x2a2>
80001b52:	478d                	li	a5,3
80001b54:	fafb0ce3          	beq	s6,a5,80001b0c <__divsf3+0xae>
80001b58:	4785                	li	a5,1
80001b5a:	0afb0863          	beq	s6,a5,80001c0a <__divsf3+0x1ac>
80001b5e:	07fa0713          	addi	a4,s4,127
80001b62:	001bf913          	andi	s2,s7,1
80001b66:	12e05563          	blez	a4,80001c90 <__divsf3+0x232>
80001b6a:	007af793          	andi	a5,s5,7
80001b6e:	c799                	beqz	a5,80001b7c <__divsf3+0x11e>
80001b70:	00faf793          	andi	a5,s5,15
80001b74:	4691                	li	a3,4
80001b76:	00d78363          	beq	a5,a3,80001b7c <__divsf3+0x11e>
80001b7a:	0a91                	addi	s5,s5,4
80001b7c:	004a9793          	slli	a5,s5,0x4
80001b80:	0007d963          	bgez	a5,80001b92 <__divsf3+0x134>
80001b84:	f80007b7          	lui	a5,0xf8000
80001b88:	17fd                	addi	a5,a5,-1
80001b8a:	00fafab3          	and	s5,s5,a5
80001b8e:	080a0713          	addi	a4,s4,128
80001b92:	0fe00793          	li	a5,254
80001b96:	fae7c4e3          	blt	a5,a4,80001b3e <__divsf3+0xe0>
80001b9a:	006a9793          	slli	a5,s5,0x6
80001b9e:	83a5                	srli	a5,a5,0x9
80001ba0:	0ff77713          	andi	a4,a4,255
80001ba4:	bf8d                	j	80001b16 <__divsf3+0xb8>
80001ba6:	e4b1                	bnez	s1,80001bf2 <__divsf3+0x194>
80001ba8:	4685                	li	a3,1
80001baa:	b7a9                	j	80001af4 <__divsf3+0x96>
80001bac:	020a9463          	bnez	s5,80001bd4 <__divsf3+0x176>
80001bb0:	4411                	li	s0,4
80001bb2:	4a01                	li	s4,0
80001bb4:	4b05                	li	s6,1
80001bb6:	bdc5                	j	80001aa6 <__divsf3+0x48>
80001bb8:	000a9963          	bnez	s5,80001bca <__divsf3+0x16c>
80001bbc:	4421                	li	s0,8
80001bbe:	0ff00a13          	li	s4,255
80001bc2:	4b09                	li	s6,2
80001bc4:	b5cd                	j	80001aa6 <__divsf3+0x48>
80001bc6:	468d                	li	a3,3
80001bc8:	b731                	j	80001ad4 <__divsf3+0x76>
80001bca:	4431                	li	s0,12
80001bcc:	0ff00a13          	li	s4,255
80001bd0:	4b0d                	li	s6,3
80001bd2:	bdd1                	j	80001aa6 <__divsf3+0x48>
80001bd4:	8556                	mv	a0,s5
80001bd6:	c62e                	sw	a1,12(sp)
80001bd8:	2b1d                	jal	8000210e <__clzsi2>
80001bda:	ffb50793          	addi	a5,a0,-5
80001bde:	00fa9ab3          	sll	s5,s5,a5
80001be2:	f8a00793          	li	a5,-118
80001be6:	40a78a33          	sub	s4,a5,a0
80001bea:	4401                	li	s0,0
80001bec:	4b01                	li	s6,0
80001bee:	45b2                	lw	a1,12(sp)
80001bf0:	bd5d                	j	80001aa6 <__divsf3+0x48>
80001bf2:	8526                	mv	a0,s1
80001bf4:	2b29                	jal	8000210e <__clzsi2>
80001bf6:	ffb50713          	addi	a4,a0,-5
80001bfa:	00aa07b3          	add	a5,s4,a0
80001bfe:	00e494b3          	sll	s1,s1,a4
80001c02:	07678a13          	addi	s4,a5,118 # f8000076 <_sp+0x67ff0076>
80001c06:	4681                	li	a3,0
80001c08:	b5f1                	j	80001ad4 <__divsf3+0x76>
80001c0a:	001bf913          	andi	s2,s7,1
80001c0e:	4701                	li	a4,0
80001c10:	4781                	li	a5,0
80001c12:	b711                	j	80001b16 <__divsf3+0xb8>
80001c14:	6641                	lui	a2,0x10
80001c16:	00549513          	slli	a0,s1,0x5
80001c1a:	167d                	addi	a2,a2,-1
80001c1c:	01055793          	srli	a5,a0,0x10
80001c20:	8e69                	and	a2,a2,a0
80001c22:	0a9afa63          	bgeu	s5,s1,80001cd6 <__divsf3+0x278>
80001c26:	02fad5b3          	divu	a1,s5,a5
80001c2a:	1a7d                	addi	s4,s4,-1
80001c2c:	86d6                	mv	a3,s5
80001c2e:	4701                	li	a4,0
80001c30:	02c58833          	mul	a6,a1,a2
80001c34:	02f6f6b3          	remu	a3,a3,a5
80001c38:	06c2                	slli	a3,a3,0x10
80001c3a:	8f55                	or	a4,a4,a3
80001c3c:	01077b63          	bgeu	a4,a6,80001c52 <__divsf3+0x1f4>
80001c40:	972a                	add	a4,a4,a0
80001c42:	fff58693          	addi	a3,a1,-1
80001c46:	0aa76863          	bltu	a4,a0,80001cf6 <__divsf3+0x298>
80001c4a:	0b077663          	bgeu	a4,a6,80001cf6 <__divsf3+0x298>
80001c4e:	15f9                	addi	a1,a1,-2
80001c50:	972a                	add	a4,a4,a0
80001c52:	41070733          	sub	a4,a4,a6
80001c56:	02f756b3          	divu	a3,a4,a5
80001c5a:	02f77733          	remu	a4,a4,a5
80001c5e:	02c68ab3          	mul	s5,a3,a2
80001c62:	01071793          	slli	a5,a4,0x10
80001c66:	0157fb63          	bgeu	a5,s5,80001c7c <__divsf3+0x21e>
80001c6a:	97aa                	add	a5,a5,a0
80001c6c:	fff68713          	addi	a4,a3,-1
80001c70:	08a7e163          	bltu	a5,a0,80001cf2 <__divsf3+0x294>
80001c74:	0757ff63          	bgeu	a5,s5,80001cf2 <__divsf3+0x294>
80001c78:	16f9                	addi	a3,a3,-2
80001c7a:	97aa                	add	a5,a5,a0
80001c7c:	05c2                	slli	a1,a1,0x10
80001c7e:	41578ab3          	sub	s5,a5,s5
80001c82:	8dd5                	or	a1,a1,a3
80001c84:	01503ab3          	snez	s5,s5
80001c88:	0155eab3          	or	s5,a1,s5
80001c8c:	8bca                	mv	s7,s2
80001c8e:	bdc1                	j	80001b5e <__divsf3+0x100>
80001c90:	4685                	li	a3,1
80001c92:	8e99                	sub	a3,a3,a4
80001c94:	c711                	beqz	a4,80001ca0 <__divsf3+0x242>
80001c96:	466d                	li	a2,27
80001c98:	4701                	li	a4,0
80001c9a:	4781                	li	a5,0
80001c9c:	e6d64de3          	blt	a2,a3,80001b16 <__divsf3+0xb8>
80001ca0:	09ea0a13          	addi	s4,s4,158
80001ca4:	014a9a33          	sll	s4,s5,s4
80001ca8:	00dad7b3          	srl	a5,s5,a3
80001cac:	01403ab3          	snez	s5,s4
80001cb0:	0157e7b3          	or	a5,a5,s5
80001cb4:	0077f713          	andi	a4,a5,7
80001cb8:	c719                	beqz	a4,80001cc6 <__divsf3+0x268>
80001cba:	00f7f713          	andi	a4,a5,15
80001cbe:	4691                	li	a3,4
80001cc0:	00d70363          	beq	a4,a3,80001cc6 <__divsf3+0x268>
80001cc4:	0791                	addi	a5,a5,4
80001cc6:	00579713          	slli	a4,a5,0x5
80001cca:	02074863          	bltz	a4,80001cfa <__divsf3+0x29c>
80001cce:	079a                	slli	a5,a5,0x6
80001cd0:	83a5                	srli	a5,a5,0x9
80001cd2:	4701                	li	a4,0
80001cd4:	b589                	j	80001b16 <__divsf3+0xb8>
80001cd6:	001ad693          	srli	a3,s5,0x1
80001cda:	02f6d5b3          	divu	a1,a3,a5
80001cde:	01fa9713          	slli	a4,s5,0x1f
80001ce2:	8341                	srli	a4,a4,0x10
80001ce4:	02c58833          	mul	a6,a1,a2
80001ce8:	b7b1                	j	80001c34 <__divsf3+0x1d6>
80001cea:	8bce                	mv	s7,s3
80001cec:	8b36                	mv	s6,a3
80001cee:	4a81                	li	s5,0
80001cf0:	bdb1                	j	80001b4c <__divsf3+0xee>
80001cf2:	86ba                	mv	a3,a4
80001cf4:	b761                	j	80001c7c <__divsf3+0x21e>
80001cf6:	85b6                	mv	a1,a3
80001cf8:	bfa9                	j	80001c52 <__divsf3+0x1f4>
80001cfa:	4705                	li	a4,1
80001cfc:	4781                	li	a5,0
80001cfe:	bd21                	j	80001b16 <__divsf3+0xb8>
80001d00:	001bf913          	andi	s2,s7,1
80001d04:	0ff00713          	li	a4,255
80001d08:	4781                	li	a5,0
80001d0a:	b531                	j	80001b16 <__divsf3+0xb8>

80001d0c <__mulsf3>:
80001d0c:	7179                	addi	sp,sp,-48
80001d0e:	d422                	sw	s0,40(sp)
80001d10:	01755413          	srli	s0,a0,0x17
80001d14:	ce4e                	sw	s3,28(sp)
80001d16:	cc52                	sw	s4,24(sp)
80001d18:	00951993          	slli	s3,a0,0x9
80001d1c:	d606                	sw	ra,44(sp)
80001d1e:	d226                	sw	s1,36(sp)
80001d20:	d04a                	sw	s2,32(sp)
80001d22:	ca56                	sw	s5,20(sp)
80001d24:	c85a                	sw	s6,16(sp)
80001d26:	0ff47413          	andi	s0,s0,255
80001d2a:	0099d993          	srli	s3,s3,0x9
80001d2e:	01f55a13          	srli	s4,a0,0x1f
80001d32:	c469                	beqz	s0,80001dfc <__mulsf3+0xf0>
80001d34:	0ff00793          	li	a5,255
80001d38:	0ef40863          	beq	s0,a5,80001e28 <__mulsf3+0x11c>
80001d3c:	00399793          	slli	a5,s3,0x3
80001d40:	04000737          	lui	a4,0x4000
80001d44:	00e7e9b3          	or	s3,a5,a4
80001d48:	f8140413          	addi	s0,s0,-127 # 7ff81 <__stack_size+0x7f781>
80001d4c:	4481                	li	s1,0
80001d4e:	4b01                	li	s6,0
80001d50:	0175d713          	srli	a4,a1,0x17
80001d54:	00959a93          	slli	s5,a1,0x9
80001d58:	0ff77713          	andi	a4,a4,255
80001d5c:	009ada93          	srli	s5,s5,0x9
80001d60:	01f5d913          	srli	s2,a1,0x1f
80001d64:	cf45                	beqz	a4,80001e1c <__mulsf3+0x110>
80001d66:	0ff00793          	li	a5,255
80001d6a:	02f70c63          	beq	a4,a5,80001da2 <__mulsf3+0x96>
80001d6e:	0a8e                	slli	s5,s5,0x3
80001d70:	f8170713          	addi	a4,a4,-127 # 3ffff81 <__stack_size+0x3fff781>
80001d74:	040007b7          	lui	a5,0x4000
80001d78:	00faeab3          	or	s5,s5,a5
80001d7c:	943a                	add	s0,s0,a4
80001d7e:	4601                	li	a2,0
80001d80:	012a4533          	xor	a0,s4,s2
80001d84:	47bd                	li	a5,15
80001d86:	86aa                	mv	a3,a0
80001d88:	00140593          	addi	a1,s0,1
80001d8c:	1097e063          	bltu	a5,s1,80001e8c <__mulsf3+0x180>
80001d90:	0ffff717          	auipc	a4,0xffff
80001d94:	ae070713          	addi	a4,a4,-1312 # 90000870 <_data+0x870>
80001d98:	048a                	slli	s1,s1,0x2
80001d9a:	94ba                	add	s1,s1,a4
80001d9c:	409c                	lw	a5,0(s1)
80001d9e:	97ba                	add	a5,a5,a4
80001da0:	8782                	jr	a5
80001da2:	0ff40413          	addi	s0,s0,255
80001da6:	0c0a9663          	bnez	s5,80001e72 <__mulsf3+0x166>
80001daa:	0024e493          	ori	s1,s1,2
80001dae:	4609                	li	a2,2
80001db0:	bfc1                	j	80001d80 <__mulsf3+0x74>
80001db2:	4501                	li	a0,0
80001db4:	0ff00713          	li	a4,255
80001db8:	004007b7          	lui	a5,0x400
80001dbc:	50b2                	lw	ra,44(sp)
80001dbe:	5422                	lw	s0,40(sp)
80001dc0:	07a6                	slli	a5,a5,0x9
80001dc2:	075e                	slli	a4,a4,0x17
80001dc4:	83a5                	srli	a5,a5,0x9
80001dc6:	057e                	slli	a0,a0,0x1f
80001dc8:	8fd9                	or	a5,a5,a4
80001dca:	5492                	lw	s1,36(sp)
80001dcc:	5902                	lw	s2,32(sp)
80001dce:	49f2                	lw	s3,28(sp)
80001dd0:	4a62                	lw	s4,24(sp)
80001dd2:	4ad2                	lw	s5,20(sp)
80001dd4:	4b42                	lw	s6,16(sp)
80001dd6:	8d5d                	or	a0,a0,a5
80001dd8:	6145                	addi	sp,sp,48
80001dda:	8082                	ret
80001ddc:	86ca                	mv	a3,s2
80001dde:	89d6                	mv	s3,s5
80001de0:	8b32                	mv	s6,a2
80001de2:	4789                	li	a5,2
80001de4:	08fb0f63          	beq	s6,a5,80001e82 <__mulsf3+0x176>
80001de8:	478d                	li	a5,3
80001dea:	fcfb04e3          	beq	s6,a5,80001db2 <__mulsf3+0xa6>
80001dee:	4785                	li	a5,1
80001df0:	8536                	mv	a0,a3
80001df2:	1afb1063          	bne	s6,a5,80001f92 <__mulsf3+0x286>
80001df6:	4701                	li	a4,0
80001df8:	4781                	li	a5,0
80001dfa:	b7c9                	j	80001dbc <__mulsf3+0xb0>
80001dfc:	04099d63          	bnez	s3,80001e56 <__mulsf3+0x14a>
80001e00:	0175d713          	srli	a4,a1,0x17
80001e04:	00959a93          	slli	s5,a1,0x9
80001e08:	0ff77713          	andi	a4,a4,255
80001e0c:	4491                	li	s1,4
80001e0e:	4401                	li	s0,0
80001e10:	4b05                	li	s6,1
80001e12:	009ada93          	srli	s5,s5,0x9
80001e16:	01f5d913          	srli	s2,a1,0x1f
80001e1a:	f731                	bnez	a4,80001d66 <__mulsf3+0x5a>
80001e1c:	000a9d63          	bnez	s5,80001e36 <__mulsf3+0x12a>
80001e20:	0014e493          	ori	s1,s1,1
80001e24:	4605                	li	a2,1
80001e26:	bfa9                	j	80001d80 <__mulsf3+0x74>
80001e28:	02099263          	bnez	s3,80001e4c <__mulsf3+0x140>
80001e2c:	44a1                	li	s1,8
80001e2e:	0ff00413          	li	s0,255
80001e32:	4b09                	li	s6,2
80001e34:	bf31                	j	80001d50 <__mulsf3+0x44>
80001e36:	8556                	mv	a0,s5
80001e38:	2cd9                	jal	8000210e <__clzsi2>
80001e3a:	ffb50793          	addi	a5,a0,-5
80001e3e:	8c09                	sub	s0,s0,a0
80001e40:	00fa9ab3          	sll	s5,s5,a5
80001e44:	f8a40413          	addi	s0,s0,-118
80001e48:	4601                	li	a2,0
80001e4a:	bf1d                	j	80001d80 <__mulsf3+0x74>
80001e4c:	44b1                	li	s1,12
80001e4e:	0ff00413          	li	s0,255
80001e52:	4b0d                	li	s6,3
80001e54:	bdf5                	j	80001d50 <__mulsf3+0x44>
80001e56:	854e                	mv	a0,s3
80001e58:	c62e                	sw	a1,12(sp)
80001e5a:	2c55                	jal	8000210e <__clzsi2>
80001e5c:	ffb50793          	addi	a5,a0,-5
80001e60:	f8a00413          	li	s0,-118
80001e64:	00f999b3          	sll	s3,s3,a5
80001e68:	8c09                	sub	s0,s0,a0
80001e6a:	4481                	li	s1,0
80001e6c:	4b01                	li	s6,0
80001e6e:	45b2                	lw	a1,12(sp)
80001e70:	b5c5                	j	80001d50 <__mulsf3+0x44>
80001e72:	0034e493          	ori	s1,s1,3
80001e76:	460d                	li	a2,3
80001e78:	b721                	j	80001d80 <__mulsf3+0x74>
80001e7a:	4789                	li	a5,2
80001e7c:	86d2                	mv	a3,s4
80001e7e:	f6fb15e3          	bne	s6,a5,80001de8 <__mulsf3+0xdc>
80001e82:	8536                	mv	a0,a3
80001e84:	0ff00713          	li	a4,255
80001e88:	4781                	li	a5,0
80001e8a:	bf0d                	j	80001dbc <__mulsf3+0xb0>
80001e8c:	6341                	lui	t1,0x10
80001e8e:	fff30693          	addi	a3,t1,-1 # ffff <__stack_size+0xf7ff>
80001e92:	0109d613          	srli	a2,s3,0x10
80001e96:	010ad893          	srli	a7,s5,0x10
80001e9a:	00d9f7b3          	and	a5,s3,a3
80001e9e:	00dafab3          	and	s5,s5,a3
80001ea2:	03578833          	mul	a6,a5,s5
80001ea6:	02f889b3          	mul	s3,a7,a5
80001eaa:	01085713          	srli	a4,a6,0x10
80001eae:	03560ab3          	mul	s5,a2,s5
80001eb2:	99d6                	add	s3,s3,s5
80001eb4:	974e                	add	a4,a4,s3
80001eb6:	03160633          	mul	a2,a2,a7
80001eba:	01577363          	bgeu	a4,s5,80001ec0 <__mulsf3+0x1b4>
80001ebe:	961a                	add	a2,a2,t1
80001ec0:	67c1                	lui	a5,0x10
80001ec2:	17fd                	addi	a5,a5,-1
80001ec4:	00f776b3          	and	a3,a4,a5
80001ec8:	00f87833          	and	a6,a6,a5
80001ecc:	06c2                	slli	a3,a3,0x10
80001ece:	96c2                	add	a3,a3,a6
80001ed0:	00669993          	slli	s3,a3,0x6
80001ed4:	01075793          	srli	a5,a4,0x10
80001ed8:	013039b3          	snez	s3,s3
80001edc:	82e9                	srli	a3,a3,0x1a
80001ede:	97b2                	add	a5,a5,a2
80001ee0:	079a                	slli	a5,a5,0x6
80001ee2:	00d9e6b3          	or	a3,s3,a3
80001ee6:	00d7e9b3          	or	s3,a5,a3
80001eea:	00499793          	slli	a5,s3,0x4
80001eee:	0007d963          	bgez	a5,80001f00 <__mulsf3+0x1f4>
80001ef2:	0019d713          	srli	a4,s3,0x1
80001ef6:	0019f793          	andi	a5,s3,1
80001efa:	00f769b3          	or	s3,a4,a5
80001efe:	842e                	mv	s0,a1
80001f00:	07f40713          	addi	a4,s0,127
80001f04:	04e05063          	blez	a4,80001f44 <__mulsf3+0x238>
80001f08:	0079f793          	andi	a5,s3,7
80001f0c:	c799                	beqz	a5,80001f1a <__mulsf3+0x20e>
80001f0e:	00f9f793          	andi	a5,s3,15
80001f12:	4691                	li	a3,4
80001f14:	00d78363          	beq	a5,a3,80001f1a <__mulsf3+0x20e>
80001f18:	0991                	addi	s3,s3,4
80001f1a:	00499793          	slli	a5,s3,0x4
80001f1e:	0007d963          	bgez	a5,80001f30 <__mulsf3+0x224>
80001f22:	f80007b7          	lui	a5,0xf8000
80001f26:	17fd                	addi	a5,a5,-1
80001f28:	00f9f9b3          	and	s3,s3,a5
80001f2c:	08040713          	addi	a4,s0,128
80001f30:	0fe00793          	li	a5,254
80001f34:	04e7cb63          	blt	a5,a4,80001f8a <__mulsf3+0x27e>
80001f38:	00699793          	slli	a5,s3,0x6
80001f3c:	83a5                	srli	a5,a5,0x9
80001f3e:	0ff77713          	andi	a4,a4,255
80001f42:	bdad                	j	80001dbc <__mulsf3+0xb0>
80001f44:	4785                	li	a5,1
80001f46:	40e786b3          	sub	a3,a5,a4
80001f4a:	c711                	beqz	a4,80001f56 <__mulsf3+0x24a>
80001f4c:	466d                	li	a2,27
80001f4e:	4701                	li	a4,0
80001f50:	4781                	li	a5,0
80001f52:	e6d645e3          	blt	a2,a3,80001dbc <__mulsf3+0xb0>
80001f56:	09e40713          	addi	a4,s0,158
80001f5a:	00e99733          	sll	a4,s3,a4
80001f5e:	00e03733          	snez	a4,a4
80001f62:	00d9d7b3          	srl	a5,s3,a3
80001f66:	8fd9                	or	a5,a5,a4
80001f68:	0077f713          	andi	a4,a5,7
80001f6c:	c719                	beqz	a4,80001f7a <__mulsf3+0x26e>
80001f6e:	00f7f713          	andi	a4,a5,15
80001f72:	4691                	li	a3,4
80001f74:	00d70363          	beq	a4,a3,80001f7a <__mulsf3+0x26e>
80001f78:	0791                	addi	a5,a5,4
80001f7a:	00579713          	slli	a4,a5,0x5
80001f7e:	00074c63          	bltz	a4,80001f96 <__mulsf3+0x28a>
80001f82:	079a                	slli	a5,a5,0x6
80001f84:	83a5                	srli	a5,a5,0x9
80001f86:	4701                	li	a4,0
80001f88:	bd15                	j	80001dbc <__mulsf3+0xb0>
80001f8a:	0ff00713          	li	a4,255
80001f8e:	4781                	li	a5,0
80001f90:	b535                	j	80001dbc <__mulsf3+0xb0>
80001f92:	842e                	mv	s0,a1
80001f94:	b7b5                	j	80001f00 <__mulsf3+0x1f4>
80001f96:	4705                	li	a4,1
80001f98:	4781                	li	a5,0
80001f9a:	b50d                	j	80001dbc <__mulsf3+0xb0>

80001f9c <__floatsisf>:
80001f9c:	1141                	addi	sp,sp,-16
80001f9e:	c606                	sw	ra,12(sp)
80001fa0:	c422                	sw	s0,8(sp)
80001fa2:	c226                	sw	s1,4(sp)
80001fa4:	cd0d                	beqz	a0,80001fde <__floatsisf+0x42>
80001fa6:	41f55793          	srai	a5,a0,0x1f
80001faa:	00a7c433          	xor	s0,a5,a0
80001fae:	8c1d                	sub	s0,s0,a5
80001fb0:	84aa                	mv	s1,a0
80001fb2:	8522                	mv	a0,s0
80001fb4:	2aa9                	jal	8000210e <__clzsi2>
80001fb6:	09e00793          	li	a5,158
80001fba:	40a78733          	sub	a4,a5,a0
80001fbe:	09600793          	li	a5,150
80001fc2:	80fd                	srli	s1,s1,0x1f
80001fc4:	02e7cc63          	blt	a5,a4,80001ffc <__floatsisf+0x60>
80001fc8:	46a1                	li	a3,8
80001fca:	0ff77793          	andi	a5,a4,255
80001fce:	00a6d563          	bge	a3,a0,80001fd8 <__floatsisf+0x3c>
80001fd2:	1561                	addi	a0,a0,-8
80001fd4:	00a41433          	sll	s0,s0,a0
80001fd8:	0426                	slli	s0,s0,0x9
80001fda:	8025                	srli	s0,s0,0x9
80001fdc:	a021                	j	80001fe4 <__floatsisf+0x48>
80001fde:	4481                	li	s1,0
80001fe0:	4781                	li	a5,0
80001fe2:	4401                	li	s0,0
80001fe4:	0426                	slli	s0,s0,0x9
80001fe6:	00945513          	srli	a0,s0,0x9
80001fea:	40b2                	lw	ra,12(sp)
80001fec:	4422                	lw	s0,8(sp)
80001fee:	07de                	slli	a5,a5,0x17
80001ff0:	04fe                	slli	s1,s1,0x1f
80001ff2:	8d5d                	or	a0,a0,a5
80001ff4:	8d45                	or	a0,a0,s1
80001ff6:	4492                	lw	s1,4(sp)
80001ff8:	0141                	addi	sp,sp,16
80001ffa:	8082                	ret
80001ffc:	09900793          	li	a5,153
80002000:	00e7dd63          	bge	a5,a4,8000201a <__floatsisf+0x7e>
80002004:	01b50793          	addi	a5,a0,27
80002008:	4695                	li	a3,5
8000200a:	00f417b3          	sll	a5,s0,a5
8000200e:	8e89                	sub	a3,a3,a0
80002010:	00d45433          	srl	s0,s0,a3
80002014:	00f037b3          	snez	a5,a5
80002018:	8c5d                	or	s0,s0,a5
8000201a:	4795                	li	a5,5
8000201c:	00a7d663          	bge	a5,a0,80002028 <__floatsisf+0x8c>
80002020:	ffb50793          	addi	a5,a0,-5
80002024:	00f41433          	sll	s0,s0,a5
80002028:	fc0006b7          	lui	a3,0xfc000
8000202c:	16fd                	addi	a3,a3,-1
8000202e:	00747793          	andi	a5,s0,7
80002032:	00d47633          	and	a2,s0,a3
80002036:	c385                	beqz	a5,80002056 <__floatsisf+0xba>
80002038:	00f47793          	andi	a5,s0,15
8000203c:	4591                	li	a1,4
8000203e:	00b78c63          	beq	a5,a1,80002056 <__floatsisf+0xba>
80002042:	0611                	addi	a2,a2,4
80002044:	00561793          	slli	a5,a2,0x5
80002048:	0007d763          	bgez	a5,80002056 <__floatsisf+0xba>
8000204c:	09f00793          	li	a5,159
80002050:	8e75                	and	a2,a2,a3
80002052:	40a78733          	sub	a4,a5,a0
80002056:	00661413          	slli	s0,a2,0x6
8000205a:	8025                	srli	s0,s0,0x9
8000205c:	0ff77793          	andi	a5,a4,255
80002060:	b751                	j	80001fe4 <__floatsisf+0x48>

80002062 <__extendsfdf2>:
80002062:	01755713          	srli	a4,a0,0x17
80002066:	0ff77713          	andi	a4,a4,255
8000206a:	1141                	addi	sp,sp,-16
8000206c:	00170793          	addi	a5,a4,1
80002070:	c422                	sw	s0,8(sp)
80002072:	c226                	sw	s1,4(sp)
80002074:	00951413          	slli	s0,a0,0x9
80002078:	c606                	sw	ra,12(sp)
8000207a:	0fe7f793          	andi	a5,a5,254
8000207e:	8025                	srli	s0,s0,0x9
80002080:	01f55493          	srli	s1,a0,0x1f
80002084:	c785                	beqz	a5,800020ac <__extendsfdf2+0x4a>
80002086:	00345793          	srli	a5,s0,0x3
8000208a:	38070713          	addi	a4,a4,896
8000208e:	0476                	slli	s0,s0,0x1d
80002090:	07b2                	slli	a5,a5,0xc
80002092:	0752                	slli	a4,a4,0x14
80002094:	83b1                	srli	a5,a5,0xc
80002096:	01f49513          	slli	a0,s1,0x1f
8000209a:	8fd9                	or	a5,a5,a4
8000209c:	8fc9                	or	a5,a5,a0
8000209e:	40b2                	lw	ra,12(sp)
800020a0:	8522                	mv	a0,s0
800020a2:	4422                	lw	s0,8(sp)
800020a4:	4492                	lw	s1,4(sp)
800020a6:	85be                	mv	a1,a5
800020a8:	0141                	addi	sp,sp,16
800020aa:	8082                	ret
800020ac:	eb05                	bnez	a4,800020dc <__extendsfdf2+0x7a>
800020ae:	c439                	beqz	s0,800020fc <__extendsfdf2+0x9a>
800020b0:	8522                	mv	a0,s0
800020b2:	28b1                	jal	8000210e <__clzsi2>
800020b4:	47a9                	li	a5,10
800020b6:	04a7c663          	blt	a5,a0,80002102 <__extendsfdf2+0xa0>
800020ba:	472d                	li	a4,11
800020bc:	8f09                	sub	a4,a4,a0
800020be:	01550793          	addi	a5,a0,21
800020c2:	00e45733          	srl	a4,s0,a4
800020c6:	00f41433          	sll	s0,s0,a5
800020ca:	00c71793          	slli	a5,a4,0xc
800020ce:	38900713          	li	a4,905
800020d2:	8f09                	sub	a4,a4,a0
800020d4:	83b1                	srli	a5,a5,0xc
800020d6:	7ff77713          	andi	a4,a4,2047
800020da:	bf5d                	j	80002090 <__extendsfdf2+0x2e>
800020dc:	cc01                	beqz	s0,800020f4 <__extendsfdf2+0x92>
800020de:	00345713          	srli	a4,s0,0x3
800020e2:	000807b7          	lui	a5,0x80
800020e6:	8fd9                	or	a5,a5,a4
800020e8:	07b2                	slli	a5,a5,0xc
800020ea:	0476                	slli	s0,s0,0x1d
800020ec:	83b1                	srli	a5,a5,0xc
800020ee:	7ff00713          	li	a4,2047
800020f2:	bf79                	j	80002090 <__extendsfdf2+0x2e>
800020f4:	7ff00713          	li	a4,2047
800020f8:	4781                	li	a5,0
800020fa:	bf59                	j	80002090 <__extendsfdf2+0x2e>
800020fc:	4701                	li	a4,0
800020fe:	4781                	li	a5,0
80002100:	bf41                	j	80002090 <__extendsfdf2+0x2e>
80002102:	ff550713          	addi	a4,a0,-11
80002106:	00e41733          	sll	a4,s0,a4
8000210a:	4401                	li	s0,0
8000210c:	bf7d                	j	800020ca <__extendsfdf2+0x68>

8000210e <__clzsi2>:
8000210e:	67c1                	lui	a5,0x10
80002110:	02f57e63          	bgeu	a0,a5,8000214c <__clzsi2+0x3e>
80002114:	0ff00793          	li	a5,255
80002118:	02000713          	li	a4,32
8000211c:	00a7ec63          	bltu	a5,a0,80002134 <__clzsi2+0x26>
80002120:	0fffe797          	auipc	a5,0xfffe
80002124:	79078793          	addi	a5,a5,1936 # 900008b0 <__clz_tab>
80002128:	97aa                	add	a5,a5,a0
8000212a:	0007c503          	lbu	a0,0(a5)
8000212e:	40a70533          	sub	a0,a4,a0
80002132:	8082                	ret
80002134:	8121                	srli	a0,a0,0x8
80002136:	0fffe797          	auipc	a5,0xfffe
8000213a:	77a78793          	addi	a5,a5,1914 # 900008b0 <__clz_tab>
8000213e:	97aa                	add	a5,a5,a0
80002140:	0007c503          	lbu	a0,0(a5)
80002144:	4761                	li	a4,24
80002146:	40a70533          	sub	a0,a4,a0
8000214a:	8082                	ret
8000214c:	010007b7          	lui	a5,0x1000
80002150:	00f56e63          	bltu	a0,a5,8000216c <__clzsi2+0x5e>
80002154:	8161                	srli	a0,a0,0x18
80002156:	0fffe797          	auipc	a5,0xfffe
8000215a:	75a78793          	addi	a5,a5,1882 # 900008b0 <__clz_tab>
8000215e:	97aa                	add	a5,a5,a0
80002160:	0007c503          	lbu	a0,0(a5)
80002164:	4721                	li	a4,8
80002166:	40a70533          	sub	a0,a4,a0
8000216a:	8082                	ret
8000216c:	8141                	srli	a0,a0,0x10
8000216e:	0fffe797          	auipc	a5,0xfffe
80002172:	74278793          	addi	a5,a5,1858 # 900008b0 <__clz_tab>
80002176:	97aa                	add	a5,a5,a0
80002178:	0007c503          	lbu	a0,0(a5)
8000217c:	4741                	li	a4,16
8000217e:	40a70533          	sub	a0,a4,a0
80002182:	8082                	ret

80002184 <atexit>:
80002184:	85aa                	mv	a1,a0
80002186:	4681                	li	a3,0
80002188:	4601                	li	a2,0
8000218a:	4501                	li	a0,0
8000218c:	aa85                	j	800022fc <__register_exitproc>

8000218e <exit>:
8000218e:	1141                	addi	sp,sp,-16
80002190:	c422                	sw	s0,8(sp)
80002192:	c606                	sw	ra,12(sp)
80002194:	00000797          	auipc	a5,0x0
80002198:	1ec78793          	addi	a5,a5,492 # 80002380 <__call_exitprocs>
8000219c:	842a                	mv	s0,a0
8000219e:	c399                	beqz	a5,800021a4 <exit+0x16>
800021a0:	4581                	li	a1,0
800021a2:	2af9                	jal	80002380 <__call_exitprocs>
800021a4:	00000797          	auipc	a5,0x0
800021a8:	2d478793          	addi	a5,a5,724 # 80002478 <_global_impure_ptr>
800021ac:	4388                	lw	a0,0(a5)
800021ae:	551c                	lw	a5,40(a0)
800021b0:	c391                	beqz	a5,800021b4 <exit+0x26>
800021b2:	9782                	jalr	a5
800021b4:	8522                	mv	a0,s0
800021b6:	a33fe0ef          	jal	ra,80000be8 <_exit>

800021ba <__libc_fini_array>:
800021ba:	1141                	addi	sp,sp,-16
800021bc:	00000797          	auipc	a5,0x0
800021c0:	2c478793          	addi	a5,a5,708 # 80002480 <__fini_array_end>
800021c4:	c422                	sw	s0,8(sp)
800021c6:	00000417          	auipc	s0,0x0
800021ca:	2ba40413          	addi	s0,s0,698 # 80002480 <__fini_array_end>
800021ce:	8c1d                	sub	s0,s0,a5
800021d0:	c226                	sw	s1,4(sp)
800021d2:	c606                	sw	ra,12(sp)
800021d4:	8409                	srai	s0,s0,0x2
800021d6:	84be                	mv	s1,a5
800021d8:	e411                	bnez	s0,800021e4 <__libc_fini_array+0x2a>
800021da:	40b2                	lw	ra,12(sp)
800021dc:	4422                	lw	s0,8(sp)
800021de:	4492                	lw	s1,4(sp)
800021e0:	0141                	addi	sp,sp,16
800021e2:	8082                	ret
800021e4:	147d                	addi	s0,s0,-1
800021e6:	00241793          	slli	a5,s0,0x2
800021ea:	97a6                	add	a5,a5,s1
800021ec:	439c                	lw	a5,0(a5)
800021ee:	9782                	jalr	a5
800021f0:	b7e5                	j	800021d8 <__libc_fini_array+0x1e>

800021f2 <__libc_init_array>:
800021f2:	1141                	addi	sp,sp,-16
800021f4:	00000797          	auipc	a5,0x0
800021f8:	28878793          	addi	a5,a5,648 # 8000247c <_eitcm>
800021fc:	c422                	sw	s0,8(sp)
800021fe:	00000417          	auipc	s0,0x0
80002202:	27e40413          	addi	s0,s0,638 # 8000247c <_eitcm>
80002206:	8c1d                	sub	s0,s0,a5
80002208:	c226                	sw	s1,4(sp)
8000220a:	c04a                	sw	s2,0(sp)
8000220c:	c606                	sw	ra,12(sp)
8000220e:	8409                	srai	s0,s0,0x2
80002210:	4481                	li	s1,0
80002212:	893e                	mv	s2,a5
80002214:	02849663          	bne	s1,s0,80002240 <__libc_init_array+0x4e>
80002218:	00000797          	auipc	a5,0x0
8000221c:	26478793          	addi	a5,a5,612 # 8000247c <_eitcm>
80002220:	00000417          	auipc	s0,0x0
80002224:	26040413          	addi	s0,s0,608 # 80002480 <__fini_array_end>
80002228:	8c1d                	sub	s0,s0,a5
8000222a:	8409                	srai	s0,s0,0x2
8000222c:	4481                	li	s1,0
8000222e:	893e                	mv	s2,a5
80002230:	00849f63          	bne	s1,s0,8000224e <__libc_init_array+0x5c>
80002234:	40b2                	lw	ra,12(sp)
80002236:	4422                	lw	s0,8(sp)
80002238:	4492                	lw	s1,4(sp)
8000223a:	4902                	lw	s2,0(sp)
8000223c:	0141                	addi	sp,sp,16
8000223e:	8082                	ret
80002240:	00249793          	slli	a5,s1,0x2
80002244:	97ca                	add	a5,a5,s2
80002246:	439c                	lw	a5,0(a5)
80002248:	0485                	addi	s1,s1,1
8000224a:	9782                	jalr	a5
8000224c:	b7e1                	j	80002214 <__libc_init_array+0x22>
8000224e:	00249793          	slli	a5,s1,0x2
80002252:	97ca                	add	a5,a5,s2
80002254:	439c                	lw	a5,0(a5)
80002256:	0485                	addi	s1,s1,1
80002258:	9782                	jalr	a5
8000225a:	bfd9                	j	80002230 <__libc_init_array+0x3e>

8000225c <memcpy>:
8000225c:	832a                	mv	t1,a0
8000225e:	ca09                	beqz	a2,80002270 <memcpy+0x14>
80002260:	00058383          	lb	t2,0(a1)
80002264:	00730023          	sb	t2,0(t1)
80002268:	167d                	addi	a2,a2,-1
8000226a:	0305                	addi	t1,t1,1
8000226c:	0585                	addi	a1,a1,1
8000226e:	fa6d                	bnez	a2,80002260 <memcpy+0x4>
80002270:	8082                	ret

80002272 <strcmp>:
80002272:	00054603          	lbu	a2,0(a0)
80002276:	0005c683          	lbu	a3,0(a1)
8000227a:	0505                	addi	a0,a0,1
8000227c:	0585                	addi	a1,a1,1
8000227e:	00d61363          	bne	a2,a3,80002284 <strcmp+0x12>
80002282:	fa65                	bnez	a2,80002272 <strcmp>
80002284:	40d60533          	sub	a0,a2,a3
80002288:	8082                	ret

8000228a <strnlen>:
8000228a:	95aa                	add	a1,a1,a0
8000228c:	87aa                	mv	a5,a0
8000228e:	00b78563          	beq	a5,a1,80002298 <strnlen+0xe>
80002292:	0007c703          	lbu	a4,0(a5)
80002296:	e701                	bnez	a4,8000229e <strnlen+0x14>
80002298:	40a78533          	sub	a0,a5,a0
8000229c:	8082                	ret
8000229e:	0785                	addi	a5,a5,1
800022a0:	b7fd                	j	8000228e <strnlen+0x4>

800022a2 <isatty>:
800022a2:	a47fe06f          	j	80000ce8 <_isatty>

800022a6 <sbrk>:
800022a6:	0fffe797          	auipc	a5,0xfffe
800022aa:	76e78793          	addi	a5,a5,1902 # 90000a14 <_impure_ptr>
800022ae:	85aa                	mv	a1,a0
800022b0:	4388                	lw	a0,0(a5)
800022b2:	aa49                	j	80002444 <_sbrk_r>

800022b4 <write>:
800022b4:	0fffe797          	auipc	a5,0xfffe
800022b8:	76078793          	addi	a5,a5,1888 # 90000a14 <_impure_ptr>
800022bc:	86b2                	mv	a3,a2
800022be:	862e                	mv	a2,a1
800022c0:	85aa                	mv	a1,a0
800022c2:	4388                	lw	a0,0(a5)
800022c4:	a009                	j	800022c6 <_write_r>

800022c6 <_write_r>:
800022c6:	1141                	addi	sp,sp,-16
800022c8:	c422                	sw	s0,8(sp)
800022ca:	842a                	mv	s0,a0
800022cc:	852e                	mv	a0,a1
800022ce:	85b2                	mv	a1,a2
800022d0:	8636                	mv	a2,a3
800022d2:	10001797          	auipc	a5,0x10001
800022d6:	fe07ad23          	sw	zero,-6(a5) # 900032cc <errno>
800022da:	c606                	sw	ra,12(sp)
800022dc:	a55fe0ef          	jal	ra,80000d30 <_write>
800022e0:	57fd                	li	a5,-1
800022e2:	00f51963          	bne	a0,a5,800022f4 <_write_r+0x2e>
800022e6:	10001797          	auipc	a5,0x10001
800022ea:	fe678793          	addi	a5,a5,-26 # 900032cc <errno>
800022ee:	439c                	lw	a5,0(a5)
800022f0:	c391                	beqz	a5,800022f4 <_write_r+0x2e>
800022f2:	c01c                	sw	a5,0(s0)
800022f4:	40b2                	lw	ra,12(sp)
800022f6:	4422                	lw	s0,8(sp)
800022f8:	0141                	addi	sp,sp,16
800022fa:	8082                	ret

800022fc <__register_exitproc>:
800022fc:	85418793          	addi	a5,gp,-1964 # 90000a64 <_global_atexit>
80002300:	439c                	lw	a5,0(a5)
80002302:	8e2a                	mv	t3,a0
80002304:	e39d                	bnez	a5,8000232a <__register_exitproc+0x2e>
80002306:	10001717          	auipc	a4,0x10001
8000230a:	f3a70713          	addi	a4,a4,-198 # 90003240 <_global_atexit0>
8000230e:	84e1aa23          	sw	a4,-1964(gp) # 90000a64 <_global_atexit>
80002312:	7fffe517          	auipc	a0,0x7fffe
80002316:	cee50513          	addi	a0,a0,-786 # 0 <_sp+0x6fff0000>
8000231a:	87ba                	mv	a5,a4
8000231c:	c519                	beqz	a0,8000232a <__register_exitproc+0x2e>
8000231e:	411c                	lw	a5,0(a0)
80002320:	10001517          	auipc	a0,0x10001
80002324:	faf52423          	sw	a5,-88(a0) # 900032c8 <_global_atexit0+0x88>
80002328:	87ba                	mv	a5,a4
8000232a:	43d8                	lw	a4,4(a5)
8000232c:	487d                	li	a6,31
8000232e:	557d                	li	a0,-1
80002330:	04e84763          	blt	a6,a4,8000237e <__register_exitproc+0x82>
80002334:	020e0e63          	beqz	t3,80002370 <__register_exitproc+0x74>
80002338:	0887a803          	lw	a6,136(a5)
8000233c:	04080163          	beqz	a6,8000237e <__register_exitproc+0x82>
80002340:	00271893          	slli	a7,a4,0x2
80002344:	98c2                	add	a7,a7,a6
80002346:	00c8a023          	sw	a2,0(a7)
8000234a:	10082303          	lw	t1,256(a6)
8000234e:	4605                	li	a2,1
80002350:	00e61633          	sll	a2,a2,a4
80002354:	00c36333          	or	t1,t1,a2
80002358:	10682023          	sw	t1,256(a6)
8000235c:	08d8a023          	sw	a3,128(a7)
80002360:	4689                	li	a3,2
80002362:	00de1763          	bne	t3,a3,80002370 <__register_exitproc+0x74>
80002366:	10482683          	lw	a3,260(a6)
8000236a:	8e55                	or	a2,a2,a3
8000236c:	10c82223          	sw	a2,260(a6)
80002370:	00170693          	addi	a3,a4,1
80002374:	070a                	slli	a4,a4,0x2
80002376:	c3d4                	sw	a3,4(a5)
80002378:	97ba                	add	a5,a5,a4
8000237a:	c78c                	sw	a1,8(a5)
8000237c:	4501                	li	a0,0
8000237e:	8082                	ret

80002380 <__call_exitprocs>:
80002380:	7179                	addi	sp,sp,-48
80002382:	cc52                	sw	s4,24(sp)
80002384:	ca56                	sw	s5,20(sp)
80002386:	c85a                	sw	s6,16(sp)
80002388:	c65e                	sw	s7,12(sp)
8000238a:	d606                	sw	ra,44(sp)
8000238c:	d422                	sw	s0,40(sp)
8000238e:	d226                	sw	s1,36(sp)
80002390:	d04a                	sw	s2,32(sp)
80002392:	ce4e                	sw	s3,28(sp)
80002394:	c462                	sw	s8,8(sp)
80002396:	8b2a                	mv	s6,a0
80002398:	8a2e                	mv	s4,a1
8000239a:	85418a93          	addi	s5,gp,-1964 # 90000a64 <_global_atexit>
8000239e:	4b85                	li	s7,1
800023a0:	000aa403          	lw	s0,0(s5)
800023a4:	c811                	beqz	s0,800023b8 <__call_exitprocs+0x38>
800023a6:	4044                	lw	s1,4(s0)
800023a8:	08842983          	lw	s3,136(s0)
800023ac:	fff48913          	addi	s2,s1,-1
800023b0:	048a                	slli	s1,s1,0x2
800023b2:	94a2                	add	s1,s1,s0
800023b4:	00095e63          	bgez	s2,800023d0 <__call_exitprocs+0x50>
800023b8:	50b2                	lw	ra,44(sp)
800023ba:	5422                	lw	s0,40(sp)
800023bc:	5492                	lw	s1,36(sp)
800023be:	5902                	lw	s2,32(sp)
800023c0:	49f2                	lw	s3,28(sp)
800023c2:	4a62                	lw	s4,24(sp)
800023c4:	4ad2                	lw	s5,20(sp)
800023c6:	4b42                	lw	s6,16(sp)
800023c8:	4bb2                	lw	s7,12(sp)
800023ca:	4c22                	lw	s8,8(sp)
800023cc:	6145                	addi	sp,sp,48
800023ce:	8082                	ret
800023d0:	000a0e63          	beqz	s4,800023ec <__call_exitprocs+0x6c>
800023d4:	00099563          	bnez	s3,800023de <__call_exitprocs+0x5e>
800023d8:	197d                	addi	s2,s2,-1
800023da:	14f1                	addi	s1,s1,-4
800023dc:	bfe1                	j	800023b4 <__call_exitprocs+0x34>
800023de:	00291793          	slli	a5,s2,0x2
800023e2:	97ce                	add	a5,a5,s3
800023e4:	0807a783          	lw	a5,128(a5)
800023e8:	ff4798e3          	bne	a5,s4,800023d8 <__call_exitprocs+0x58>
800023ec:	4058                	lw	a4,4(s0)
800023ee:	40dc                	lw	a5,4(s1)
800023f0:	177d                	addi	a4,a4,-1
800023f2:	03271863          	bne	a4,s2,80002422 <__call_exitprocs+0xa2>
800023f6:	01242223          	sw	s2,4(s0)
800023fa:	dff9                	beqz	a5,800023d8 <__call_exitprocs+0x58>
800023fc:	00442c03          	lw	s8,4(s0)
80002400:	00098863          	beqz	s3,80002410 <__call_exitprocs+0x90>
80002404:	1009a683          	lw	a3,256(s3)
80002408:	012b9733          	sll	a4,s7,s2
8000240c:	8ef9                	and	a3,a3,a4
8000240e:	ee89                	bnez	a3,80002428 <__call_exitprocs+0xa8>
80002410:	9782                	jalr	a5
80002412:	4058                	lw	a4,4(s0)
80002414:	000aa783          	lw	a5,0(s5)
80002418:	f98714e3          	bne	a4,s8,800023a0 <__call_exitprocs+0x20>
8000241c:	faf40ee3          	beq	s0,a5,800023d8 <__call_exitprocs+0x58>
80002420:	b741                	j	800023a0 <__call_exitprocs+0x20>
80002422:	0004a223          	sw	zero,4(s1)
80002426:	bfd1                	j	800023fa <__call_exitprocs+0x7a>
80002428:	00291693          	slli	a3,s2,0x2
8000242c:	96ce                	add	a3,a3,s3
8000242e:	428c                	lw	a1,0(a3)
80002430:	1049a683          	lw	a3,260(s3)
80002434:	8f75                	and	a4,a4,a3
80002436:	e701                	bnez	a4,8000243e <__call_exitprocs+0xbe>
80002438:	855a                	mv	a0,s6
8000243a:	9782                	jalr	a5
8000243c:	bfd9                	j	80002412 <__call_exitprocs+0x92>
8000243e:	852e                	mv	a0,a1
80002440:	9782                	jalr	a5
80002442:	bfc1                	j	80002412 <__call_exitprocs+0x92>

80002444 <_sbrk_r>:
80002444:	1141                	addi	sp,sp,-16
80002446:	c422                	sw	s0,8(sp)
80002448:	842a                	mv	s0,a0
8000244a:	852e                	mv	a0,a1
8000244c:	10001797          	auipc	a5,0x10001
80002450:	e807a023          	sw	zero,-384(a5) # 900032cc <errno>
80002454:	c606                	sw	ra,12(sp)
80002456:	89ffe0ef          	jal	ra,80000cf4 <_sbrk>
8000245a:	57fd                	li	a5,-1
8000245c:	00f51963          	bne	a0,a5,8000246e <_sbrk_r+0x2a>
80002460:	10001797          	auipc	a5,0x10001
80002464:	e6c78793          	addi	a5,a5,-404 # 900032cc <errno>
80002468:	439c                	lw	a5,0(a5)
8000246a:	c391                	beqz	a5,8000246e <_sbrk_r+0x2a>
8000246c:	c01c                	sw	a5,0(s0)
8000246e:	40b2                	lw	ra,12(sp)
80002470:	4422                	lw	s0,8(sp)
80002472:	0141                	addi	sp,sp,16
80002474:	8082                	ret

Disassembly of section .sdata2._global_impure_ptr:

80002478 <_global_impure_ptr>:
80002478:	09b0                	addi	a2,sp,216
8000247a:	9000                	0x9000

Disassembly of section .init_array:

8000247c <_eitcm>:
8000247c:	072c                	addi	a1,sp,904
8000247e:	8000                	0x8000

Disassembly of section .data:

90000000 <__clz_tab-0x8b0>:
90000000:	2400                	fld	fs0,8(s0)
90000002:	4974                	lw	a3,84(a0)
90000004:	0000                	unimp
90000006:	447a                	lw	s0,156(sp)
90000008:	a000                	fsd	fs0,0(s0)
9000000a:	484444db          	0x484444db
9000000e:	5952                	lw	s2,52(sp)
90000010:	4e4f5453          	0x4e4f5453
90000014:	2045                	jal	900000b4 <_data+0xb4>
90000016:	5250                	lw	a2,36(a2)
90000018:	4152474f          	fnmadd.s	fa4,ft4,fs5,fs0,rmm
9000001c:	2c4d                	jal	900002ce <_data+0x2ce>
9000001e:	5320                	lw	s0,96(a4)
90000020:	20454d4f          	fnmadd.s	fs10,fa0,ft4,ft4,rmm
90000024:	49525453          	0x49525453
90000028:	474e                	lw	a4,208(sp)
9000002a:	0000                	unimp
9000002c:	6844                	flw	fs1,20(s0)
9000002e:	7972                	flw	fs2,60(sp)
90000030:	6e6f7473          	csrrci	s0,0x6e6,30
90000034:	2065                	jal	900000dc <_data+0xdc>
90000036:	6542                	flw	fa0,16(sp)
90000038:	636e                	flw	ft6,216(sp)
9000003a:	6d68                	flw	fa0,92(a0)
9000003c:	7261                	lui	tp,0xffff8
9000003e:	56202c6b          	0x56202c6b
90000042:	7265                	lui	tp,0xffff9
90000044:	6e6f6973          	csrrsi	s2,0x6e6,30
90000048:	3220                	fld	fs0,96(a2)
9000004a:	312e                	fld	ft2,232(sp)
9000004c:	2820                	fld	fs0,80(s0)
9000004e:	614c                	flw	fa1,4(a0)
90000050:	676e                	flw	fa4,216(sp)
90000052:	6175                	addi	sp,sp,368
90000054:	203a6567          	0x203a6567
90000058:	000a2943          	fmadd.s	fs2,fs4,ft0,ft0,rdn
9000005c:	7250                	flw	fa2,36(a2)
9000005e:	6172676f          	jal	a4,90026e74 <_sp+0x16e74>
90000062:	206d                	jal	9000010c <_data+0x10c>
90000064:	706d6f63          	bltu	s10,t1,90000782 <_data+0x782>
90000068:	6c69                	lui	s8,0x1a
9000006a:	6465                	lui	s0,0x19
9000006c:	7720                	flw	fs0,104(a4)
9000006e:	7469                	lui	s0,0xffffa
90000070:	2068                	fld	fa0,192(s0)
90000072:	67657227          	0x67657227
90000076:	7369                	lui	t1,0xffffa
90000078:	6574                	flw	fa3,76(a0)
9000007a:	2772                	fld	fa4,280(sp)
9000007c:	6120                	flw	fs0,64(a0)
9000007e:	7474                	flw	fa3,108(s0)
90000080:	6972                	flw	fs2,28(sp)
90000082:	7562                	flw	fa0,56(sp)
90000084:	6574                	flw	fa3,76(a0)
90000086:	000a                	c.slli	zero,0x2
90000088:	7250                	flw	fa2,36(a2)
9000008a:	6172676f          	jal	a4,90026ea0 <_sp+0x16ea0>
9000008e:	206d                	jal	90000138 <_data+0x138>
90000090:	706d6f63          	bltu	s10,t1,900007ae <_data+0x7ae>
90000094:	6c69                	lui	s8,0x1a
90000096:	6465                	lui	s0,0x19
90000098:	7720                	flw	fs0,104(a4)
9000009a:	7469                	lui	s0,0xffffa
9000009c:	6f68                	flw	fa0,92(a4)
9000009e:	7475                	lui	s0,0xffffd
900000a0:	2720                	fld	fs0,72(a4)
900000a2:	6572                	flw	fa0,28(sp)
900000a4:	74736967          	0x74736967
900000a8:	7265                	lui	tp,0xffff9
900000aa:	74612027          	fsw	ft6,1856(sp)
900000ae:	7274                	flw	fa3,100(a2)
900000b0:	6269                	lui	tp,0x1a
900000b2:	7475                	lui	s0,0xffffd
900000b4:	0a65                	addi	s4,s4,25
900000b6:	0000                	unimp
900000b8:	6c50                	flw	fa2,28(s0)
900000ba:	6165                	addi	sp,sp,112
900000bc:	67206573          	csrrsi	a0,0x672,0
900000c0:	7669                	lui	a2,0xffffa
900000c2:	2065                	jal	9000016a <_data+0x16a>
900000c4:	6874                	flw	fa3,84(s0)
900000c6:	2065                	jal	9000016e <_data+0x16e>
900000c8:	756e                	flw	fa0,248(sp)
900000ca:	626d                	lui	tp,0x1b
900000cc:	7265                	lui	tp,0xffff9
900000ce:	6f20                	flw	fs0,88(a4)
900000d0:	2066                	fld	ft0,88(sp)
900000d2:	7572                	flw	fa0,60(sp)
900000d4:	736e                	flw	ft6,248(sp)
900000d6:	7420                	flw	fs0,104(s0)
900000d8:	7268                	flw	fa0,100(a2)
900000da:	6867756f          	jal	a0,90077760 <_sp+0x67760>
900000de:	7420                	flw	fs0,104(s0)
900000e0:	6568                	flw	fa0,76(a0)
900000e2:	6220                	flw	fs0,64(a2)
900000e4:	6e65                	lui	t3,0x19
900000e6:	616d6863          	bltu	s10,s6,900006f6 <_data+0x6f6>
900000ea:	6b72                	flw	fs6,28(sp)
900000ec:	203a                	fld	ft0,392(sp)
900000ee:	0000                	unimp
900000f0:	7845                	lui	a6,0xffff1
900000f2:	6365                	lui	t1,0x19
900000f4:	7475                	lui	s0,0xffffd
900000f6:	6f69                	lui	t5,0x1a
900000f8:	206e                	fld	ft0,216(sp)
900000fa:	72617473          	csrrci	s0,0x726,2
900000fe:	7374                	flw	fa3,100(a4)
90000100:	202c                	fld	fa1,64(s0)
90000102:	6425                	lui	s0,0x9
90000104:	7220                	flw	fs0,96(a2)
90000106:	6e75                	lui	t3,0x1d
90000108:	68742073          	csrs	0x687,s0
9000010c:	6f72                	flw	ft10,28(sp)
9000010e:	6775                	lui	a4,0x1d
90000110:	2068                	fld	fa0,192(s0)
90000112:	6844                	flw	fs1,20(s0)
90000114:	7972                	flw	fs2,60(sp)
90000116:	6e6f7473          	csrrci	s0,0x6e6,30
9000011a:	0a65                	addi	s4,s4,25
9000011c:	0000                	unimp
9000011e:	0000                	unimp
90000120:	7845                	lui	a6,0xffff1
90000122:	6365                	lui	t1,0x19
90000124:	7475                	lui	s0,0xffffd
90000126:	6f69                	lui	t5,0x1a
90000128:	206e                	fld	ft0,216(sp)
9000012a:	6e65                	lui	t3,0x19
9000012c:	7364                	flw	fs1,100(a4)
9000012e:	000a                	c.slli	zero,0x2
90000130:	6946                	flw	fs2,80(sp)
90000132:	616e                	flw	ft2,216(sp)
90000134:	206c                	fld	fa1,192(s0)
90000136:	6176                	flw	ft2,92(sp)
90000138:	756c                	flw	fa1,108(a0)
9000013a:	7365                	lui	t1,0xffff9
9000013c:	6f20                	flw	fs0,88(a4)
9000013e:	2066                	fld	ft0,88(sp)
90000140:	6874                	flw	fa3,84(s0)
90000142:	2065                	jal	900001ea <_data+0x1ea>
90000144:	6176                	flw	ft2,92(sp)
90000146:	6972                	flw	fs2,28(sp)
90000148:	6261                	lui	tp,0x18
9000014a:	656c                	flw	fa1,76(a0)
9000014c:	73752073          	csrs	0x737,a0
90000150:	6465                	lui	s0,0x19
90000152:	6920                	flw	fs0,80(a0)
90000154:	206e                	fld	ft0,216(sp)
90000156:	6874                	flw	fa3,84(s0)
90000158:	2065                	jal	90000200 <_data+0x200>
9000015a:	6562                	flw	fa0,24(sp)
9000015c:	636e                	flw	ft6,216(sp)
9000015e:	6d68                	flw	fa0,92(a0)
90000160:	7261                	lui	tp,0xffff8
90000162:	000a3a6b          	0xa3a6b
90000166:	0000                	unimp
90000168:	6e49                	lui	t3,0x12
9000016a:	5f74                	lw	a3,124(a4)
9000016c:	626f6c47          	fmsub.d	fs8,ft10,ft6,fa2,unknown
90000170:	203a                	fld	ft0,392(sp)
90000172:	2020                	fld	fs0,64(s0)
90000174:	2020                	fld	fs0,64(s0)
90000176:	2020                	fld	fs0,64(s0)
90000178:	2020                	fld	fs0,64(s0)
9000017a:	2020                	fld	fs0,64(s0)
9000017c:	2520                	fld	fs0,72(a0)
9000017e:	0a64                	addi	s1,sp,284
90000180:	0000                	unimp
90000182:	0000                	unimp
90000184:	2020                	fld	fs0,64(s0)
90000186:	2020                	fld	fs0,64(s0)
90000188:	2020                	fld	fs0,64(s0)
9000018a:	2020                	fld	fs0,64(s0)
9000018c:	756f6873          	csrrsi	a6,0x756,30
90000190:	646c                	flw	fa1,76(s0)
90000192:	6220                	flw	fs0,64(a2)
90000194:	3a65                	jal	8ffffb4c <__fini_array_end+0xfffd6cc>
90000196:	2020                	fld	fs0,64(s0)
90000198:	2520                	fld	fs0,72(a0)
9000019a:	0a64                	addi	s1,sp,284
9000019c:	0000                	unimp
9000019e:	0000                	unimp
900001a0:	6f42                	flw	ft10,16(sp)
900001a2:	475f6c6f          	jal	s8,900f6e16 <_sp+0xe6e16>
900001a6:	6f6c                	flw	fa1,92(a4)
900001a8:	3a62                	fld	fs4,56(sp)
900001aa:	2020                	fld	fs0,64(s0)
900001ac:	2020                	fld	fs0,64(s0)
900001ae:	2020                	fld	fs0,64(s0)
900001b0:	2020                	fld	fs0,64(s0)
900001b2:	2020                	fld	fs0,64(s0)
900001b4:	2520                	fld	fs0,72(a0)
900001b6:	0a64                	addi	s1,sp,284
900001b8:	0000                	unimp
900001ba:	0000                	unimp
900001bc:	315f6843          	fmadd.s	fa6,ft10,fs5,ft6,unknown
900001c0:	475f 6f6c 3a62      	0x3a626f6c475f
900001c6:	2020                	fld	fs0,64(s0)
900001c8:	2020                	fld	fs0,64(s0)
900001ca:	2020                	fld	fs0,64(s0)
900001cc:	2020                	fld	fs0,64(s0)
900001ce:	2020                	fld	fs0,64(s0)
900001d0:	2520                	fld	fs0,72(a0)
900001d2:	00000a63          	beqz	zero,900001e6 <_data+0x1e6>
900001d6:	0000                	unimp
900001d8:	2020                	fld	fs0,64(s0)
900001da:	2020                	fld	fs0,64(s0)
900001dc:	2020                	fld	fs0,64(s0)
900001de:	2020                	fld	fs0,64(s0)
900001e0:	756f6873          	csrrsi	a6,0x756,30
900001e4:	646c                	flw	fa1,76(s0)
900001e6:	6220                	flw	fs0,64(a2)
900001e8:	3a65                	jal	8ffffba0 <__fini_array_end+0xfffd720>
900001ea:	2020                	fld	fs0,64(s0)
900001ec:	2520                	fld	fs0,72(a0)
900001ee:	00000a63          	beqz	zero,90000202 <_data+0x202>
900001f2:	0000                	unimp
900001f4:	325f6843          	fmadd.d	fa6,ft10,ft5,ft6,unknown
900001f8:	475f 6f6c 3a62      	0x3a626f6c475f
900001fe:	2020                	fld	fs0,64(s0)
90000200:	2020                	fld	fs0,64(s0)
90000202:	2020                	fld	fs0,64(s0)
90000204:	2020                	fld	fs0,64(s0)
90000206:	2020                	fld	fs0,64(s0)
90000208:	2520                	fld	fs0,72(a0)
9000020a:	00000a63          	beqz	zero,9000021e <_data+0x21e>
9000020e:	0000                	unimp
90000210:	7241                	lui	tp,0xffff0
90000212:	5f72                	lw	t5,60(sp)
90000214:	5f31                	li	t5,-20
90000216:	626f6c47          	fmsub.d	fs8,ft10,ft6,fa2,unknown
9000021a:	3a5d385b          	0x3a5d385b
9000021e:	2020                	fld	fs0,64(s0)
90000220:	2020                	fld	fs0,64(s0)
90000222:	2020                	fld	fs0,64(s0)
90000224:	2520                	fld	fs0,72(a0)
90000226:	0a64                	addi	s1,sp,284
90000228:	0000                	unimp
9000022a:	0000                	unimp
9000022c:	7241                	lui	tp,0xffff0
9000022e:	5f72                	lw	t5,60(sp)
90000230:	5f32                	lw	t5,44(sp)
90000232:	626f6c47          	fmsub.d	fs8,ft10,ft6,fa2,unknown
90000236:	5b5d385b          	0x5b5d385b
9000023a:	203a5d37          	lui	s10,0x203a5
9000023e:	2020                	fld	fs0,64(s0)
90000240:	2520                	fld	fs0,72(a0)
90000242:	0a64                	addi	s1,sp,284
90000244:	0000                	unimp
90000246:	0000                	unimp
90000248:	2020                	fld	fs0,64(s0)
9000024a:	2020                	fld	fs0,64(s0)
9000024c:	2020                	fld	fs0,64(s0)
9000024e:	2020                	fld	fs0,64(s0)
90000250:	756f6873          	csrrsi	a6,0x756,30
90000254:	646c                	flw	fa1,76(s0)
90000256:	6220                	flw	fs0,64(a2)
90000258:	3a65                	jal	8ffffc10 <__fini_array_end+0xfffd790>
9000025a:	2020                	fld	fs0,64(s0)
9000025c:	4e20                	lw	s0,88(a2)
9000025e:	6d75                	lui	s10,0x1d
90000260:	6562                	flw	fa0,24(sp)
90000262:	5f72                	lw	t5,60(sp)
90000264:	525f664f          	fnmadd.d	fa2,ft10,ft5,fa0,unknown
90000268:	6e75                	lui	t3,0x1d
9000026a:	202b2073          	csrs	hedeleg,s6
9000026e:	3031                	jal	8ffffa7a <__fini_array_end+0xfffd5fa>
90000270:	000a                	c.slli	zero,0x2
90000272:	0000                	unimp
90000274:	7450                	flw	fa2,44(s0)
90000276:	5f72                	lw	t5,60(sp)
90000278:	626f6c47          	fmsub.d	fs8,ft10,ft6,fa2,unknown
9000027c:	3e2d                	jal	8ffffdb6 <__fini_array_end+0xfffd936>
9000027e:	000a                	c.slli	zero,0x2
90000280:	2020                	fld	fs0,64(s0)
90000282:	7450                	flw	fa2,44(s0)
90000284:	5f72                	lw	t5,60(sp)
90000286:	706d6f43          	fmadd.s	ft10,fs10,ft6,fa4,unknown
9000028a:	203a                	fld	ft0,392(sp)
9000028c:	2020                	fld	fs0,64(s0)
9000028e:	2020                	fld	fs0,64(s0)
90000290:	2020                	fld	fs0,64(s0)
90000292:	2020                	fld	fs0,64(s0)
90000294:	2520                	fld	fs0,72(a0)
90000296:	0a64                	addi	s1,sp,284
90000298:	0000                	unimp
9000029a:	0000                	unimp
9000029c:	2020                	fld	fs0,64(s0)
9000029e:	2020                	fld	fs0,64(s0)
900002a0:	2020                	fld	fs0,64(s0)
900002a2:	2020                	fld	fs0,64(s0)
900002a4:	756f6873          	csrrsi	a6,0x756,30
900002a8:	646c                	flw	fa1,76(s0)
900002aa:	6220                	flw	fs0,64(a2)
900002ac:	3a65                	jal	8ffffc64 <__fini_array_end+0xfffd7e4>
900002ae:	2020                	fld	fs0,64(s0)
900002b0:	2820                	fld	fs0,80(s0)
900002b2:	6d69                	lui	s10,0x1a
900002b4:	6c70                	flw	fa2,92(s0)
900002b6:	6d65                	lui	s10,0x19
900002b8:	6e65                	lui	t3,0x19
900002ba:	6174                	flw	fa3,68(a0)
900002bc:	6974                	flw	fa3,84(a0)
900002be:	642d6e6f          	jal	t3,900d6900 <_sp+0xc6900>
900002c2:	7065                	c.lui	zero,0xffff9
900002c4:	6e65                	lui	t3,0x19
900002c6:	6564                	flw	fs1,76(a0)
900002c8:	746e                	flw	fs0,248(sp)
900002ca:	0a29                	addi	s4,s4,10
900002cc:	0000                	unimp
900002ce:	0000                	unimp
900002d0:	2020                	fld	fs0,64(s0)
900002d2:	6944                	flw	fs1,20(a0)
900002d4:	3a726373          	csrrsi	t1,0x3a7,4
900002d8:	2020                	fld	fs0,64(s0)
900002da:	2020                	fld	fs0,64(s0)
900002dc:	2020                	fld	fs0,64(s0)
900002de:	2020                	fld	fs0,64(s0)
900002e0:	2020                	fld	fs0,64(s0)
900002e2:	2020                	fld	fs0,64(s0)
900002e4:	2520                	fld	fs0,72(a0)
900002e6:	0a64                	addi	s1,sp,284
900002e8:	0000                	unimp
900002ea:	0000                	unimp
900002ec:	2020                	fld	fs0,64(s0)
900002ee:	6e45                	lui	t3,0x11
900002f0:	6d75                	lui	s10,0x1d
900002f2:	435f 6d6f 3a70      	0x3a706d6f435f
900002f8:	2020                	fld	fs0,64(s0)
900002fa:	2020                	fld	fs0,64(s0)
900002fc:	2020                	fld	fs0,64(s0)
900002fe:	2020                	fld	fs0,64(s0)
90000300:	2520                	fld	fs0,72(a0)
90000302:	0a64                	addi	s1,sp,284
90000304:	0000                	unimp
90000306:	0000                	unimp
90000308:	2020                	fld	fs0,64(s0)
9000030a:	6e49                	lui	t3,0x12
9000030c:	5f74                	lw	a3,124(a4)
9000030e:	706d6f43          	fmadd.s	ft10,fs10,ft6,fa4,unknown
90000312:	203a                	fld	ft0,392(sp)
90000314:	2020                	fld	fs0,64(s0)
90000316:	2020                	fld	fs0,64(s0)
90000318:	2020                	fld	fs0,64(s0)
9000031a:	2020                	fld	fs0,64(s0)
9000031c:	2520                	fld	fs0,72(a0)
9000031e:	0a64                	addi	s1,sp,284
90000320:	0000                	unimp
90000322:	0000                	unimp
90000324:	2020                	fld	fs0,64(s0)
90000326:	5f727453          	0x5f727453
9000032a:	706d6f43          	fmadd.s	ft10,fs10,ft6,fa4,unknown
9000032e:	203a                	fld	ft0,392(sp)
90000330:	2020                	fld	fs0,64(s0)
90000332:	2020                	fld	fs0,64(s0)
90000334:	2020                	fld	fs0,64(s0)
90000336:	2020                	fld	fs0,64(s0)
90000338:	2520                	fld	fs0,72(a0)
9000033a:	00000a73          	0xa73
9000033e:	0000                	unimp
90000340:	2020                	fld	fs0,64(s0)
90000342:	2020                	fld	fs0,64(s0)
90000344:	2020                	fld	fs0,64(s0)
90000346:	2020                	fld	fs0,64(s0)
90000348:	756f6873          	csrrsi	a6,0x756,30
9000034c:	646c                	flw	fa1,76(s0)
9000034e:	6220                	flw	fs0,64(a2)
90000350:	3a65                	jal	8ffffd08 <__fini_array_end+0xfffd888>
90000352:	2020                	fld	fs0,64(s0)
90000354:	4420                	lw	s0,72(s0)
90000356:	5248                	lw	a0,36(a2)
90000358:	5359                	li	t1,-10
9000035a:	4f54                	lw	a3,28(a4)
9000035c:	454e                	lw	a0,208(sp)
9000035e:	5020                	lw	s0,96(s0)
90000360:	4f52                	lw	t5,20(sp)
90000362:	4d415247          	0x4d415247
90000366:	202c                	fld	fa1,64(s0)
90000368:	454d4f53          	0x454d4f53
9000036c:	5320                	lw	s0,96(a4)
9000036e:	5254                	lw	a3,36(a2)
90000370:	4e49                	li	t3,18
90000372:	00000a47          	fmsub.s	fs4,ft0,ft0,ft0,rne
90000376:	0000                	unimp
90000378:	654e                	flw	fa0,208(sp)
9000037a:	7478                	flw	fa4,108(s0)
9000037c:	505f 7274 475f      	0x475f7274505f
90000382:	6f6c                	flw	fa1,92(a4)
90000384:	2d62                	fld	fs10,24(sp)
90000386:	0a3e                	slli	s4,s4,0xf
90000388:	0000                	unimp
9000038a:	0000                	unimp
9000038c:	2020                	fld	fs0,64(s0)
9000038e:	2020                	fld	fs0,64(s0)
90000390:	2020                	fld	fs0,64(s0)
90000392:	2020                	fld	fs0,64(s0)
90000394:	756f6873          	csrrsi	a6,0x756,30
90000398:	646c                	flw	fa1,76(s0)
9000039a:	6220                	flw	fs0,64(a2)
9000039c:	3a65                	jal	8ffffd54 <__fini_array_end+0xfffd8d4>
9000039e:	2020                	fld	fs0,64(s0)
900003a0:	2820                	fld	fs0,80(s0)
900003a2:	6d69                	lui	s10,0x1a
900003a4:	6c70                	flw	fa2,92(s0)
900003a6:	6d65                	lui	s10,0x19
900003a8:	6e65                	lui	t3,0x19
900003aa:	6174                	flw	fa3,68(a0)
900003ac:	6974                	flw	fa3,84(a0)
900003ae:	642d6e6f          	jal	t3,900d69f0 <_sp+0xc69f0>
900003b2:	7065                	c.lui	zero,0xffff9
900003b4:	6e65                	lui	t3,0x19
900003b6:	6564                	flw	fs1,76(a0)
900003b8:	746e                	flw	fs0,248(sp)
900003ba:	2c29                	jal	900005d4 <_data+0x5d4>
900003bc:	7320                	flw	fs0,96(a4)
900003be:	6d61                	lui	s10,0x18
900003c0:	2065                	jal	90000468 <_data+0x468>
900003c2:	7361                	lui	t1,0xffff8
900003c4:	6120                	flw	fs0,64(a0)
900003c6:	6f62                	flw	ft10,24(sp)
900003c8:	6576                	flw	fa0,92(sp)
900003ca:	000a                	c.slli	zero,0x2
900003cc:	6e49                	lui	t3,0x12
900003ce:	5f74                	lw	a3,124(a4)
900003d0:	5f31                	li	t5,-20
900003d2:	6f4c                	flw	fa1,28(a4)
900003d4:	20203a63          	0x20203a63
900003d8:	2020                	fld	fs0,64(s0)
900003da:	2020                	fld	fs0,64(s0)
900003dc:	2020                	fld	fs0,64(s0)
900003de:	2020                	fld	fs0,64(s0)
900003e0:	2520                	fld	fs0,72(a0)
900003e2:	0a64                	addi	s1,sp,284
900003e4:	0000                	unimp
900003e6:	0000                	unimp
900003e8:	6e49                	lui	t3,0x12
900003ea:	5f74                	lw	a3,124(a4)
900003ec:	5f32                	lw	t5,44(sp)
900003ee:	6f4c                	flw	fa1,28(a4)
900003f0:	20203a63          	0x20203a63
900003f4:	2020                	fld	fs0,64(s0)
900003f6:	2020                	fld	fs0,64(s0)
900003f8:	2020                	fld	fs0,64(s0)
900003fa:	2020                	fld	fs0,64(s0)
900003fc:	2520                	fld	fs0,72(a0)
900003fe:	0a64                	addi	s1,sp,284
90000400:	0000                	unimp
90000402:	0000                	unimp
90000404:	6e49                	lui	t3,0x12
90000406:	5f74                	lw	a3,124(a4)
90000408:	6f4c5f33          	0x6f4c5f33
9000040c:	20203a63          	0x20203a63
90000410:	2020                	fld	fs0,64(s0)
90000412:	2020                	fld	fs0,64(s0)
90000414:	2020                	fld	fs0,64(s0)
90000416:	2020                	fld	fs0,64(s0)
90000418:	2520                	fld	fs0,72(a0)
9000041a:	0a64                	addi	s1,sp,284
9000041c:	0000                	unimp
9000041e:	0000                	unimp
90000420:	6e45                	lui	t3,0x11
90000422:	6d75                	lui	s10,0x1d
90000424:	4c5f 636f 203a      	0x203a636f4c5f
9000042a:	2020                	fld	fs0,64(s0)
9000042c:	2020                	fld	fs0,64(s0)
9000042e:	2020                	fld	fs0,64(s0)
90000430:	2020                	fld	fs0,64(s0)
90000432:	2020                	fld	fs0,64(s0)
90000434:	2520                	fld	fs0,72(a0)
90000436:	0a64                	addi	s1,sp,284
90000438:	0000                	unimp
9000043a:	0000                	unimp
9000043c:	5f727453          	0x5f727453
90000440:	5f31                	li	t5,-20
90000442:	6f4c                	flw	fa1,28(a4)
90000444:	20203a63          	0x20203a63
90000448:	2020                	fld	fs0,64(s0)
9000044a:	2020                	fld	fs0,64(s0)
9000044c:	2020                	fld	fs0,64(s0)
9000044e:	2020                	fld	fs0,64(s0)
90000450:	2520                	fld	fs0,72(a0)
90000452:	00000a73          	0xa73
90000456:	0000                	unimp
90000458:	2020                	fld	fs0,64(s0)
9000045a:	2020                	fld	fs0,64(s0)
9000045c:	2020                	fld	fs0,64(s0)
9000045e:	2020                	fld	fs0,64(s0)
90000460:	756f6873          	csrrsi	a6,0x756,30
90000464:	646c                	flw	fa1,76(s0)
90000466:	6220                	flw	fs0,64(a2)
90000468:	3a65                	jal	8ffffe20 <__fini_array_end+0xfffd9a0>
9000046a:	2020                	fld	fs0,64(s0)
9000046c:	4420                	lw	s0,72(s0)
9000046e:	5248                	lw	a0,36(a2)
90000470:	5359                	li	t1,-10
90000472:	4f54                	lw	a3,28(a4)
90000474:	454e                	lw	a0,208(sp)
90000476:	5020                	lw	s0,96(s0)
90000478:	4f52                	lw	t5,20(sp)
9000047a:	4d415247          	0x4d415247
9000047e:	202c                	fld	fa1,64(s0)
90000480:	2731                	jal	90000b8c <Arr_2_Glob+0x5c>
90000482:	53205453          	0x53205453
90000486:	5254                	lw	a3,36(a2)
90000488:	4e49                	li	t3,18
9000048a:	00000a47          	fmsub.s	fs4,ft0,ft0,ft0,rne
9000048e:	0000                	unimp
90000490:	5f727453          	0x5f727453
90000494:	5f32                	lw	t5,44(sp)
90000496:	6f4c                	flw	fa1,28(a4)
90000498:	20203a63          	0x20203a63
9000049c:	2020                	fld	fs0,64(s0)
9000049e:	2020                	fld	fs0,64(s0)
900004a0:	2020                	fld	fs0,64(s0)
900004a2:	2020                	fld	fs0,64(s0)
900004a4:	2520                	fld	fs0,72(a0)
900004a6:	00000a73          	0xa73
900004aa:	0000                	unimp
900004ac:	2020                	fld	fs0,64(s0)
900004ae:	2020                	fld	fs0,64(s0)
900004b0:	2020                	fld	fs0,64(s0)
900004b2:	2020                	fld	fs0,64(s0)
900004b4:	756f6873          	csrrsi	a6,0x756,30
900004b8:	646c                	flw	fa1,76(s0)
900004ba:	6220                	flw	fs0,64(a2)
900004bc:	3a65                	jal	8ffffe74 <__fini_array_end+0xfffd9f4>
900004be:	2020                	fld	fs0,64(s0)
900004c0:	4420                	lw	s0,72(s0)
900004c2:	5248                	lw	a0,36(a2)
900004c4:	5359                	li	t1,-10
900004c6:	4f54                	lw	a3,28(a4)
900004c8:	454e                	lw	a0,208(sp)
900004ca:	5020                	lw	s0,96(s0)
900004cc:	4f52                	lw	t5,20(sp)
900004ce:	4d415247          	0x4d415247
900004d2:	202c                	fld	fa1,64(s0)
900004d4:	2732                	fld	fa4,264(sp)
900004d6:	444e                	lw	s0,208(sp)
900004d8:	5320                	lw	s0,96(a4)
900004da:	5254                	lw	a3,36(a2)
900004dc:	4e49                	li	t3,18
900004de:	00000a47          	fmsub.s	fs4,ft0,ft0,ft0,rne
900004e2:	0000                	unimp
900004e4:	2820                	fld	fs0,80(s0)
900004e6:	292a                	fld	fs2,136(sp)
900004e8:	5520                	lw	s0,104(a0)
900004ea:	5f726573          	csrrsi	a0,0x5f7,4
900004ee:	6c637943          	0x6c637943
900004f2:	2065                	jal	9000059a <_data+0x59a>
900004f4:	6f66                	flw	ft10,88(sp)
900004f6:	2072                	fld	ft0,280(sp)
900004f8:	6f74                	flw	fa3,92(a4)
900004fa:	6174                	flw	fa3,68(a0)
900004fc:	206c                	fld	fa1,192(s0)
900004fe:	7572                	flw	fa0,60(sp)
90000500:	206e                	fld	ft0,216(sp)
90000502:	6874                	flw	fa3,84(s0)
90000504:	6f72                	flw	ft10,28(sp)
90000506:	6775                	lui	a4,0x1d
90000508:	2068                	fld	fa0,192(s0)
9000050a:	6844                	flw	fs1,20(s0)
9000050c:	7972                	flw	fs2,60(sp)
9000050e:	6e6f7473          	csrrci	s0,0x6e6,30
90000512:	2065                	jal	900005ba <_data+0x5ba>
90000514:	68746977          	0x68746977
90000518:	6c20                	flw	fs0,88(s0)
9000051a:	73706f6f          	jal	t5,90007450 <_end+0x4180>
9000051e:	2520                	fld	fs0,72(a0)
90000520:	3a64                	fld	fs1,240(a2)
90000522:	0a20                	addi	s0,sp,280
90000524:	0000                	unimp
90000526:	0000                	unimp
90000528:	6c25                	lui	s8,0x9
9000052a:	2064                	fld	fs1,192(s0)
9000052c:	000a                	c.slli	zero,0x2
9000052e:	0000                	unimp
90000530:	2020                	fld	fs0,64(s0)
90000532:	2020                	fld	fs0,64(s0)
90000534:	2020                	fld	fs0,64(s0)
90000536:	5320                	lw	s0,96(a4)
90000538:	6874206f          	j	900433be <_sp+0x333be>
9000053c:	2065                	jal	900005e4 <_data+0x5e4>
9000053e:	4d44                	lw	s1,28(a0)
90000540:	5049                	c.li	zero,-14
90000542:	484d2f53          	0x484d2f53
90000546:	207a                	fld	ft0,408(sp)
90000548:	206e6163          	bltu	t3,t1,9000074a <_data+0x74a>
9000054c:	6562                	flw	fa0,24(sp)
9000054e:	6320                	flw	fs0,64(a4)
90000550:	6361                	lui	t1,0x18
90000552:	6c75                	lui	s8,0x1d
90000554:	7461                	lui	s0,0xffff8
90000556:	6465                	lui	s0,0x19
90000558:	6220                	flw	fs0,64(a2)
9000055a:	3a79                	jal	8ffffef8 <__fini_array_end+0xfffda78>
9000055c:	0a20                	addi	s0,sp,280
9000055e:	0000                	unimp
90000560:	2020                	fld	fs0,64(s0)
90000562:	2020                	fld	fs0,64(s0)
90000564:	2020                	fld	fs0,64(s0)
90000566:	3120                	fld	fs0,96(a0)
90000568:	3030                	fld	fa2,96(s0)
9000056a:	3030                	fld	fa2,96(s0)
9000056c:	3030                	fld	fa2,96(s0)
9000056e:	7355282f          	0x7355282f
90000572:	7265                	lui	tp,0xffff9
90000574:	435f 6379 656c      	0x656c6379435f
9000057a:	6d754e2f          	0x6d754e2f
9000057e:	6562                	flw	fa0,24(sp)
90000580:	5f72                	lw	t5,60(sp)
90000582:	525f664f          	fnmadd.d	fa2,ft10,ft5,fa0,unknown
90000586:	6e75                	lui	t3,0x1d
90000588:	312f2973          	csrrs	s2,0x312,t5
9000058c:	20373537          	lui	a0,0x20373
90000590:	203d                	jal	900005be <_data+0x5be>
90000592:	3225                	jal	8ffffeba <__fini_array_end+0xfffda3a>
90000594:	362e                	fld	fa2,232(sp)
90000596:	2066                	fld	ft0,88(sp)
90000598:	4d44                	lw	s1,28(a0)
9000059a:	5049                	c.li	zero,-14
9000059c:	484d2f53          	0x484d2f53
900005a0:	0a7a                	slli	s4,s4,0x1e
900005a2:	0000                	unimp
900005a4:	4844                	lw	s1,20(s0)
900005a6:	5952                	lw	s2,52(sp)
900005a8:	4e4f5453          	0x4e4f5453
900005ac:	2045                	jal	9000064c <_data+0x64c>
900005ae:	5250                	lw	a2,36(a2)
900005b0:	4152474f          	fnmadd.s	fa4,ft4,fs5,fs0,rmm
900005b4:	2c4d                	jal	90000866 <_data+0x866>
900005b6:	3120                	fld	fs0,96(a0)
900005b8:	20545327          	0x20545327
900005bc:	49525453          	0x49525453
900005c0:	474e                	lw	a4,208(sp)
900005c2:	0000                	unimp
900005c4:	4844                	lw	s1,20(s0)
900005c6:	5952                	lw	s2,52(sp)
900005c8:	4e4f5453          	0x4e4f5453
900005cc:	2045                	jal	9000066c <_data+0x66c>
900005ce:	5250                	lw	a2,36(a2)
900005d0:	4152474f          	fnmadd.s	fa4,ft4,fs5,fs0,rmm
900005d4:	2c4d                	jal	90000886 <_data+0x886>
900005d6:	3220                	fld	fs0,96(a2)
900005d8:	20444e27          	fsq	ft4,540(s0) # 1921c <__stack_size+0x18a1c>
900005dc:	49525453          	0x49525453
900005e0:	474e                	lw	a4,208(sp)
900005e2:	0000                	unimp
900005e4:	4844                	lw	s1,20(s0)
900005e6:	5952                	lw	s2,52(sp)
900005e8:	4e4f5453          	0x4e4f5453
900005ec:	2045                	jal	9000068c <_data+0x68c>
900005ee:	5250                	lw	a2,36(a2)
900005f0:	4152474f          	fnmadd.s	fa4,ft4,fs5,fs0,rmm
900005f4:	2c4d                	jal	900008a6 <_data+0x8a6>
900005f6:	3320                	fld	fs0,96(a4)
900005f8:	20445227          	0x20445227
900005fc:	49525453          	0x49525453
90000600:	474e                	lw	a4,208(sp)
90000602:	0000                	unimp
90000604:	65726f43          	0x65726f43
90000608:	6620                	flw	fs0,72(a2)
9000060a:	6572                	flw	fa0,28(sp)
9000060c:	2071                	jal	90000698 <_data+0x698>
9000060e:	7461                	lui	s0,0xffff8
90000610:	2520                	fld	fs0,72(a0)
90000612:	2064                	fld	fs1,192(s0)
90000614:	7a48                	flw	fa0,52(a2)
90000616:	000a                	c.slli	zero,0x2
90000618:	7274                	flw	fa3,100(a2)
9000061a:	7061                	c.lui	zero,0xffff8
9000061c:	000a                	c.slli	zero,0x2
9000061e:	0000                	unimp
90000620:	500a                	0x500a
90000622:	6f72                	flw	ft10,28(sp)
90000624:	6d617267          	0x6d617267
90000628:	6820                	flw	fs0,80(s0)
9000062a:	7361                	lui	t1,0xffff8
9000062c:	6520                	flw	fs0,72(a0)
9000062e:	6978                	flw	fa4,84(a0)
90000630:	6574                	flw	fa3,76(a0)
90000632:	2064                	fld	fs1,192(s0)
90000634:	68746977          	0x68746977
90000638:	6320                	flw	fs0,64(a4)
9000063a:	3a65646f          	jal	s0,900569e0 <_sp+0x469e0>
9000063e:	0000                	unimp
90000640:	7830                	flw	fa2,112(s0)
90000642:	0000                	unimp
90000644:	0e92                	slli	t4,t4,0x4
90000646:	8000                	0x8000
90000648:	1104                	addi	s1,sp,160
9000064a:	8000                	0x8000
9000064c:	0f14                	addi	a3,sp,912
9000064e:	8000                	0x8000
90000650:	1104                	addi	s1,sp,160
90000652:	8000                	0x8000
90000654:	1104                	addi	s1,sp,160
90000656:	8000                	0x8000
90000658:	1104                	addi	s1,sp,160
9000065a:	8000                	0x8000
9000065c:	1104                	addi	s1,sp,160
9000065e:	8000                	0x8000
90000660:	10f6                	slli	ra,ra,0x3d
90000662:	8000                	0x8000
90000664:	1104                	addi	s1,sp,160
90000666:	8000                	0x8000
90000668:	1104                	addi	s1,sp,160
9000066a:	8000                	0x8000
9000066c:	0e90                	addi	a2,sp,848
9000066e:	8000                	0x8000
90000670:	107c                	addi	a5,sp,44
90000672:	8000                	0x8000
90000674:	1104                	addi	s1,sp,160
90000676:	8000                	0x8000
90000678:	0e90                	addi	a2,sp,848
9000067a:	8000                	0x8000
9000067c:	1092                	slli	ra,ra,0x24
9000067e:	8000                	0x8000
90000680:	1092                	slli	ra,ra,0x24
90000682:	8000                	0x8000
90000684:	1092                	slli	ra,ra,0x24
90000686:	8000                	0x8000
90000688:	1092                	slli	ra,ra,0x24
9000068a:	8000                	0x8000
9000068c:	1092                	slli	ra,ra,0x24
9000068e:	8000                	0x8000
90000690:	1092                	slli	ra,ra,0x24
90000692:	8000                	0x8000
90000694:	1092                	slli	ra,ra,0x24
90000696:	8000                	0x8000
90000698:	1092                	slli	ra,ra,0x24
9000069a:	8000                	0x8000
9000069c:	1092                	slli	ra,ra,0x24
9000069e:	8000                	0x8000
900006a0:	1104                	addi	s1,sp,160
900006a2:	8000                	0x8000
900006a4:	1104                	addi	s1,sp,160
900006a6:	8000                	0x8000
900006a8:	1104                	addi	s1,sp,160
900006aa:	8000                	0x8000
900006ac:	1104                	addi	s1,sp,160
900006ae:	8000                	0x8000
900006b0:	1104                	addi	s1,sp,160
900006b2:	8000                	0x8000
900006b4:	1104                	addi	s1,sp,160
900006b6:	8000                	0x8000
900006b8:	1104                	addi	s1,sp,160
900006ba:	8000                	0x8000
900006bc:	1104                	addi	s1,sp,160
900006be:	8000                	0x8000
900006c0:	1104                	addi	s1,sp,160
900006c2:	8000                	0x8000
900006c4:	1104                	addi	s1,sp,160
900006c6:	8000                	0x8000
900006c8:	1104                	addi	s1,sp,160
900006ca:	8000                	0x8000
900006cc:	1104                	addi	s1,sp,160
900006ce:	8000                	0x8000
900006d0:	1104                	addi	s1,sp,160
900006d2:	8000                	0x8000
900006d4:	1104                	addi	s1,sp,160
900006d6:	8000                	0x8000
900006d8:	1104                	addi	s1,sp,160
900006da:	8000                	0x8000
900006dc:	1104                	addi	s1,sp,160
900006de:	8000                	0x8000
900006e0:	1104                	addi	s1,sp,160
900006e2:	8000                	0x8000
900006e4:	1104                	addi	s1,sp,160
900006e6:	8000                	0x8000
900006e8:	1104                	addi	s1,sp,160
900006ea:	8000                	0x8000
900006ec:	1104                	addi	s1,sp,160
900006ee:	8000                	0x8000
900006f0:	1104                	addi	s1,sp,160
900006f2:	8000                	0x8000
900006f4:	1104                	addi	s1,sp,160
900006f6:	8000                	0x8000
900006f8:	1104                	addi	s1,sp,160
900006fa:	8000                	0x8000
900006fc:	1104                	addi	s1,sp,160
900006fe:	8000                	0x8000
90000700:	1104                	addi	s1,sp,160
90000702:	8000                	0x8000
90000704:	1104                	addi	s1,sp,160
90000706:	8000                	0x8000
90000708:	1104                	addi	s1,sp,160
9000070a:	8000                	0x8000
9000070c:	1104                	addi	s1,sp,160
9000070e:	8000                	0x8000
90000710:	1104                	addi	s1,sp,160
90000712:	8000                	0x8000
90000714:	1104                	addi	s1,sp,160
90000716:	8000                	0x8000
90000718:	1104                	addi	s1,sp,160
9000071a:	8000                	0x8000
9000071c:	1104                	addi	s1,sp,160
9000071e:	8000                	0x8000
90000720:	1104                	addi	s1,sp,160
90000722:	8000                	0x8000
90000724:	1104                	addi	s1,sp,160
90000726:	8000                	0x8000
90000728:	1104                	addi	s1,sp,160
9000072a:	8000                	0x8000
9000072c:	1104                	addi	s1,sp,160
9000072e:	8000                	0x8000
90000730:	1104                	addi	s1,sp,160
90000732:	8000                	0x8000
90000734:	1104                	addi	s1,sp,160
90000736:	8000                	0x8000
90000738:	1104                	addi	s1,sp,160
9000073a:	8000                	0x8000
9000073c:	1104                	addi	s1,sp,160
9000073e:	8000                	0x8000
90000740:	1104                	addi	s1,sp,160
90000742:	8000                	0x8000
90000744:	10d0                	addi	a2,sp,100
90000746:	8000                	0x8000
90000748:	0f1e                	slli	t5,t5,0x7
9000074a:	8000                	0x8000
9000074c:	1104                	addi	s1,sp,160
9000074e:	8000                	0x8000
90000750:	0f2e                	slli	t5,t5,0xb
90000752:	8000                	0x8000
90000754:	1104                	addi	s1,sp,160
90000756:	8000                	0x8000
90000758:	1104                	addi	s1,sp,160
9000075a:	8000                	0x8000
9000075c:	1104                	addi	s1,sp,160
9000075e:	8000                	0x8000
90000760:	1104                	addi	s1,sp,160
90000762:	8000                	0x8000
90000764:	1104                	addi	s1,sp,160
90000766:	8000                	0x8000
90000768:	0e92                	slli	t4,t4,0x4
9000076a:	8000                	0x8000
9000076c:	1104                	addi	s1,sp,160
9000076e:	8000                	0x8000
90000770:	1104                	addi	s1,sp,160
90000772:	8000                	0x8000
90000774:	0e9a                	slli	t4,t4,0x6
90000776:	8000                	0x8000
90000778:	10dc                	addi	a5,sp,100
9000077a:	8000                	0x8000
9000077c:	1104                	addi	s1,sp,160
9000077e:	8000                	0x8000
90000780:	1104                	addi	s1,sp,160
90000782:	8000                	0x8000
90000784:	1024                	addi	s1,sp,40
90000786:	8000                	0x8000
90000788:	1104                	addi	s1,sp,160
9000078a:	8000                	0x8000
9000078c:	108e                	slli	ra,ra,0x23
9000078e:	8000                	0x8000
90000790:	1104                	addi	s1,sp,160
90000792:	8000                	0x8000
90000794:	1104                	addi	s1,sp,160
90000796:	8000                	0x8000
90000798:	0f10                	addi	a2,sp,912
9000079a:	8000                	0x8000
	...
900007a4:	0000                	unimp
900007a6:	4024                	lw	s1,64(s0)
900007a8:	6e28                	flw	fa0,88(a2)
900007aa:	6c75                	lui	s8,0x1d
900007ac:	296c                	fld	fa1,208(a0)
900007ae:	0000                	unimp
900007b0:	0faa                	slli	t6,t6,0xa
900007b2:	f000                	fsw	fs0,32(s0)
900007b4:	0ea2                	slli	t4,t4,0x8
900007b6:	f000                	fsw	fs0,32(s0)
900007b8:	0ea2                	slli	t4,t4,0x8
900007ba:	f000                	fsw	fs0,32(s0)
900007bc:	0ea0                	addi	s0,sp,856
900007be:	f000                	fsw	fs0,32(s0)
900007c0:	0ea8                	addi	a0,sp,856
900007c2:	f000                	fsw	fs0,32(s0)
900007c4:	0ea8                	addi	a0,sp,856
900007c6:	f000                	fsw	fs0,32(s0)
900007c8:	0e6e                	slli	t3,t3,0x1b
900007ca:	f000                	fsw	fs0,32(s0)
900007cc:	0ea0                	addi	s0,sp,856
900007ce:	f000                	fsw	fs0,32(s0)
900007d0:	0ea8                	addi	a0,sp,856
900007d2:	f000                	fsw	fs0,32(s0)
900007d4:	0e6e                	slli	t3,t3,0x1b
900007d6:	f000                	fsw	fs0,32(s0)
900007d8:	0ea8                	addi	a0,sp,856
900007da:	f000                	fsw	fs0,32(s0)
900007dc:	0ea0                	addi	s0,sp,856
900007de:	f000                	fsw	fs0,32(s0)
900007e0:	0f96                	slli	t6,t6,0x5
900007e2:	f000                	fsw	fs0,32(s0)
900007e4:	0f96                	slli	t6,t6,0x5
900007e6:	f000                	fsw	fs0,32(s0)
900007e8:	0f96                	slli	t6,t6,0x5
900007ea:	f000                	fsw	fs0,32(s0)
900007ec:	0e6e                	slli	t3,t3,0x1b
900007ee:	f000                	fsw	fs0,32(s0)
900007f0:	1424                	addi	s1,sp,552
900007f2:	f000                	fsw	fs0,32(s0)
900007f4:	134e                	slli	t1,t1,0x33
900007f6:	f000                	fsw	fs0,32(s0)
900007f8:	141e                	slli	s0,s0,0x27
900007fa:	f000                	fsw	fs0,32(s0)
900007fc:	1356                	slli	t1,t1,0x35
900007fe:	f000                	fsw	fs0,32(s0)
90000800:	141e                	slli	s0,s0,0x27
90000802:	f000                	fsw	fs0,32(s0)
90000804:	131c                	addi	a5,sp,416
90000806:	f000                	fsw	fs0,32(s0)
90000808:	141e                	slli	s0,s0,0x27
9000080a:	f000                	fsw	fs0,32(s0)
9000080c:	1356                	slli	t1,t1,0x35
9000080e:	f000                	fsw	fs0,32(s0)
90000810:	134e                	slli	t1,t1,0x33
90000812:	f000                	fsw	fs0,32(s0)
90000814:	134e                	slli	t1,t1,0x33
90000816:	f000                	fsw	fs0,32(s0)
90000818:	131c                	addi	a5,sp,416
9000081a:	f000                	fsw	fs0,32(s0)
9000081c:	1356                	slli	t1,t1,0x35
9000081e:	f000                	fsw	fs0,32(s0)
90000820:	135c                	addi	a5,sp,420
90000822:	f000                	fsw	fs0,32(s0)
90000824:	135c                	addi	a5,sp,420
90000826:	f000                	fsw	fs0,32(s0)
90000828:	135c                	addi	a5,sp,420
9000082a:	f000                	fsw	fs0,32(s0)
9000082c:	131c                	addi	a5,sp,416
9000082e:	f000                	fsw	fs0,32(s0)
90000830:	130e                	slli	t1,t1,0x23
90000832:	f000                	fsw	fs0,32(s0)
90000834:	130e                	slli	t1,t1,0x23
90000836:	f000                	fsw	fs0,32(s0)
90000838:	13de                	slli	t2,t2,0x37
9000083a:	f000                	fsw	fs0,32(s0)
9000083c:	14ba                	slli	s1,s1,0x2e
9000083e:	f000                	fsw	fs0,32(s0)
90000840:	13de                	slli	t2,t2,0x37
90000842:	f000                	fsw	fs0,32(s0)
90000844:	12dc                	addi	a5,sp,356
90000846:	f000                	fsw	fs0,32(s0)
90000848:	13de                	slli	t2,t2,0x37
9000084a:	f000                	fsw	fs0,32(s0)
9000084c:	14ba                	slli	s1,s1,0x2e
9000084e:	f000                	fsw	fs0,32(s0)
90000850:	130e                	slli	t1,t1,0x23
90000852:	f000                	fsw	fs0,32(s0)
90000854:	130e                	slli	t1,t1,0x23
90000856:	f000                	fsw	fs0,32(s0)
90000858:	12dc                	addi	a5,sp,356
9000085a:	f000                	fsw	fs0,32(s0)
9000085c:	14ba                	slli	s1,s1,0x2e
9000085e:	f000                	fsw	fs0,32(s0)
90000860:	131c                	addi	a5,sp,416
90000862:	f000                	fsw	fs0,32(s0)
90000864:	131c                	addi	a5,sp,416
90000866:	f000                	fsw	fs0,32(s0)
90000868:	131c                	addi	a5,sp,416
9000086a:	f000                	fsw	fs0,32(s0)
9000086c:	12dc                	addi	a5,sp,356
9000086e:	f000                	fsw	fs0,32(s0)
90000870:	161c                	addi	a5,sp,800
90000872:	f000                	fsw	fs0,32(s0)
90000874:	156e                	slli	a0,a0,0x3b
90000876:	f000                	fsw	fs0,32(s0)
90000878:	156e                	slli	a0,a0,0x3b
9000087a:	f000                	fsw	fs0,32(s0)
9000087c:	156c                	addi	a1,sp,684
9000087e:	f000                	fsw	fs0,32(s0)
90000880:	1572                	slli	a0,a0,0x3c
90000882:	f000                	fsw	fs0,32(s0)
90000884:	1572                	slli	a0,a0,0x3c
90000886:	f000                	fsw	fs0,32(s0)
90000888:	1542                	slli	a0,a0,0x30
9000088a:	f000                	fsw	fs0,32(s0)
9000088c:	156c                	addi	a1,sp,684
9000088e:	f000                	fsw	fs0,32(s0)
90000890:	1572                	slli	a0,a0,0x3c
90000892:	f000                	fsw	fs0,32(s0)
90000894:	1542                	slli	a0,a0,0x30
90000896:	f000                	fsw	fs0,32(s0)
90000898:	1572                	slli	a0,a0,0x3c
9000089a:	f000                	fsw	fs0,32(s0)
9000089c:	156c                	addi	a1,sp,684
9000089e:	f000                	fsw	fs0,32(s0)
900008a0:	160a                	slli	a2,a2,0x22
900008a2:	f000                	fsw	fs0,32(s0)
900008a4:	160a                	slli	a2,a2,0x22
900008a6:	f000                	fsw	fs0,32(s0)
900008a8:	160a                	slli	a2,a2,0x22
900008aa:	f000                	fsw	fs0,32(s0)
900008ac:	1542                	slli	a0,a0,0x30
900008ae:	f000                	fsw	fs0,32(s0)

900008b0 <__clz_tab>:
900008b0:	0100                	addi	s0,sp,128
900008b2:	0202                	c.slli64	tp
900008b4:	03030303          	lb	t1,48(t1) # ffff8030 <_sp+0x6ffe8030>
900008b8:	0404                	addi	s1,sp,512
900008ba:	0404                	addi	s1,sp,512
900008bc:	0404                	addi	s1,sp,512
900008be:	0404                	addi	s1,sp,512
900008c0:	0505                	addi	a0,a0,1
900008c2:	0505                	addi	a0,a0,1
900008c4:	0505                	addi	a0,a0,1
900008c6:	0505                	addi	a0,a0,1
900008c8:	0505                	addi	a0,a0,1
900008ca:	0505                	addi	a0,a0,1
900008cc:	0505                	addi	a0,a0,1
900008ce:	0505                	addi	a0,a0,1
900008d0:	0606                	slli	a2,a2,0x1
900008d2:	0606                	slli	a2,a2,0x1
900008d4:	0606                	slli	a2,a2,0x1
900008d6:	0606                	slli	a2,a2,0x1
900008d8:	0606                	slli	a2,a2,0x1
900008da:	0606                	slli	a2,a2,0x1
900008dc:	0606                	slli	a2,a2,0x1
900008de:	0606                	slli	a2,a2,0x1
900008e0:	0606                	slli	a2,a2,0x1
900008e2:	0606                	slli	a2,a2,0x1
900008e4:	0606                	slli	a2,a2,0x1
900008e6:	0606                	slli	a2,a2,0x1
900008e8:	0606                	slli	a2,a2,0x1
900008ea:	0606                	slli	a2,a2,0x1
900008ec:	0606                	slli	a2,a2,0x1
900008ee:	0606                	slli	a2,a2,0x1
900008f0:	07070707          	0x7070707
900008f4:	07070707          	0x7070707
900008f8:	07070707          	0x7070707
900008fc:	07070707          	0x7070707
90000900:	07070707          	0x7070707
90000904:	07070707          	0x7070707
90000908:	07070707          	0x7070707
9000090c:	07070707          	0x7070707
90000910:	07070707          	0x7070707
90000914:	07070707          	0x7070707
90000918:	07070707          	0x7070707
9000091c:	07070707          	0x7070707
90000920:	07070707          	0x7070707
90000924:	07070707          	0x7070707
90000928:	07070707          	0x7070707
9000092c:	07070707          	0x7070707
90000930:	0808                	addi	a0,sp,16
90000932:	0808                	addi	a0,sp,16
90000934:	0808                	addi	a0,sp,16
90000936:	0808                	addi	a0,sp,16
90000938:	0808                	addi	a0,sp,16
9000093a:	0808                	addi	a0,sp,16
9000093c:	0808                	addi	a0,sp,16
9000093e:	0808                	addi	a0,sp,16
90000940:	0808                	addi	a0,sp,16
90000942:	0808                	addi	a0,sp,16
90000944:	0808                	addi	a0,sp,16
90000946:	0808                	addi	a0,sp,16
90000948:	0808                	addi	a0,sp,16
9000094a:	0808                	addi	a0,sp,16
9000094c:	0808                	addi	a0,sp,16
9000094e:	0808                	addi	a0,sp,16
90000950:	0808                	addi	a0,sp,16
90000952:	0808                	addi	a0,sp,16
90000954:	0808                	addi	a0,sp,16
90000956:	0808                	addi	a0,sp,16
90000958:	0808                	addi	a0,sp,16
9000095a:	0808                	addi	a0,sp,16
9000095c:	0808                	addi	a0,sp,16
9000095e:	0808                	addi	a0,sp,16
90000960:	0808                	addi	a0,sp,16
90000962:	0808                	addi	a0,sp,16
90000964:	0808                	addi	a0,sp,16
90000966:	0808                	addi	a0,sp,16
90000968:	0808                	addi	a0,sp,16
9000096a:	0808                	addi	a0,sp,16
9000096c:	0808                	addi	a0,sp,16
9000096e:	0808                	addi	a0,sp,16
90000970:	0808                	addi	a0,sp,16
90000972:	0808                	addi	a0,sp,16
90000974:	0808                	addi	a0,sp,16
90000976:	0808                	addi	a0,sp,16
90000978:	0808                	addi	a0,sp,16
9000097a:	0808                	addi	a0,sp,16
9000097c:	0808                	addi	a0,sp,16
9000097e:	0808                	addi	a0,sp,16
90000980:	0808                	addi	a0,sp,16
90000982:	0808                	addi	a0,sp,16
90000984:	0808                	addi	a0,sp,16
90000986:	0808                	addi	a0,sp,16
90000988:	0808                	addi	a0,sp,16
9000098a:	0808                	addi	a0,sp,16
9000098c:	0808                	addi	a0,sp,16
9000098e:	0808                	addi	a0,sp,16
90000990:	0808                	addi	a0,sp,16
90000992:	0808                	addi	a0,sp,16
90000994:	0808                	addi	a0,sp,16
90000996:	0808                	addi	a0,sp,16
90000998:	0808                	addi	a0,sp,16
9000099a:	0808                	addi	a0,sp,16
9000099c:	0808                	addi	a0,sp,16
9000099e:	0808                	addi	a0,sp,16
900009a0:	0808                	addi	a0,sp,16
900009a2:	0808                	addi	a0,sp,16
900009a4:	0808                	addi	a0,sp,16
900009a6:	0808                	addi	a0,sp,16
900009a8:	0808                	addi	a0,sp,16
900009aa:	0808                	addi	a0,sp,16
900009ac:	0808                	addi	a0,sp,16
900009ae:	0808                	addi	a0,sp,16

900009b0 <impure_data>:
	...

90000a10 <curbrk.1544>:
90000a10:	32d0                	fld	fa2,160(a3)
90000a12:	9000                	0x9000

90000a14 <_impure_ptr>:
90000a14:	09b0                	addi	a2,sp,216
90000a16:	9000                	0x9000

Disassembly of section .bss:

90000a18 <Begin_Cycle>:
90000a18:	0000                	unimp
	...

90000a1c <Begin_Instret>:
90000a1c:	0000                	unimp
	...

90000a20 <Begin_Time>:
90000a20:	0000                	unimp
	...

90000a24 <Bool_Glob>:
90000a24:	0000                	unimp
	...

90000a28 <Ch_1_Glob>:
	...

90000a29 <Ch_2_Glob>:
90000a29:	0000                	unimp
	...

90000a2c <DMIPS_MHZ>:
90000a2c:	0000                	unimp
	...

90000a30 <Dhrystones_Per_Second>:
90000a30:	0000                	unimp
	...

90000a34 <End_Cycle>:
90000a34:	0000                	unimp
	...

90000a38 <End_Instret>:
90000a38:	0000                	unimp
	...

90000a3c <End_Time>:
90000a3c:	0000                	unimp
	...

90000a40 <Instret>:
90000a40:	0000                	unimp
	...

90000a44 <Int_Glob>:
90000a44:	0000                	unimp
	...

90000a48 <Microseconds>:
90000a48:	0000                	unimp
	...

90000a4c <Next_Ptr_Glob>:
90000a4c:	0000                	unimp
	...

90000a50 <Ptr_Glob>:
90000a50:	0000                	unimp
	...

90000a54 <Reg>:
90000a54:	0000                	unimp
	...

90000a58 <User_Cycle>:
90000a58:	0000                	unimp
	...

90000a5c <User_Instret>:
90000a5c:	0000                	unimp
	...

90000a60 <User_Time>:
90000a60:	0000                	unimp
	...

90000a64 <_global_atexit>:
90000a64:	0000                	unimp
	...

90000a68 <Arr_1_Glob>:
	...

90000b30 <Arr_2_Glob>:
	...

90003240 <_global_atexit0>:
	...

900032cc <errno>:
900032cc:	0000                	unimp
	...

Disassembly of section .stack:

9000f800 <_heap_end>:
	...

Disassembly of section .comment:

00000000 <.comment>:
   0:	3a434347          	fmsub.d	ft6,ft6,ft4,ft7,rmm
   4:	2820                	fld	fs0,80(s0)
   6:	5078                	lw	a4,100(s0)
   8:	6361                	lui	t1,0x18
   a:	4e47206b          	0x4e47206b
   e:	2055                	jal	b2 <__stack_size-0x74e>
  10:	4952                	lw	s2,20(sp)
  12:	562d4353          	0x562d4353
  16:	4520                	lw	s0,72(a0)
  18:	626d                	lui	tp,0x1b
  1a:	6465                	lui	s0,0x19
  1c:	6564                	flw	fs1,76(a0)
  1e:	2064                	fld	fs1,192(s0)
  20:	2c434347          	0x2c434347
  24:	3620                	fld	fs0,104(a2)
  26:	2d34                	fld	fa3,88(a0)
  28:	6962                	flw	fs2,24(sp)
  2a:	2974                	fld	fa3,208(a0)
  2c:	3820                	fld	fs0,112(s0)
  2e:	332e                	fld	ft6,232(sp)
  30:	302e                	fld	ft0,232(sp)
	...

Disassembly of section .debug_frame:

00000000 <.debug_frame>:
   0:	000c                	0xc
   2:	0000                	unimp
   4:	ffff                	0xffff
   6:	ffff                	0xffff
   8:	0001                	nop
   a:	7c01                	lui	s8,0xfffe0
   c:	0d01                	addi	s10,s10,0
   e:	0002                	c.slli64	zero
  10:	003c                	addi	a5,sp,8
  12:	0000                	unimp
  14:	0000                	unimp
  16:	0000                	unimp
  18:	1556                	slli	a0,a0,0x35
  1a:	8000                	0x8000
  1c:	04ac                	addi	a1,sp,584
  1e:	0000                	unimp
  20:	0e42                	slli	t3,t3,0x10
  22:	4a40                	lw	s0,20(a2)
  24:	0288                	addi	a0,sp,320
  26:	0492                	slli	s1,s1,0x4
  28:	0694                	addi	a3,sp,832
  2a:	8150                	0x8150
  2c:	8901                	andi	a0,a0,0
  2e:	95059303          	lh	t1,-1712(a1)
  32:	97089607          	0x97089607
  36:	0209                	addi	tp,tp,2
  38:	0ac8                	addi	a0,sp,340
  3a:	42c1                	li	t0,16
  3c:	44c8                	lw	a0,12(s1)
  3e:	42d2                	lw	t0,20(sp)
  40:	42c9                	li	t0,18
  42:	42d442d3          	0x42d442d3
  46:	42d5                	li	t0,21
  48:	42d6                	lw	t0,84(sp)
  4a:	000e42d7          	0xe42d7
  4e:	0b42                	slli	s6,s6,0x10
  50:	000c                	0xc
  52:	0000                	unimp
  54:	ffff                	0xffff
  56:	ffff                	0xffff
  58:	0001                	nop
  5a:	7c01                	lui	s8,0xfffe0
  5c:	0d01                	addi	s10,s10,0
  5e:	0002                	c.slli64	zero
  60:	000c                	0xc
  62:	0000                	unimp
  64:	0050                	addi	a2,sp,4
  66:	0000                	unimp
  68:	1a02                	slli	s4,s4,0x20
  6a:	8000                	0x8000
  6c:	005c                	addi	a5,sp,4
  6e:	0000                	unimp
  70:	000c                	0xc
  72:	0000                	unimp
  74:	ffff                	0xffff
  76:	ffff                	0xffff
  78:	0001                	nop
  7a:	7c01                	lui	s8,0xfffe0
  7c:	0d01                	addi	s10,s10,0
  7e:	0002                	c.slli64	zero
  80:	003c                	addi	a5,sp,8
  82:	0000                	unimp
  84:	0070                	addi	a2,sp,12
  86:	0000                	unimp
  88:	1a5e                	slli	s4,s4,0x37
  8a:	8000                	0x8000
  8c:	02ae                	slli	t0,t0,0xb
  8e:	0000                	unimp
  90:	0e42                	slli	t3,t3,0x10
  92:	4a40                	lw	s0,20(a2)
  94:	0492                	slli	s1,s1,0x4
  96:	0795                	addi	a5,a5,5
  98:	81540997          	auipc	s3,0x81540
  9c:	8801                	andi	s0,s0,0
  9e:	8902                	jr	s2
  a0:	94059303          	lh	t1,-1728(a1)
  a4:	9606                	add	a2,a2,ra
  a6:	0208                	addi	a0,sp,256
  a8:	0a9e                	slli	s5,s5,0x7
  aa:	42c1                	li	t0,16
  ac:	50c8                	lw	a0,36(s1)
  ae:	42c9                	li	t0,18
  b0:	42d2                	lw	t0,20(sp)
  b2:	42d442d3          	0x42d442d3
  b6:	42d5                	li	t0,21
  b8:	42d6                	lw	t0,84(sp)
  ba:	000e42d7          	0xe42d7
  be:	0b42                	slli	s6,s6,0x10
  c0:	000c                	0xc
  c2:	0000                	unimp
  c4:	ffff                	0xffff
  c6:	ffff                	0xffff
  c8:	0001                	nop
  ca:	7c01                	lui	s8,0xfffe0
  cc:	0d01                	addi	s10,s10,0
  ce:	0002                	c.slli64	zero
  d0:	003c                	addi	a5,sp,8
  d2:	0000                	unimp
  d4:	00c0                	addi	s0,sp,68
  d6:	0000                	unimp
  d8:	1d0c                	addi	a1,sp,688
  da:	8000                	0x8000
  dc:	0290                	addi	a2,sp,320
  de:	0000                	unimp
  e0:	0e42                	slli	t3,t3,0x10
  e2:	4230                	lw	a2,64(a2)
  e4:	0288                	addi	a0,sp,320
  e6:	9348                	0x9348
  e8:	9405                	srai	s0,s0,0x21
  ea:	4e06                	lw	t3,64(sp)
  ec:	0181                	addi	gp,gp,0
  ee:	0389                	addi	t2,t2,2
  f0:	0492                	slli	s1,s1,0x4
  f2:	0795                	addi	a5,a5,5
  f4:	0896                	slli	a7,a7,0x5
  f6:	9802                	jalr	a6
  f8:	c10a                	sw	sp,128(sp)
  fa:	c842                	sw	a6,16(sp)
  fc:	c94c                	sw	a1,20(a0)
  fe:	d242                	sw	a6,36(sp)
 100:	d342                	sw	a6,164(sp)
 102:	d442                	sw	a6,40(sp)
 104:	d542                	sw	a6,168(sp)
 106:	d642                	sw	a6,44(sp)
 108:	0e44                	addi	s1,sp,788
 10a:	4200                	lw	s0,0(a2)
 10c:	0000000b          	0xb
 110:	000c                	0xc
 112:	0000                	unimp
 114:	ffff                	0xffff
 116:	ffff                	0xffff
 118:	0001                	nop
 11a:	7c01                	lui	s8,0xfffe0
 11c:	0d01                	addi	s10,s10,0
 11e:	0002                	c.slli64	zero
 120:	0024                	addi	s1,sp,8
 122:	0000                	unimp
 124:	0110                	addi	a2,sp,128
 126:	0000                	unimp
 128:	1f9c                	addi	a5,sp,1008
 12a:	8000                	0x8000
 12c:	00c6                	slli	ra,ra,0x11
 12e:	0000                	unimp
 130:	0e42                	slli	t3,t3,0x10
 132:	4610                	lw	a2,8(a2)
 134:	0181                	addi	gp,gp,0
 136:	0288                	addi	a0,sp,320
 138:	0389                	addi	t2,t2,2
 13a:	4802                	lw	a6,0(sp)
 13c:	c10a                	sw	sp,128(sp)
 13e:	c842                	sw	a6,16(sp)
 140:	c94a                	sw	s2,144(sp)
 142:	0e42                	slli	t3,t3,0x10
 144:	4200                	lw	s0,0(a2)
 146:	000c000b          	0xc000b
 14a:	0000                	unimp
 14c:	ffff                	0xffff
 14e:	ffff                	0xffff
 150:	0001                	nop
 152:	7c01                	lui	s8,0xfffe0
 154:	0d01                	addi	s10,s10,0
 156:	0002                	c.slli64	zero
 158:	0024                	addi	s1,sp,8
 15a:	0000                	unimp
 15c:	0148                	addi	a0,sp,132
 15e:	0000                	unimp
 160:	2062                	fld	ft0,24(sp)
 162:	8000                	0x8000
 164:	00ac                	addi	a1,sp,72
 166:	0000                	unimp
 168:	0e4a                	slli	t3,t3,0x12
 16a:	4810                	lw	a2,16(s0)
 16c:	0288                	addi	a0,sp,320
 16e:	0389                	addi	t2,t2,2
 170:	8146                	mv	sp,a7
 172:	6601                	0x6601
 174:	c10a                	sw	sp,128(sp)
 176:	c844                	sw	s1,20(s0)
 178:	c942                	sw	a6,144(sp)
 17a:	0e44                	addi	s1,sp,788
 17c:	4200                	lw	s0,0(a2)
 17e:	000c000b          	0xc000b
 182:	0000                	unimp
 184:	ffff                	0xffff
 186:	ffff                	0xffff
 188:	0001                	nop
 18a:	7c01                	lui	s8,0xfffe0
 18c:	0d01                	addi	s10,s10,0
 18e:	0002                	c.slli64	zero
 190:	000c                	0xc
 192:	0000                	unimp
 194:	0180                	addi	s0,sp,192
 196:	0000                	unimp
 198:	210e                	fld	ft2,192(sp)
 19a:	8000                	0x8000
 19c:	0076                	c.slli	zero,0x1d
 19e:	0000                	unimp
 1a0:	000c                	0xc
 1a2:	0000                	unimp
 1a4:	ffff                	0xffff
 1a6:	ffff                	0xffff
 1a8:	0001                	nop
 1aa:	7c01                	lui	s8,0xfffe0
 1ac:	0d01                	addi	s10,s10,0
 1ae:	0002                	c.slli64	zero
 1b0:	000c                	0xc
 1b2:	0000                	unimp
 1b4:	01a0                	addi	s0,sp,200
 1b6:	0000                	unimp
 1b8:	2184                	fld	fs1,0(a1)
 1ba:	8000                	0x8000
 1bc:	000a                	c.slli	zero,0x2
 1be:	0000                	unimp
 1c0:	000c                	0xc
 1c2:	0000                	unimp
 1c4:	ffff                	0xffff
 1c6:	ffff                	0xffff
 1c8:	0001                	nop
 1ca:	7c01                	lui	s8,0xfffe0
 1cc:	0d01                	addi	s10,s10,0
 1ce:	0002                	c.slli64	zero
 1d0:	0014                	0x14
 1d2:	0000                	unimp
 1d4:	01c0                	addi	s0,sp,196
 1d6:	0000                	unimp
 1d8:	218e                	fld	ft3,192(sp)
 1da:	8000                	0x8000
 1dc:	002c                	addi	a1,sp,8
 1de:	0000                	unimp
 1e0:	0e42                	slli	t3,t3,0x10
 1e2:	4410                	lw	a2,8(s0)
 1e4:	0288                	addi	a0,sp,320
 1e6:	0181                	addi	gp,gp,0
 1e8:	000c                	0xc
 1ea:	0000                	unimp
 1ec:	ffff                	0xffff
 1ee:	ffff                	0xffff
 1f0:	0001                	nop
 1f2:	7c01                	lui	s8,0xfffe0
 1f4:	0d01                	addi	s10,s10,0
 1f6:	0002                	c.slli64	zero
 1f8:	0024                	addi	s1,sp,8
 1fa:	0000                	unimp
 1fc:	01e8                	addi	a0,sp,204
 1fe:	0000                	unimp
 200:	21ba                	fld	ft3,392(sp)
 202:	8000                	0x8000
 204:	0038                	addi	a4,sp,8
 206:	0000                	unimp
 208:	0e42                	slli	t3,t3,0x10
 20a:	4a10                	lw	a2,16(a2)
 20c:	0288                	addi	a0,sp,320
 20e:	894e                	mv	s2,s3
 210:	48018103          	lb	sp,1152(gp) # 90001690 <__global_pointer$+0x480>
 214:	c10a                	sw	sp,128(sp)
 216:	c842                	sw	a6,16(sp)
 218:	c942                	sw	a6,144(sp)
 21a:	0e42                	slli	t3,t3,0x10
 21c:	4200                	lw	s0,0(a2)
 21e:	000c000b          	0xc000b
 222:	0000                	unimp
 224:	ffff                	0xffff
 226:	ffff                	0xffff
 228:	0001                	nop
 22a:	7c01                	lui	s8,0xfffe0
 22c:	0d01                	addi	s10,s10,0
 22e:	0002                	c.slli64	zero
 230:	0028                	addi	a0,sp,8
 232:	0000                	unimp
 234:	0220                	addi	s0,sp,264
 236:	0000                	unimp
 238:	21f2                	fld	ft3,280(sp)
 23a:	8000                	0x8000
 23c:	006a                	c.slli	zero,0x1a
 23e:	0000                	unimp
 240:	0e42                	slli	t3,t3,0x10
 242:	4a10                	lw	a2,16(a2)
 244:	0288                	addi	a0,sp,320
 246:	8950                	0x8950
 248:	81049203          	lh	tp,-2032(s1)
 24c:	6801                	0x6801
 24e:	c10a                	sw	sp,128(sp)
 250:	c842                	sw	a6,16(sp)
 252:	c942                	sw	a6,144(sp)
 254:	d242                	sw	a6,36(sp)
 256:	0e42                	slli	t3,t3,0x10
 258:	4200                	lw	s0,0(a2)
 25a:	000c000b          	0xc000b
 25e:	0000                	unimp
 260:	ffff                	0xffff
 262:	ffff                	0xffff
 264:	0001                	nop
 266:	7c01                	lui	s8,0xfffe0
 268:	0d01                	addi	s10,s10,0
 26a:	0002                	c.slli64	zero
 26c:	000c                	0xc
 26e:	0000                	unimp
 270:	025c                	addi	a5,sp,260
 272:	0000                	unimp
 274:	228a                	fld	ft5,128(sp)
 276:	8000                	0x8000
 278:	0018                	0x18
 27a:	0000                	unimp
 27c:	000c                	0xc
 27e:	0000                	unimp
 280:	ffff                	0xffff
 282:	ffff                	0xffff
 284:	0001                	nop
 286:	7c01                	lui	s8,0xfffe0
 288:	0d01                	addi	s10,s10,0
 28a:	0002                	c.slli64	zero
 28c:	000c                	0xc
 28e:	0000                	unimp
 290:	027c                	addi	a5,sp,268
 292:	0000                	unimp
 294:	22a2                	fld	ft5,8(sp)
 296:	8000                	0x8000
 298:	0004                	0x4
 29a:	0000                	unimp
 29c:	000c                	0xc
 29e:	0000                	unimp
 2a0:	ffff                	0xffff
 2a2:	ffff                	0xffff
 2a4:	0001                	nop
 2a6:	7c01                	lui	s8,0xfffe0
 2a8:	0d01                	addi	s10,s10,0
 2aa:	0002                	c.slli64	zero
 2ac:	000c                	0xc
 2ae:	0000                	unimp
 2b0:	029c                	addi	a5,sp,320
 2b2:	0000                	unimp
 2b4:	22a6                	fld	ft5,72(sp)
 2b6:	8000                	0x8000
 2b8:	000e                	c.slli	zero,0x3
 2ba:	0000                	unimp
 2bc:	000c                	0xc
 2be:	0000                	unimp
 2c0:	ffff                	0xffff
 2c2:	ffff                	0xffff
 2c4:	0001                	nop
 2c6:	7c01                	lui	s8,0xfffe0
 2c8:	0d01                	addi	s10,s10,0
 2ca:	0002                	c.slli64	zero
 2cc:	000c                	0xc
 2ce:	0000                	unimp
 2d0:	02bc                	addi	a5,sp,328
 2d2:	0000                	unimp
 2d4:	22b4                	fld	fa3,64(a3)
 2d6:	8000                	0x8000
 2d8:	0012                	c.slli	zero,0x4
 2da:	0000                	unimp
 2dc:	000c                	0xc
 2de:	0000                	unimp
 2e0:	ffff                	0xffff
 2e2:	ffff                	0xffff
 2e4:	0001                	nop
 2e6:	7c01                	lui	s8,0xfffe0
 2e8:	0d01                	addi	s10,s10,0
 2ea:	0002                	c.slli64	zero
 2ec:	001c                	0x1c
 2ee:	0000                	unimp
 2f0:	02dc                	addi	a5,sp,324
 2f2:	0000                	unimp
 2f4:	22c6                	fld	ft5,80(sp)
 2f6:	8000                	0x8000
 2f8:	0036                	c.slli	zero,0xd
 2fa:	0000                	unimp
 2fc:	0e42                	slli	t3,t3,0x10
 2fe:	4210                	lw	a2,0(a2)
 300:	0288                	addi	a0,sp,320
 302:	8152                	mv	sp,s4
 304:	5a01                	li	s4,-32
 306:	42c1                	li	t0,16
 308:	42c8                	lw	a0,4(a3)
 30a:	000e                	c.slli	zero,0x3
 30c:	000c                	0xc
 30e:	0000                	unimp
 310:	ffff                	0xffff
 312:	ffff                	0xffff
 314:	0001                	nop
 316:	7c01                	lui	s8,0xfffe0
 318:	0d01                	addi	s10,s10,0
 31a:	0002                	c.slli64	zero
 31c:	000c                	0xc
 31e:	0000                	unimp
 320:	030c                	addi	a1,sp,384
 322:	0000                	unimp
 324:	22fc                	fld	fa5,192(a3)
 326:	8000                	0x8000
 328:	0084                	addi	s1,sp,64
 32a:	0000                	unimp
 32c:	000c                	0xc
 32e:	0000                	unimp
 330:	ffff                	0xffff
 332:	ffff                	0xffff
 334:	0001                	nop
 336:	7c01                	lui	s8,0xfffe0
 338:	0d01                	addi	s10,s10,0
 33a:	0002                	c.slli64	zero
 33c:	000c                	0xc
 33e:	0000                	unimp
 340:	032c                	addi	a1,sp,392
 342:	0000                	unimp
 344:	072c                	addi	a1,sp,904
 346:	8000                	0x8000
 348:	0018                	0x18
 34a:	0000                	unimp
 34c:	0040                	addi	s0,sp,4
 34e:	0000                	unimp
 350:	032c                	addi	a1,sp,392
 352:	0000                	unimp
 354:	2380                	fld	fs0,0(a5)
 356:	8000                	0x8000
 358:	00c4                	addi	s1,sp,68
 35a:	0000                	unimp
 35c:	0e42                	slli	t3,t3,0x10
 35e:	5430                	lw	a2,104(s0)
 360:	0694                	addi	a3,sp,832
 362:	0795                	addi	a5,a5,5
 364:	0896                	slli	a7,a7,0x5
 366:	01810997          	auipc	s3,0x1810
 36a:	0288                	addi	a0,sp,320
 36c:	0389                	addi	t2,t2,2
 36e:	0492                	slli	s1,s1,0x4
 370:	0a980593          	addi	a1,a6,169 # ffff10a9 <_sp+0x6ffe10a9>
 374:	0a64                	addi	s1,sp,284
 376:	42c1                	li	t0,16
 378:	42c8                	lw	a0,4(a3)
 37a:	42c9                	li	t0,18
 37c:	42d2                	lw	t0,20(sp)
 37e:	42d442d3          	0x42d442d3
 382:	42d5                	li	t0,21
 384:	42d6                	lw	t0,84(sp)
 386:	42d842d7          	0x42d842d7
 38a:	000e                	c.slli	zero,0x3
 38c:	0b42                	slli	s6,s6,0x10
 38e:	0000                	unimp
 390:	000c                	0xc
 392:	0000                	unimp
 394:	ffff                	0xffff
 396:	ffff                	0xffff
 398:	0001                	nop
 39a:	7c01                	lui	s8,0xfffe0
 39c:	0d01                	addi	s10,s10,0
 39e:	0002                	c.slli64	zero
 3a0:	0020                	addi	s0,sp,8
 3a2:	0000                	unimp
 3a4:	0390                	addi	a2,sp,448
	...
 3ae:	0000                	unimp
 3b0:	0e42                	slli	t3,t3,0x10
 3b2:	4210                	lw	a2,0(a2)
 3b4:	0288                	addi	a0,sp,320
 3b6:	8948                	0x8948
 3b8:	40018103          	lb	sp,1024(gp) # 90001610 <__global_pointer$+0x400>
 3bc:	42c8                	lw	a0,4(a3)
 3be:	44c1                	li	s1,16
 3c0:	42c9                	li	t0,18
 3c2:	000e                	c.slli	zero,0x3
 3c4:	0038                	addi	a4,sp,8
 3c6:	0000                	unimp
 3c8:	0390                	addi	a2,sp,448
	...
 3d2:	0000                	unimp
 3d4:	0e40                	addi	s0,sp,788
 3d6:	4a20                	lw	s0,80(a2)
 3d8:	0288                	addi	a0,sp,320
 3da:	0181                	addi	gp,gp,0
 3dc:	0389                	addi	t2,t2,2
 3de:	0492                	slli	s1,s1,0x4
 3e0:	00020593          	mv	a1,tp
 3e4:	c80a                	sw	sp,16(sp)
 3e6:	c142                	sw	a6,128(sp)
 3e8:	c942                	sw	a6,144(sp)
 3ea:	d242                	sw	a6,36(sp)
 3ec:	d342                	sw	a6,164(sp)
 3ee:	0e42                	slli	t3,t3,0x10
 3f0:	4000                	lw	s0,0(s0)
 3f2:	42c1400b          	0x42c1400b
 3f6:	42c8                	lw	a0,4(a3)
 3f8:	42c9                	li	t0,18
 3fa:	42d2                	lw	t0,20(sp)
 3fc:	000e42d3          	fadd.s	ft5,ft8,ft0,rmm
 400:	000c                	0xc
 402:	0000                	unimp
 404:	ffff                	0xffff
 406:	ffff                	0xffff
 408:	0001                	nop
 40a:	7c01                	lui	s8,0xfffe0
 40c:	0d01                	addi	s10,s10,0
 40e:	0002                	c.slli64	zero
 410:	001c                	0x1c
 412:	0000                	unimp
 414:	0400                	addi	s0,sp,512
 416:	0000                	unimp
 418:	2444                	fld	fs1,136(s0)
 41a:	8000                	0x8000
 41c:	0032                	c.slli	zero,0xc
 41e:	0000                	unimp
 420:	0e42                	slli	t3,t3,0x10
 422:	4210                	lw	a2,0(a2)
 424:	0288                	addi	a0,sp,320
 426:	814e                	mv	sp,s3
 428:	5a01                	li	s4,-32
 42a:	42c1                	li	t0,16
 42c:	42c8                	lw	a0,4(a3)
 42e:	000e                	c.slli	zero,0x3
