
newcoremark:     file format elf32-littleriscv


Disassembly of section .init:

80000000 <_start>:
80000000:	30047073          	csrci	mstatus,8
80000004:	10001197          	auipc	gp,0x10001
80000008:	44c18193          	addi	gp,gp,1100 # 90001450 <__global_pointer$>
8000000c:	10010117          	auipc	sp,0x10010
80000010:	ff410113          	addi	sp,sp,-12 # 90010000 <_sp>
80000014:	00000517          	auipc	a0,0x0
80000018:	08c50513          	addi	a0,a0,140 # 800000a0 <_itcm>
8000001c:	00000597          	auipc	a1,0x0
80000020:	08458593          	addi	a1,a1,132 # 800000a0 <_itcm>
80000024:	02b50063          	beq	a0,a1,80000044 <_start+0x44>
80000028:	00009617          	auipc	a2,0x9
8000002c:	11060613          	addi	a2,a2,272 # 80009138 <_eitcm>
80000030:	00c5fa63          	bgeu	a1,a2,80000044 <_start+0x44>
80000034:	00052283          	lw	t0,0(a0)
80000038:	0055a023          	sw	t0,0(a1)
8000003c:	0511                	addi	a0,a0,4
8000003e:	0591                	addi	a1,a1,4
80000040:	fec5eae3          	bltu	a1,a2,80000034 <_start+0x34>
80000044:	00009517          	auipc	a0,0x9
80000048:	0f850513          	addi	a0,a0,248 # 8000913c <__fini_array_end>
8000004c:	10000597          	auipc	a1,0x10000
80000050:	fb458593          	addi	a1,a1,-76 # 90000000 <_data>
80000054:	81018613          	addi	a2,gp,-2032 # 90000c60 <seed1_volatile>
80000058:	00c5fa63          	bgeu	a1,a2,8000006c <_start+0x6c>
8000005c:	00052283          	lw	t0,0(a0)
80000060:	0055a023          	sw	t0,0(a1)
80000064:	0511                	addi	a0,a0,4
80000066:	0591                	addi	a1,a1,4
80000068:	fec5eae3          	bltu	a1,a2,8000005c <_start+0x5c>
8000006c:	81018513          	addi	a0,gp,-2032 # 90000c60 <seed1_volatile>
80000070:	8d018593          	addi	a1,gp,-1840 # 90000d20 <_end>
80000074:	00b57763          	bgeu	a0,a1,80000082 <_start+0x82>
80000078:	00052023          	sw	zero,0(a0)
8000007c:	0511                	addi	a0,a0,4
8000007e:	feb56de3          	bltu	a0,a1,80000078 <_start+0x78>
80000082:	00005517          	auipc	a0,0x5
80000086:	9fa50513          	addi	a0,a0,-1542 # 80004a7c <__libc_fini_array>
8000008a:	1b9040ef          	jal	ra,80004a42 <atexit>
8000008e:	227040ef          	jal	ra,80004ab4 <__libc_init_array>
80000092:	4501                	li	a0,0
80000094:	4581                	li	a1,0
80000096:	2029                	jal	800000a0 <_itcm>
80000098:	1b70406f          	j	80004a4e <exit>
8000009c:	a001                	j	8000009c <_start+0x9c>

Disassembly of section .ilalign:

8000009e <_itcm-0x2>:
	...

Disassembly of section .text:

800000a0 <main>:
800000a0:	7159                	addi	sp,sp,-112
800000a2:	d686                	sw	ra,108(sp)
800000a4:	d4a2                	sw	s0,104(sp)
800000a6:	d2a6                	sw	s1,100(sp)
800000a8:	d0ca                	sw	s2,96(sp)
800000aa:	cece                	sw	s3,92(sp)
800000ac:	ccd2                	sw	s4,88(sp)
800000ae:	cad6                	sw	s5,84(sp)
800000b0:	c8da                	sw	s6,80(sp)
800000b2:	c6de                	sw	s7,76(sp)
800000b4:	4505                	li	a0,1
800000b6:	81010113          	addi	sp,sp,-2032
800000ba:	3de030ef          	jal	ra,80003498 <get_seed_32>
800000be:	6705                	lui	a4,0x1
800000c0:	82070293          	addi	t0,a4,-2016 # 820 <__stack_size+0x20>
800000c4:	0814                	addi	a3,sp,16
800000c6:	77fd                	lui	a5,0xfffff
800000c8:	00d28333          	add	t1,t0,a3
800000cc:	00f303b3          	add	t2,t1,a5
800000d0:	7ea39423          	sh	a0,2024(t2)
800000d4:	4509                	li	a0,2
800000d6:	c61e                	sw	t2,12(sp)
800000d8:	3c0030ef          	jal	ra,80003498 <get_seed_32>
800000dc:	4432                	lw	s0,12(sp)
800000de:	7ea41523          	sh	a0,2026(s0)
800000e2:	450d                	li	a0,3
800000e4:	3b4030ef          	jal	ra,80003498 <get_seed_32>
800000e8:	44b2                	lw	s1,12(sp)
800000ea:	7ea49623          	sh	a0,2028(s1)
800000ee:	4511                	li	a0,4
800000f0:	3a8030ef          	jal	ra,80003498 <get_seed_32>
800000f4:	da2a                	sw	a0,52(sp)
800000f6:	4515                	li	a0,5
800000f8:	3a0030ef          	jal	ra,80003498 <get_seed_32>
800000fc:	60050f63          	beqz	a0,8000071a <main+0x67a>
80000100:	dc2a                	sw	a0,56(sp)
80000102:	6585                	lui	a1,0x1
80000104:	82058613          	addi	a2,a1,-2016 # 820 <__stack_size+0x20>
80000108:	01010813          	addi	a6,sp,16
8000010c:	757d                	lui	a0,0xfffff
8000010e:	010608b3          	add	a7,a2,a6
80000112:	00a88933          	add	s2,a7,a0
80000116:	7e892983          	lw	s3,2024(s2)
8000011a:	c64a                	sw	s2,12(sp)
8000011c:	54098863          	beqz	s3,8000066c <main+0x5cc>
80000120:	4a05                	li	s4,1
80000122:	03499363          	bne	s3,s4,80000148 <main+0xa8>
80000126:	4ab2                	lw	s5,12(sp)
80000128:	7eca9b03          	lh	s6,2028(s5)
8000012c:	000b1e63          	bnez	s6,80000148 <main+0xa8>
80000130:	4eb2                	lw	t4,12(sp)
80000132:	34153bb7          	lui	s7,0x34153
80000136:	415b8e13          	addi	t3,s7,1045 # 34153415 <__stack_size+0x34152c15>
8000013a:	06600f13          	li	t5,102
8000013e:	7fcea423          	sw	t3,2024(t4)
80000142:	7fee9623          	sh	t5,2028(t4)
80000146:	0001                	nop
80000148:	5362                	lw	t1,56(sp)
8000014a:	6405                	lui	s0,0x1
8000014c:	82040593          	addi	a1,s0,-2016 # 820 <__stack_size+0x20>
80000150:	0804                	addi	s1,sp,16
80000152:	73fd                	lui	t2,0xfffff
80000154:	00958633          	add	a2,a1,s1
80000158:	00760833          	add	a6,a2,t2
8000015c:	00237913          	andi	s2,t1,2
80000160:	06010893          	addi	a7,sp,96
80000164:	00137693          	andi	a3,t1,1
80000168:	01203533          	snez	a0,s2
8000016c:	c642                	sw	a6,12(sp)
8000016e:	7f182823          	sw	a7,2032(a6)
80000172:	04011c23          	sh	zero,88(sp)
80000176:	00437993          	andi	s3,t1,4
8000017a:	00a68a33          	add	s4,a3,a0
8000017e:	00098863          	beqz	s3,8000018e <main+0xee>
80000182:	001a0a93          	addi	s5,s4,1
80000186:	010a9b13          	slli	s6,s5,0x10
8000018a:	010b5a13          	srli	s4,s6,0x10
8000018e:	7d000b93          	li	s7,2000
80000192:	034bd533          	divu	a0,s7,s4
80000196:	7e7d                	lui	t3,0xfffff
80000198:	4601                	li	a2,0
8000019a:	d82a                	sw	a0,48(sp)
8000019c:	58069263          	bnez	a3,80000720 <main+0x680>
800001a0:	5e091063          	bnez	s2,80000780 <main+0x6e0>
800001a4:	5a099863          	bnez	s3,80000754 <main+0x6b4>
800001a8:	4c069e63          	bnez	a3,80000684 <main+0x5e4>
800001ac:	50091363          	bnez	s2,800006b2 <main+0x612>
800001b0:	00437e13          	andi	t3,t1,4
800001b4:	020e0363          	beqz	t3,800001da <main+0x13a>
800001b8:	6f05                	lui	t5,0x1
800001ba:	820f0f93          	addi	t6,t5,-2016 # 820 <__stack_size+0x20>
800001be:	081c                	addi	a5,sp,16
800001c0:	7efd                	lui	t4,0xfffff
800001c2:	00ff82b3          	add	t0,t6,a5
800001c6:	01d28733          	add	a4,t0,t4
800001ca:	7fc72603          	lw	a2,2044(a4)
800001ce:	7e871583          	lh	a1,2024(a4)
800001d2:	5542                	lw	a0,48(sp)
800001d4:	c63a                	sw	a4,12(sp)
800001d6:	50b020ef          	jal	ra,80002ee0 <core_init_state>
800001da:	53d2                	lw	t2,52(sp)
800001dc:	1e039663          	bnez	t2,800003c8 <main+0x328>
800001e0:	90000337          	lui	t1,0x90000
800001e4:	6405                	lui	s0,0x1
800001e6:	82040593          	addi	a1,s0,-2016 # 820 <__stack_size+0x20>
800001ea:	76fd                	lui	a3,0xfffff
800001ec:	0808                	addi	a0,sp,16
800001ee:	01032a03          	lw	s4,16(t1) # 90000010 <_sp+0xffff0010>
800001f2:	01432a83          	lw	s5,20(t1)
800001f6:	4905                	li	s2,1
800001f8:	7e868093          	addi	ra,a3,2024 # fffff7e8 <_sp+0x6ffef7e8>
800001fc:	00a58633          	add	a2,a1,a0
80000200:	da4a                	sw	s2,52(sp)
80000202:	00160433          	add	s0,a2,ra
80000206:	0001                	nop
80000208:	5852                	lw	a6,52(sp)
8000020a:	4481                	li	s1,0
8000020c:	00281893          	slli	a7,a6,0x2
80000210:	01088b33          	add	s6,a7,a6
80000214:	001b1b93          	slli	s7,s6,0x1
80000218:	da5e                	sw	s7,52(sp)
8000021a:	447030ef          	jal	ra,80003e60 <start_time>
8000021e:	59d2                	lw	s3,52(sp)
80000220:	c882                	sw	zero,80(sp)
80000222:	ca82                	sw	zero,84(sp)
80000224:	16098563          	beqz	s3,8000038e <main+0x2ee>
80000228:	0039fe13          	andi	t3,s3,3
8000022c:	0a0e0063          	beqz	t3,800002cc <main+0x22c>
80000230:	4e85                	li	t4,1
80000232:	07de0363          	beq	t3,t4,80000298 <main+0x1f8>
80000236:	4f09                	li	t5,2
80000238:	03ee0963          	beq	t3,t5,8000026a <main+0x1ca>
8000023c:	4585                	li	a1,1
8000023e:	8522                	mv	a0,s0
80000240:	700000ef          	jal	ra,80000940 <core_bench_list>
80000244:	05015583          	lhu	a1,80(sp)
80000248:	4485                	li	s1,1
8000024a:	2a2030ef          	jal	ra,800034ec <crcu16>
8000024e:	04a11823          	sh	a0,80(sp)
80000252:	55fd                	li	a1,-1
80000254:	8522                	mv	a0,s0
80000256:	6ea000ef          	jal	ra,80000940 <core_bench_list>
8000025a:	05015583          	lhu	a1,80(sp)
8000025e:	28e030ef          	jal	ra,800034ec <crcu16>
80000262:	04a11823          	sh	a0,80(sp)
80000266:	04a11923          	sh	a0,82(sp)
8000026a:	4585                	li	a1,1
8000026c:	8522                	mv	a0,s0
8000026e:	6d2000ef          	jal	ra,80000940 <core_bench_list>
80000272:	05015583          	lhu	a1,80(sp)
80000276:	276030ef          	jal	ra,800034ec <crcu16>
8000027a:	04a11823          	sh	a0,80(sp)
8000027e:	55fd                	li	a1,-1
80000280:	8522                	mv	a0,s0
80000282:	6be000ef          	jal	ra,80000940 <core_bench_list>
80000286:	05015583          	lhu	a1,80(sp)
8000028a:	262030ef          	jal	ra,800034ec <crcu16>
8000028e:	04a11823          	sh	a0,80(sp)
80000292:	4a048e63          	beqz	s1,8000074e <main+0x6ae>
80000296:	0485                	addi	s1,s1,1
80000298:	4585                	li	a1,1
8000029a:	8522                	mv	a0,s0
8000029c:	6a4000ef          	jal	ra,80000940 <core_bench_list>
800002a0:	05015583          	lhu	a1,80(sp)
800002a4:	248030ef          	jal	ra,800034ec <crcu16>
800002a8:	04a11823          	sh	a0,80(sp)
800002ac:	55fd                	li	a1,-1
800002ae:	8522                	mv	a0,s0
800002b0:	690000ef          	jal	ra,80000940 <core_bench_list>
800002b4:	05015583          	lhu	a1,80(sp)
800002b8:	234030ef          	jal	ra,800034ec <crcu16>
800002bc:	04a11823          	sh	a0,80(sp)
800002c0:	e099                	bnez	s1,800002c6 <main+0x226>
800002c2:	04a11923          	sh	a0,82(sp)
800002c6:	0485                	addi	s1,s1,1
800002c8:	0c998363          	beq	s3,s1,8000038e <main+0x2ee>
800002cc:	4585                	li	a1,1
800002ce:	8522                	mv	a0,s0
800002d0:	2d85                	jal	80000940 <core_bench_list>
800002d2:	05015583          	lhu	a1,80(sp)
800002d6:	00148913          	addi	s2,s1,1
800002da:	212030ef          	jal	ra,800034ec <crcu16>
800002de:	04a11823          	sh	a0,80(sp)
800002e2:	55fd                	li	a1,-1
800002e4:	8522                	mv	a0,s0
800002e6:	2da9                	jal	80000940 <core_bench_list>
800002e8:	05015583          	lhu	a1,80(sp)
800002ec:	200030ef          	jal	ra,800034ec <crcu16>
800002f0:	8faa                	mv	t6,a0
800002f2:	05f11823          	sh	t6,80(sp)
800002f6:	4585                	li	a1,1
800002f8:	8522                	mv	a0,s0
800002fa:	e099                	bnez	s1,80000300 <main+0x260>
800002fc:	05f11923          	sh	t6,82(sp)
80000300:	2581                	jal	80000940 <core_bench_list>
80000302:	05015583          	lhu	a1,80(sp)
80000306:	1e6030ef          	jal	ra,800034ec <crcu16>
8000030a:	04a11823          	sh	a0,80(sp)
8000030e:	55fd                	li	a1,-1
80000310:	8522                	mv	a0,s0
80000312:	253d                	jal	80000940 <core_bench_list>
80000314:	05015583          	lhu	a1,80(sp)
80000318:	1d4030ef          	jal	ra,800034ec <crcu16>
8000031c:	04a11823          	sh	a0,80(sp)
80000320:	00091463          	bnez	s2,80000328 <main+0x288>
80000324:	04a11923          	sh	a0,82(sp)
80000328:	4585                	li	a1,1
8000032a:	8522                	mv	a0,s0
8000032c:	2d11                	jal	80000940 <core_bench_list>
8000032e:	05015583          	lhu	a1,80(sp)
80000332:	00190b93          	addi	s7,s2,1
80000336:	00290b13          	addi	s6,s2,2
8000033a:	1b2030ef          	jal	ra,800034ec <crcu16>
8000033e:	04a11823          	sh	a0,80(sp)
80000342:	55fd                	li	a1,-1
80000344:	8522                	mv	a0,s0
80000346:	2bed                	jal	80000940 <core_bench_list>
80000348:	05015583          	lhu	a1,80(sp)
8000034c:	00390493          	addi	s1,s2,3
80000350:	19c030ef          	jal	ra,800034ec <crcu16>
80000354:	87aa                	mv	a5,a0
80000356:	04f11823          	sh	a5,80(sp)
8000035a:	4585                	li	a1,1
8000035c:	8522                	mv	a0,s0
8000035e:	000b9463          	bnez	s7,80000366 <main+0x2c6>
80000362:	04f11923          	sh	a5,82(sp)
80000366:	2be9                	jal	80000940 <core_bench_list>
80000368:	05015583          	lhu	a1,80(sp)
8000036c:	180030ef          	jal	ra,800034ec <crcu16>
80000370:	04a11823          	sh	a0,80(sp)
80000374:	55fd                	li	a1,-1
80000376:	8522                	mv	a0,s0
80000378:	23e1                	jal	80000940 <core_bench_list>
8000037a:	05015583          	lhu	a1,80(sp)
8000037e:	16e030ef          	jal	ra,800034ec <crcu16>
80000382:	04a11823          	sh	a0,80(sp)
80000386:	3a0b0f63          	beqz	s6,80000744 <main+0x6a4>
8000038a:	f49991e3          	bne	s3,s1,800002cc <main+0x22c>
8000038e:	2e7030ef          	jal	ra,80003e74 <stop_time>
80000392:	2f7030ef          	jal	ra,80003e88 <get_time>
80000396:	31f030ef          	jal	ra,80003eb4 <time_in_secs>
8000039a:	8652                	mv	a2,s4
8000039c:	86d6                	mv	a3,s5
8000039e:	892a                	mv	s2,a0
800003a0:	89ae                	mv	s3,a1
800003a2:	4c6040ef          	jal	ra,80004868 <__ledf2>
800003a6:	e60541e3          	bltz	a0,80000208 <main+0x168>
800003aa:	854a                	mv	a0,s2
800003ac:	85ce                	mv	a1,s3
800003ae:	56c040ef          	jal	ra,8000491a <__fixunsdfsi>
800003b2:	e111                	bnez	a0,800003b6 <main+0x316>
800003b4:	4505                	li	a0,1
800003b6:	42a9                	li	t0,10
800003b8:	02a2d733          	divu	a4,t0,a0
800003bc:	5352                	lw	t1,52(sp)
800003be:	00170393          	addi	t2,a4,1
800003c2:	02638a33          	mul	s4,t2,t1
800003c6:	da52                	sw	s4,52(sp)
800003c8:	299030ef          	jal	ra,80003e60 <start_time>
800003cc:	6405                	lui	s0,0x1
800003ce:	82040593          	addi	a1,s0,-2016 # 820 <__stack_size+0x20>
800003d2:	7afd                	lui	s5,0xfffff
800003d4:	0808                	addi	a0,sp,16
800003d6:	7e8a8693          	addi	a3,s5,2024 # fffff7e8 <_sp+0x6ffef7e8>
800003da:	00a58633          	add	a2,a1,a0
800003de:	00d60533          	add	a0,a2,a3
800003e2:	06e010ef          	jal	ra,80001450 <iterate>
800003e6:	28f030ef          	jal	ra,80003e74 <stop_time>
800003ea:	29f030ef          	jal	ra,80003e88 <get_time>
800003ee:	82040813          	addi	a6,s0,-2016
800003f2:	01010893          	addi	a7,sp,16
800003f6:	01180e33          	add	t3,a6,a7
800003fa:	015e0eb3          	add	t4,t3,s5
800003fe:	892a                	mv	s2,a0
80000400:	7e8e9503          	lh	a0,2024(t4) # fffff7e8 <_sp+0x6ffef7e8>
80000404:	89ae                	mv	s3,a1
80000406:	4581                	li	a1,0
80000408:	c676                	sw	t4,12(sp)
8000040a:	7f2030ef          	jal	ra,80003bfc <crc16>
8000040e:	4f32                	lw	t5,12(sp)
80000410:	85aa                	mv	a1,a0
80000412:	6ba1                	lui	s7,0x8
80000414:	7eaf1503          	lh	a0,2026(t5)
80000418:	b05b8b13          	addi	s6,s7,-1275 # 7b05 <__stack_size+0x7305>
8000041c:	7e0030ef          	jal	ra,80003bfc <crc16>
80000420:	4fb2                	lw	t6,12(sp)
80000422:	85aa                	mv	a1,a0
80000424:	7ecf9503          	lh	a0,2028(t6)
80000428:	7d4030ef          	jal	ra,80003bfc <crc16>
8000042c:	85aa                	mv	a1,a0
8000042e:	03011503          	lh	a0,48(sp)
80000432:	7ca030ef          	jal	ra,80003bfc <crc16>
80000436:	84aa                	mv	s1,a0
80000438:	47650963          	beq	a0,s6,800008aa <main+0x80a>
8000043c:	2aab7863          	bgeu	s6,a0,800006ec <main+0x64c>
80000440:	67a5                	lui	a5,0x9
80000442:	a0278293          	addi	t0,a5,-1534 # 8a02 <__stack_size+0x8202>
80000446:	46550a63          	beq	a0,t0,800008ba <main+0x81a>
8000044a:	63bd                	lui	t2,0xf
8000044c:	9f538313          	addi	t1,t2,-1547 # e9f5 <__stack_size+0xe1f5>
80000450:	2c651063          	bne	a0,t1,80000710 <main+0x670>
80000454:	90000a37          	lui	s4,0x90000
80000458:	0a8a0513          	addi	a0,s4,168 # 900000a8 <_sp+0xffff00a8>
8000045c:	200050ef          	jal	ra,8000565c <puts>
80000460:	4a0d                	li	s4,3
80000462:	5862                	lw	a6,56(sp)
80000464:	04011c23          	sh	zero,88(sp)
80000468:	00187893          	andi	a7,a6,1
8000046c:	02088e63          	beqz	a7,800004a8 <main+0x408>
80000470:	90000eb7          	lui	t4,0x90000
80000474:	001a1e13          	slli	t3,s4,0x1
80000478:	000e8f13          	mv	t5,t4
8000047c:	01cf0fb3          	add	t6,t5,t3
80000480:	05215603          	lhu	a2,82(sp)
80000484:	000fd683          	lhu	a3,0(t6)
80000488:	02d60063          	beq	a2,a3,800004a8 <main+0x408>
8000048c:	90000bb7          	lui	s7,0x90000
80000490:	4581                	li	a1,0
80000492:	100b8513          	addi	a0,s7,256 # 90000100 <_sp+0xffff0100>
80000496:	07a050ef          	jal	ra,80005510 <iprintf>
8000049a:	05815b03          	lhu	s6,88(sp)
8000049e:	5862                	lw	a6,56(sp)
800004a0:	001b0793          	addi	a5,s6,1
800004a4:	04f11c23          	sh	a5,88(sp)
800004a8:	00287093          	andi	ra,a6,2
800004ac:	02008e63          	beqz	ra,800004e8 <main+0x448>
800004b0:	90000737          	lui	a4,0x90000
800004b4:	001a1293          	slli	t0,s4,0x1
800004b8:	47c70393          	addi	t2,a4,1148 # 9000047c <_sp+0xffff047c>
800004bc:	00538333          	add	t1,t2,t0
800004c0:	05415603          	lhu	a2,84(sp)
800004c4:	00035683          	lhu	a3,0(t1)
800004c8:	02d60063          	beq	a2,a3,800004e8 <main+0x448>
800004cc:	90000ab7          	lui	s5,0x90000
800004d0:	4581                	li	a1,0
800004d2:	130a8513          	addi	a0,s5,304 # 90000130 <_sp+0xffff0130>
800004d6:	03a050ef          	jal	ra,80005510 <iprintf>
800004da:	05815683          	lhu	a3,88(sp)
800004de:	5862                	lw	a6,56(sp)
800004e0:	00168413          	addi	s0,a3,1
800004e4:	04811c23          	sh	s0,88(sp)
800004e8:	00487593          	andi	a1,a6,4
800004ec:	cd99                	beqz	a1,8000050a <main+0x46a>
800004ee:	90000637          	lui	a2,0x90000
800004f2:	48860813          	addi	a6,a2,1160 # 90000488 <_sp+0xffff0488>
800004f6:	001a1513          	slli	a0,s4,0x1
800004fa:	00a808b3          	add	a7,a6,a0
800004fe:	05615603          	lhu	a2,86(sp)
80000502:	0008d683          	lhu	a3,0(a7)
80000506:	2ad61863          	bne	a2,a3,800007b6 <main+0x716>
8000050a:	05815b83          	lhu	s7,88(sp)
8000050e:	14b030ef          	jal	ra,80003e58 <check_data_types>
80000512:	55c2                	lw	a1,48(sp)
80000514:	00ab8fb3          	add	t6,s7,a0
80000518:	90000b37          	lui	s6,0x90000
8000051c:	010f9793          	slli	a5,t6,0x10
80000520:	194b0513          	addi	a0,s6,404 # 90000194 <_sp+0xffff0194>
80000524:	0107da93          	srli	s5,a5,0x10
80000528:	7e9040ef          	jal	ra,80005510 <iprintf>
8000052c:	900002b7          	lui	t0,0x90000
80000530:	1ac28513          	addi	a0,t0,428 # 900001ac <_sp+0xffff01ac>
80000534:	85ca                	mv	a1,s2
80000536:	7db040ef          	jal	ra,80005510 <iprintf>
8000053a:	854a                	mv	a0,s2
8000053c:	85ce                	mv	a1,s3
8000053e:	177030ef          	jal	ra,80003eb4 <time_in_secs>
80000542:	90000737          	lui	a4,0x90000
80000546:	862a                	mv	a2,a0
80000548:	86ae                	mv	a3,a1
8000054a:	1c470513          	addi	a0,a4,452 # 900001c4 <_sp+0xffff01c4>
8000054e:	7c3040ef          	jal	ra,80005510 <iprintf>
80000552:	854a                	mv	a0,s2
80000554:	85ce                	mv	a1,s3
80000556:	15f030ef          	jal	ra,80003eb4 <time_in_secs>
8000055a:	4601                	li	a2,0
8000055c:	4681                	li	a3,0
8000055e:	25a040ef          	jal	ra,800047b8 <__gedf2>
80000562:	02a05963          	blez	a0,80000594 <main+0x4f4>
80000566:	5552                	lw	a0,52(sp)
80000568:	40e040ef          	jal	ra,80004976 <__floatunsidf>
8000056c:	842a                	mv	s0,a0
8000056e:	8bae                	mv	s7,a1
80000570:	854a                	mv	a0,s2
80000572:	85ce                	mv	a1,s3
80000574:	141030ef          	jal	ra,80003eb4 <time_in_secs>
80000578:	862a                	mv	a2,a0
8000057a:	86ae                	mv	a3,a1
8000057c:	8522                	mv	a0,s0
8000057e:	85de                	mv	a1,s7
80000580:	4a1030ef          	jal	ra,80004220 <__divdf3>
80000584:	900003b7          	lui	t2,0x90000
80000588:	862a                	mv	a2,a0
8000058a:	86ae                	mv	a3,a1
8000058c:	1dc38513          	addi	a0,t2,476 # 900001dc <_sp+0xffff01dc>
80000590:	781040ef          	jal	ra,80005510 <iprintf>
80000594:	854a                	mv	a0,s2
80000596:	85ce                	mv	a1,s3
80000598:	11d030ef          	jal	ra,80003eb4 <time_in_secs>
8000059c:	90000337          	lui	t1,0x90000
800005a0:	01832603          	lw	a2,24(t1) # 90000018 <_sp+0xffff0018>
800005a4:	01c32683          	lw	a3,28(t1)
800005a8:	2c0040ef          	jal	ra,80004868 <__ledf2>
800005ac:	2c054a63          	bltz	a0,80000880 <main+0x7e0>
800005b0:	010a9093          	slli	ra,s5,0x10
800005b4:	4100d413          	srai	s0,ra,0x10
800005b8:	55d2                	lw	a1,52(sp)
800005ba:	90000637          	lui	a2,0x90000
800005be:	40060513          	addi	a0,a2,1024 # 90000400 <_sp+0xffff0400>
800005c2:	74f040ef          	jal	ra,80005510 <iprintf>
800005c6:	90000837          	lui	a6,0x90000
800005ca:	90000b37          	lui	s6,0x90000
800005ce:	41880513          	addi	a0,a6,1048 # 90000418 <_sp+0xffff0418>
800005d2:	2e4b0593          	addi	a1,s6,740 # 900002e4 <_sp+0xffff02e4>
800005d6:	73b040ef          	jal	ra,80005510 <iprintf>
800005da:	900008b7          	lui	a7,0x90000
800005de:	90000ab7          	lui	s5,0x90000
800005e2:	43088513          	addi	a0,a7,1072 # 90000430 <_sp+0xffff0430>
800005e6:	27ca8593          	addi	a1,s5,636 # 9000027c <_sp+0xffff027c>
800005ea:	727040ef          	jal	ra,80005510 <iprintf>
800005ee:	90000e37          	lui	t3,0x90000
800005f2:	90000bb7          	lui	s7,0x90000
800005f6:	30cb8593          	addi	a1,s7,780 # 9000030c <_sp+0xffff030c>
800005fa:	448e0513          	addi	a0,t3,1096 # 90000448 <_sp+0xffff0448>
800005fe:	713040ef          	jal	ra,80005510 <iprintf>
80000602:	85a6                	mv	a1,s1
80000604:	900004b7          	lui	s1,0x90000
80000608:	46048513          	addi	a0,s1,1120 # 90000460 <_sp+0xffff0460>
8000060c:	705040ef          	jal	ra,80005510 <iprintf>
80000610:	5ee2                	lw	t4,56(sp)
80000612:	001eff13          	andi	t5,t4,1
80000616:	240f1a63          	bnez	t5,8000086a <main+0x7ca>
8000061a:	002ef793          	andi	a5,t4,2
8000061e:	22079b63          	bnez	a5,80000854 <main+0x7b4>
80000622:	004ef713          	andi	a4,t4,4
80000626:	20071d63          	bnez	a4,80000840 <main+0x7a0>
8000062a:	05015603          	lhu	a2,80(sp)
8000062e:	90000337          	lui	t1,0x90000
80000632:	4581                	li	a1,0
80000634:	39030513          	addi	a0,t1,912 # 90000390 <_sp+0xffff0390>
80000638:	6d9040ef          	jal	ra,80005510 <iprintf>
8000063c:	1a040263          	beqz	s0,800007e0 <main+0x740>
80000640:	18805963          	blez	s0,800007d2 <main+0x732>
80000644:	900009b7          	lui	s3,0x90000
80000648:	31c98513          	addi	a0,s3,796 # 9000031c <_sp+0xffff031c>
8000064c:	010050ef          	jal	ra,8000565c <puts>
80000650:	7f010113          	addi	sp,sp,2032
80000654:	50b6                	lw	ra,108(sp)
80000656:	4501                	li	a0,0
80000658:	5426                	lw	s0,104(sp)
8000065a:	5496                	lw	s1,100(sp)
8000065c:	5906                	lw	s2,96(sp)
8000065e:	49f6                	lw	s3,92(sp)
80000660:	4a66                	lw	s4,88(sp)
80000662:	4ad6                	lw	s5,84(sp)
80000664:	4b46                	lw	s6,80(sp)
80000666:	4bb6                	lw	s7,76(sp)
80000668:	6165                	addi	sp,sp,112
8000066a:	8082                	ret
8000066c:	4fb2                	lw	t6,12(sp)
8000066e:	7ecf9783          	lh	a5,2028(t6)
80000672:	ac079be3          	bnez	a5,80000148 <main+0xa8>
80000676:	4732                	lw	a4,12(sp)
80000678:	06600293          	li	t0,102
8000067c:	7e571623          	sh	t0,2028(a4)
80000680:	b4e1                	j	80000148 <main+0xa8>
80000682:	0001                	nop
80000684:	6685                	lui	a3,0x1
80000686:	82068913          	addi	s2,a3,-2016 # 820 <__stack_size+0x20>
8000068a:	01010093          	addi	ra,sp,16
8000068e:	737d                	lui	t1,0xfffff
80000690:	00190433          	add	s0,s2,ra
80000694:	006405b3          	add	a1,s0,t1
80000698:	c62e                	sw	a1,12(sp)
8000069a:	7e859603          	lh	a2,2024(a1)
8000069e:	7f45a583          	lw	a1,2036(a1)
800006a2:	177000ef          	jal	ra,80001018 <core_list_init>
800006a6:	5362                	lw	t1,56(sp)
800006a8:	de2a                	sw	a0,60(sp)
800006aa:	00237913          	andi	s2,t1,2
800006ae:	b00901e3          	beqz	s2,800001b0 <main+0x110>
800006b2:	6605                	lui	a2,0x1
800006b4:	82060493          	addi	s1,a2,-2016 # 820 <__stack_size+0x20>
800006b8:	01010813          	addi	a6,sp,16
800006bc:	757d                	lui	a0,0xfffff
800006be:	010488b3          	add	a7,s1,a6
800006c2:	00a88a33          	add	s4,a7,a0
800006c6:	c652                	sw	s4,12(sp)
800006c8:	4b32                	lw	s6,12(sp)
800006ca:	7eaa1a83          	lh	s5,2026(s4)
800006ce:	5542                	lw	a0,48(sp)
800006d0:	7e8b1b83          	lh	s7,2024(s6)
800006d4:	7f8b2583          	lw	a1,2040(s6)
800006d8:	010a9993          	slli	s3,s5,0x10
800006dc:	0094                	addi	a3,sp,64
800006de:	0179e633          	or	a2,s3,s7
800006e2:	516020ef          	jal	ra,80002bf8 <core_init_matrix>
800006e6:	5362                	lw	t1,56(sp)
800006e8:	b4e1                	j	800001b0 <main+0x110>
800006ea:	0001                	nop
800006ec:	6a89                	lui	s5,0x2
800006ee:	8f2a8693          	addi	a3,s5,-1806 # 18f2 <__stack_size+0x10f2>
800006f2:	1ad50463          	beq	a0,a3,8000089a <main+0x7fa>
800006f6:	6595                	lui	a1,0x5
800006f8:	eaf58513          	addi	a0,a1,-337 # 4eaf <__stack_size+0x46af>
800006fc:	00a49a63          	bne	s1,a0,80000710 <main+0x670>
80000700:	90000637          	lui	a2,0x90000
80000704:	07860513          	addi	a0,a2,120 # 90000078 <_sp+0xffff0078>
80000708:	755040ef          	jal	ra,8000565c <puts>
8000070c:	4a09                	li	s4,2
8000070e:	bb91                	j	80000462 <main+0x3c2>
80000710:	6a41                	lui	s4,0x10
80000712:	fffa0b93          	addi	s7,s4,-1 # ffff <__stack_size+0xf7ff>
80000716:	5a7d                	li	s4,-1
80000718:	bbdd                	j	8000050e <main+0x46e>
8000071a:	409d                	li	ra,7
8000071c:	dc06                	sw	ra,56(sp)
8000071e:	b2d5                	j	80000102 <main+0x62>
80000720:	6e85                	lui	t4,0x1
80000722:	820e8f13          	addi	t5,t4,-2016 # 820 <__stack_size+0x20>
80000726:	01010f93          	addi	t6,sp,16
8000072a:	01ff07b3          	add	a5,t5,t6
8000072e:	01c782b3          	add	t0,a5,t3
80000732:	1098                	addi	a4,sp,96
80000734:	c616                	sw	t0,12(sp)
80000736:	7ee2aa23          	sw	a4,2036(t0)
8000073a:	4605                	li	a2,1
8000073c:	a60904e3          	beqz	s2,800001a4 <main+0x104>
80000740:	a081                	j	80000780 <main+0x6e0>
80000742:	0001                	nop
80000744:	04a11923          	sh	a0,82(sp)
80000748:	b89992e3          	bne	s3,s1,800002cc <main+0x22c>
8000074c:	b189                	j	8000038e <main+0x2ee>
8000074e:	04a11923          	sh	a0,82(sp)
80000752:	b691                	j	80000296 <main+0x1f6>
80000754:	02a609b3          	mul	s3,a2,a0
80000758:	6f85                	lui	t6,0x1
8000075a:	820f8793          	addi	a5,t6,-2016 # 820 <__stack_size+0x20>
8000075e:	01010293          	addi	t0,sp,16
80000762:	7e7d                	lui	t3,0xfffff
80000764:	06010e93          	addi	t4,sp,96
80000768:	00578733          	add	a4,a5,t0
8000076c:	01c703b3          	add	t2,a4,t3
80000770:	c61e                	sw	t2,12(sp)
80000772:	013e8f33          	add	t5,t4,s3
80000776:	7fe3ae23          	sw	t5,2044(t2)
8000077a:	a20689e3          	beqz	a3,800001ac <main+0x10c>
8000077e:	b719                	j	80000684 <main+0x5e4>
80000780:	02a603b3          	mul	t2,a2,a0
80000784:	6885                	lui	a7,0x1
80000786:	82088a13          	addi	s4,a7,-2016 # 820 <__stack_size+0x20>
8000078a:	01010a93          	addi	s5,sp,16
8000078e:	70fd                	lui	ra,0xfffff
80000790:	1084                	addi	s1,sp,96
80000792:	015a0b33          	add	s6,s4,s5
80000796:	00160413          	addi	s0,a2,1
8000079a:	001b0bb3          	add	s7,s6,ra
8000079e:	01041593          	slli	a1,s0,0x10
800007a2:	00748833          	add	a6,s1,t2
800007a6:	c65e                	sw	s7,12(sp)
800007a8:	7f0bac23          	sw	a6,2040(s7)
800007ac:	0105d613          	srli	a2,a1,0x10
800007b0:	9e098ce3          	beqz	s3,800001a8 <main+0x108>
800007b4:	b745                	j	80000754 <main+0x6b4>
800007b6:	90000e37          	lui	t3,0x90000
800007ba:	4581                	li	a1,0
800007bc:	164e0513          	addi	a0,t3,356 # 90000164 <_sp+0xffff0164>
800007c0:	551040ef          	jal	ra,80005510 <iprintf>
800007c4:	05815e83          	lhu	t4,88(sp)
800007c8:	001e8f13          	addi	t5,t4,1
800007cc:	05e11c23          	sh	t5,88(sp)
800007d0:	bb2d                	j	8000050a <main+0x46a>
800007d2:	90000937          	lui	s2,0x90000
800007d6:	32c90513          	addi	a0,s2,812 # 9000032c <_sp+0xffff032c>
800007da:	683040ef          	jal	ra,8000565c <puts>
800007de:	bd8d                	j	80000650 <main+0x5b0>
800007e0:	900000b7          	lui	ra,0x90000
800007e4:	23408513          	addi	a0,ra,564 # 90000234 <_sp+0xffff0234>
800007e8:	675040ef          	jal	ra,8000565c <puts>
800007ec:	468d                	li	a3,3
800007ee:	e6da11e3          	bne	s4,a3,80000650 <main+0x5b0>
800007f2:	5552                	lw	a0,52(sp)
800007f4:	182040ef          	jal	ra,80004976 <__floatunsidf>
800007f8:	842a                	mv	s0,a0
800007fa:	8a2e                	mv	s4,a1
800007fc:	854a                	mv	a0,s2
800007fe:	85ce                	mv	a1,s3
80000800:	6b4030ef          	jal	ra,80003eb4 <time_in_secs>
80000804:	862a                	mv	a2,a0
80000806:	86ae                	mv	a3,a1
80000808:	8522                	mv	a0,s0
8000080a:	85d2                	mv	a1,s4
8000080c:	215030ef          	jal	ra,80004220 <__divdf3>
80000810:	86ae                	mv	a3,a1
80000812:	900005b7          	lui	a1,0x90000
80000816:	862a                	mv	a2,a0
80000818:	27ca8793          	addi	a5,s5,636
8000081c:	2e4b0713          	addi	a4,s6,740
80000820:	2f058513          	addi	a0,a1,752 # 900002f0 <_sp+0xffff02f0>
80000824:	4ed040ef          	jal	ra,80005510 <iprintf>
80000828:	90000537          	lui	a0,0x90000
8000082c:	30cb8593          	addi	a1,s7,780
80000830:	31450513          	addi	a0,a0,788 # 90000314 <_sp+0xffff0314>
80000834:	4dd040ef          	jal	ra,80005510 <iprintf>
80000838:	4529                	li	a0,10
8000083a:	519040ef          	jal	ra,80005552 <putchar>
8000083e:	bd09                	j	80000650 <main+0x5b0>
80000840:	05615603          	lhu	a2,86(sp)
80000844:	900003b7          	lui	t2,0x90000
80000848:	4581                	li	a1,0
8000084a:	3ac38513          	addi	a0,t2,940 # 900003ac <_sp+0xffff03ac>
8000084e:	4c3040ef          	jal	ra,80005510 <iprintf>
80000852:	bbe1                	j	8000062a <main+0x58a>
80000854:	05415603          	lhu	a2,84(sp)
80000858:	900002b7          	lui	t0,0x90000
8000085c:	4581                	li	a1,0
8000085e:	3c828513          	addi	a0,t0,968 # 900003c8 <_sp+0xffff03c8>
80000862:	4af040ef          	jal	ra,80005510 <iprintf>
80000866:	5ee2                	lw	t4,56(sp)
80000868:	bb6d                	j	80000622 <main+0x582>
8000086a:	05215603          	lhu	a2,82(sp)
8000086e:	90000fb7          	lui	t6,0x90000
80000872:	4581                	li	a1,0
80000874:	3e4f8513          	addi	a0,t6,996 # 900003e4 <_sp+0xffff03e4>
80000878:	499040ef          	jal	ra,80005510 <iprintf>
8000087c:	5ee2                	lw	t4,56(sp)
8000087e:	bb71                	j	8000061a <main+0x57a>
80000880:	900006b7          	lui	a3,0x90000
80000884:	1f468513          	addi	a0,a3,500 # 900001f4 <_sp+0xffff01f4>
80000888:	5d5040ef          	jal	ra,8000565c <puts>
8000088c:	001a8593          	addi	a1,s5,1
80000890:	01059513          	slli	a0,a1,0x10
80000894:	41055413          	srai	s0,a0,0x10
80000898:	b305                	j	800005b8 <main+0x518>
8000089a:	90000437          	lui	s0,0x90000
8000089e:	0d440513          	addi	a0,s0,212 # 900000d4 <_sp+0xffff00d4>
800008a2:	5bb040ef          	jal	ra,8000565c <puts>
800008a6:	4a11                	li	s4,4
800008a8:	be6d                	j	80000462 <main+0x3c2>
800008aa:	900000b7          	lui	ra,0x90000
800008ae:	04c08513          	addi	a0,ra,76 # 9000004c <_sp+0xffff004c>
800008b2:	5ab040ef          	jal	ra,8000565c <puts>
800008b6:	4a05                	li	s4,1
800008b8:	b66d                	j	80000462 <main+0x3c2>
800008ba:	90000737          	lui	a4,0x90000
800008be:	02070513          	addi	a0,a4,32 # 90000020 <_sp+0xffff0020>
800008c2:	59b040ef          	jal	ra,8000565c <puts>
800008c6:	4a01                	li	s4,0
800008c8:	be69                	j	80000462 <main+0x3c2>
	...

800008cc <register_fini>:
800008cc:	7ffff797          	auipc	a5,0x7ffff
800008d0:	73478793          	addi	a5,a5,1844 # 0 <_sp+0x6fff0000>
800008d4:	c799                	beqz	a5,800008e2 <register_fini+0x16>
800008d6:	00004517          	auipc	a0,0x4
800008da:	1a650513          	addi	a0,a0,422 # 80004a7c <__libc_fini_array>
800008de:	1640406f          	j	80004a42 <atexit>
800008e2:	8082                	ret

800008e4 <trap_entry>:
800008e4:	7139                	addi	sp,sp,-64
800008e6:	c006                	sw	ra,0(sp)
800008e8:	c216                	sw	t0,4(sp)
800008ea:	c41a                	sw	t1,8(sp)
800008ec:	c61e                	sw	t2,12(sp)
800008ee:	c82a                	sw	a0,16(sp)
800008f0:	ca2e                	sw	a1,20(sp)
800008f2:	cc32                	sw	a2,24(sp)
800008f4:	ce36                	sw	a3,28(sp)
800008f6:	d03a                	sw	a4,32(sp)
800008f8:	d23e                	sw	a5,36(sp)
800008fa:	d442                	sw	a6,40(sp)
800008fc:	d646                	sw	a7,44(sp)
800008fe:	d872                	sw	t3,48(sp)
80000900:	da76                	sw	t4,52(sp)
80000902:	dc7a                	sw	t5,56(sp)
80000904:	de7e                	sw	t6,60(sp)
80000906:	34202573          	csrr	a0,mcause
8000090a:	341025f3          	csrr	a1,mepc
8000090e:	65a030ef          	jal	ra,80003f68 <handle_trap>
80000912:	34151073          	csrw	mepc,a0
80000916:	4082                	lw	ra,0(sp)
80000918:	4292                	lw	t0,4(sp)
8000091a:	4322                	lw	t1,8(sp)
8000091c:	43b2                	lw	t2,12(sp)
8000091e:	4542                	lw	a0,16(sp)
80000920:	45d2                	lw	a1,20(sp)
80000922:	4662                	lw	a2,24(sp)
80000924:	46f2                	lw	a3,28(sp)
80000926:	5702                	lw	a4,32(sp)
80000928:	5792                	lw	a5,36(sp)
8000092a:	5822                	lw	a6,40(sp)
8000092c:	58b2                	lw	a7,44(sp)
8000092e:	5e42                	lw	t3,48(sp)
80000930:	5ed2                	lw	t4,52(sp)
80000932:	5f62                	lw	t5,56(sp)
80000934:	5ff2                	lw	t6,60(sp)
80000936:	6121                	addi	sp,sp,64
80000938:	30200073          	mret
8000093c:	a001                	j	8000093c <trap_entry+0x58>
	...

80000940 <core_bench_list>:
80000940:	00451e03          	lh	t3,4(a0)
80000944:	711d                	addi	sp,sp,-96
80000946:	dc62                	sw	s8,56(sp)
80000948:	ce86                	sw	ra,92(sp)
8000094a:	cca2                	sw	s0,88(sp)
8000094c:	caa6                	sw	s1,84(sp)
8000094e:	c8ca                	sw	s2,80(sp)
80000950:	c6ce                	sw	s3,76(sp)
80000952:	c4d2                	sw	s4,72(sp)
80000954:	c2d6                	sw	s5,68(sp)
80000956:	c0da                	sw	s6,64(sp)
80000958:	de5e                	sw	s7,60(sp)
8000095a:	da66                	sw	s9,52(sp)
8000095c:	d86a                	sw	s10,48(sp)
8000095e:	d66e                	sw	s11,44(sp)
80000960:	ca02                	sw	zero,20(sp)
80000962:	c62e                	sw	a1,12(sp)
80000964:	02452c03          	lw	s8,36(a0)
80000968:	69c05f63          	blez	t3,80001006 <core_bench_list+0x6c6>
8000096c:	4601                	li	a2,0
8000096e:	4e81                	li	t4,0
80000970:	4f01                	li	t5,0
80000972:	4301                	li	t1,0
80000974:	47b2                	lw	a5,12(sp)
80000976:	0ff67693          	andi	a3,a2,255
8000097a:	ca36                	sw	a3,20(sp)
8000097c:	3007c863          	bltz	a5,80000c8c <core_bench_list+0x34c>
80000980:	680c0763          	beqz	s8,8000100e <core_bench_list+0x6ce>
80000984:	004c2483          	lw	s1,4(s8)
80000988:	4932                	lw	s2,12(sp)
8000098a:	89e2                	mv	s3,s8
8000098c:	00249803          	lh	a6,2(s1)
80000990:	01281b63          	bne	a6,s2,800009a6 <core_bench_list+0x66>
80000994:	a829                	j	800009ae <core_bench_list+0x6e>
80000996:	0001                	nop
80000998:	0049aa03          	lw	s4,4(s3)
8000099c:	4b32                	lw	s6,12(sp)
8000099e:	002a1a83          	lh	s5,2(s4)
800009a2:	016a8663          	beq	s5,s6,800009ae <core_bench_list+0x6e>
800009a6:	0009a983          	lw	s3,0(s3)
800009aa:	fe0997e3          	bnez	s3,80000998 <core_bench_list+0x58>
800009ae:	4b81                	li	s7,0
800009b0:	a021                	j	800009b8 <core_bench_list+0x78>
800009b2:	0001                	nop
800009b4:	8be2                	mv	s7,s8
800009b6:	8c66                	mv	s8,s9
800009b8:	000c2c83          	lw	s9,0(s8)
800009bc:	017c2023          	sw	s7,0(s8)
800009c0:	fe0c9ae3          	bnez	s9,800009b4 <core_bench_list+0x74>
800009c4:	2e098a63          	beqz	s3,80000cb8 <core_bench_list+0x378>
800009c8:	0049ad03          	lw	s10,4(s3)
800009cc:	001f0893          	addi	a7,t5,1
800009d0:	01089d93          	slli	s11,a7,0x10
800009d4:	000d1f83          	lh	t6,0(s10)
800009d8:	010ddf13          	srli	t5,s11,0x10
800009dc:	001ff693          	andi	a3,t6,1
800009e0:	ca91                	beqz	a3,800009f4 <core_bench_list+0xb4>
800009e2:	409fd793          	srai	a5,t6,0x9
800009e6:	0017f713          	andi	a4,a5,1
800009ea:	933a                	add	t1,t1,a4
800009ec:	01031093          	slli	ra,t1,0x10
800009f0:	0100d313          	srli	t1,ra,0x10
800009f4:	0009a283          	lw	t0,0(s3)
800009f8:	00028c63          	beqz	t0,80000a10 <core_bench_list+0xd0>
800009fc:	0002a383          	lw	t2,0(t0)
80000a00:	0079a023          	sw	t2,0(s3)
80000a04:	000c2403          	lw	s0,0(s8)
80000a08:	0082a023          	sw	s0,0(t0)
80000a0c:	005c2023          	sw	t0,0(s8)
80000a10:	4b32                	lw	s6,12(sp)
80000a12:	000b4963          	bltz	s6,80000a24 <core_bench_list+0xe4>
80000a16:	001b0b93          	addi	s7,s6,1
80000a1a:	010b9c93          	slli	s9,s7,0x10
80000a1e:	410cdd13          	srai	s10,s9,0x10
80000a22:	c66a                	sw	s10,12(sp)
80000a24:	0605                	addi	a2,a2,1
80000a26:	01061893          	slli	a7,a2,0x10
80000a2a:	4108d613          	srai	a2,a7,0x10
80000a2e:	f4ce13e3          	bne	t3,a2,80000974 <core_bench_list+0x34>
80000a32:	002f1e13          	slli	t3,t5,0x2
80000a36:	41de0db3          	sub	s11,t3,t4
80000a3a:	01b30f33          	add	t5,t1,s11
80000a3e:	010f1f93          	slli	t6,t5,0x10
80000a42:	010fd693          	srli	a3,t6,0x10
80000a46:	ce36                	sw	a3,28(sp)
80000a48:	8d2a                	mv	s10,a0
80000a4a:	2cb04963          	bgtz	a1,80000d1c <core_bench_list+0x3dc>
80000a4e:	000c2b83          	lw	s7,0(s8)
80000a52:	4632                	lw	a2,12(sp)
80000a54:	8462                	mv	s0,s8
80000a56:	000ba903          	lw	s2,0(s7)
80000a5a:	004ba083          	lw	ra,4(s7)
80000a5e:	00492d03          	lw	s10,4(s2)
80000a62:	00092883          	lw	a7,0(s2)
80000a66:	01aba223          	sw	s10,4(s7)
80000a6a:	00192223          	sw	ra,4(s2)
80000a6e:	011ba023          	sw	a7,0(s7)
80000a72:	00092023          	sw	zero,0(s2)
80000a76:	1c064363          	bltz	a2,80000c3c <core_bench_list+0x2fc>
80000a7a:	0001                	nop
80000a7c:	4054                	lw	a3,4(s0)
80000a7e:	45b2                	lw	a1,12(sp)
80000a80:	00269503          	lh	a0,2(a3)
80000a84:	00b50863          	beq	a0,a1,80000a94 <core_bench_list+0x154>
80000a88:	4000                	lw	s0,0(s0)
80000a8a:	f86d                	bnez	s0,80000a7c <core_bench_list+0x13c>
80000a8c:	000c2403          	lw	s0,0(s8)
80000a90:	c005                	beqz	s0,80000ab0 <core_bench_list+0x170>
80000a92:	0001                	nop
80000a94:	004c2783          	lw	a5,4(s8)
80000a98:	45f2                	lw	a1,28(sp)
80000a9a:	00079503          	lh	a0,0(a5)
80000a9e:	15e030ef          	jal	ra,80003bfc <crc16>
80000aa2:	4000                	lw	s0,0(s0)
80000aa4:	ce2a                	sw	a0,28(sp)
80000aa6:	f47d                	bnez	s0,80000a94 <core_bench_list+0x154>
80000aa8:	000c2403          	lw	s0,0(s8)
80000aac:	00492083          	lw	ra,4(s2)
80000ab0:	4058                	lw	a4,4(s0)
80000ab2:	00042303          	lw	t1,0(s0)
80000ab6:	4b85                	li	s7,1
80000ab8:	00e92223          	sw	a4,4(s2)
80000abc:	00142223          	sw	ra,4(s0)
80000ac0:	00692023          	sw	t1,0(s2)
80000ac4:	01242023          	sw	s2,0(s0)
80000ac8:	4e81                	li	t4,0
80000aca:	4401                	li	s0,0
80000acc:	4e01                	li	t3,0
80000ace:	4f05                	li	t5,1
80000ad0:	007bf293          	andi	t0,s7,7
80000ad4:	0e05                	addi	t3,t3,1
80000ad6:	89e2                	mv	s3,s8
80000ad8:	4b01                	li	s6,0
80000ada:	06028963          	beqz	t0,80000b4c <core_bench_list+0x20c>
80000ade:	4385                	li	t2,1
80000ae0:	04728f63          	beq	t0,t2,80000b3e <core_bench_list+0x1fe>
80000ae4:	4809                	li	a6,2
80000ae6:	05028763          	beq	t0,a6,80000b34 <core_bench_list+0x1f4>
80000aea:	4a0d                	li	s4,3
80000aec:	03428f63          	beq	t0,s4,80000b2a <core_bench_list+0x1ea>
80000af0:	4a91                	li	s5,4
80000af2:	03528763          	beq	t0,s5,80000b20 <core_bench_list+0x1e0>
80000af6:	4d95                	li	s11,5
80000af8:	01b28f63          	beq	t0,s11,80000b16 <core_bench_list+0x1d6>
80000afc:	4c99                	li	s9,6
80000afe:	01928763          	beq	t0,s9,80000b0c <core_bench_list+0x1cc>
80000b02:	000c2983          	lw	s3,0(s8)
80000b06:	4b05                	li	s6,1
80000b08:	0a098263          	beqz	s3,80000bac <core_bench_list+0x26c>
80000b0c:	0009a983          	lw	s3,0(s3)
80000b10:	0b05                	addi	s6,s6,1
80000b12:	08098d63          	beqz	s3,80000bac <core_bench_list+0x26c>
80000b16:	0009a983          	lw	s3,0(s3)
80000b1a:	0b05                	addi	s6,s6,1
80000b1c:	08098863          	beqz	s3,80000bac <core_bench_list+0x26c>
80000b20:	0009a983          	lw	s3,0(s3)
80000b24:	0b05                	addi	s6,s6,1
80000b26:	08098363          	beqz	s3,80000bac <core_bench_list+0x26c>
80000b2a:	0009a983          	lw	s3,0(s3)
80000b2e:	0b05                	addi	s6,s6,1
80000b30:	06098e63          	beqz	s3,80000bac <core_bench_list+0x26c>
80000b34:	0009a983          	lw	s3,0(s3)
80000b38:	0b05                	addi	s6,s6,1
80000b3a:	06098963          	beqz	s3,80000bac <core_bench_list+0x26c>
80000b3e:	0009a983          	lw	s3,0(s3)
80000b42:	0b05                	addi	s6,s6,1
80000b44:	06098463          	beqz	s3,80000bac <core_bench_list+0x26c>
80000b48:	136b8c63          	beq	s7,s6,80000c80 <core_bench_list+0x340>
80000b4c:	0009a983          	lw	s3,0(s3)
80000b50:	0b05                	addi	s6,s6,1
80000b52:	84da                	mv	s1,s6
80000b54:	04098c63          	beqz	s3,80000bac <core_bench_list+0x26c>
80000b58:	0009a983          	lw	s3,0(s3)
80000b5c:	0b05                	addi	s6,s6,1
80000b5e:	04098763          	beqz	s3,80000bac <core_bench_list+0x26c>
80000b62:	0009a983          	lw	s3,0(s3)
80000b66:	00248b13          	addi	s6,s1,2
80000b6a:	04098163          	beqz	s3,80000bac <core_bench_list+0x26c>
80000b6e:	0009a983          	lw	s3,0(s3)
80000b72:	00348b13          	addi	s6,s1,3
80000b76:	02098b63          	beqz	s3,80000bac <core_bench_list+0x26c>
80000b7a:	0009a983          	lw	s3,0(s3)
80000b7e:	00448b13          	addi	s6,s1,4
80000b82:	02098563          	beqz	s3,80000bac <core_bench_list+0x26c>
80000b86:	0009a983          	lw	s3,0(s3)
80000b8a:	00548b13          	addi	s6,s1,5
80000b8e:	00098f63          	beqz	s3,80000bac <core_bench_list+0x26c>
80000b92:	0009a983          	lw	s3,0(s3)
80000b96:	00648b13          	addi	s6,s1,6
80000b9a:	00098963          	beqz	s3,80000bac <core_bench_list+0x26c>
80000b9e:	0009a983          	lw	s3,0(s3)
80000ba2:	00748b13          	addi	s6,s1,7
80000ba6:	fa0991e3          	bnez	s3,80000b48 <core_bench_list+0x208>
80000baa:	0001                	nop
80000bac:	8d62                	mv	s10,s8
80000bae:	865e                	mv	a2,s7
80000bb0:	8c4e                	mv	s8,s3
80000bb2:	060b0963          	beqz	s6,80000c24 <core_bench_list+0x2e4>
80000bb6:	0001                	nop
80000bb8:	c245                	beqz	a2,80000c58 <core_bench_list+0x318>
80000bba:	080c0f63          	beqz	s8,80000c58 <core_bench_list+0x318>
80000bbe:	004d2883          	lw	a7,4(s10)
80000bc2:	004c2f83          	lw	t6,4(s8)
80000bc6:	00089683          	lh	a3,0(a7)
80000bca:	002f9583          	lh	a1,2(t6)
80000bce:	00289503          	lh	a0,2(a7)
80000bd2:	01069913          	slli	s2,a3,0x10
80000bd6:	01095093          	srli	ra,s2,0x10
80000bda:	f006f793          	andi	a5,a3,-256
80000bde:	0080d713          	srli	a4,ra,0x8
80000be2:	00e7e333          	or	t1,a5,a4
80000be6:	00689023          	sh	t1,0(a7)
80000bea:	000f9283          	lh	t0,0(t6)
80000bee:	40b503b3          	sub	t2,a0,a1
80000bf2:	01029813          	slli	a6,t0,0x10
80000bf6:	01085a13          	srli	s4,a6,0x10
80000bfa:	f002fa93          	andi	s5,t0,-256
80000bfe:	008a5d93          	srli	s11,s4,0x8
80000c02:	01baecb3          	or	s9,s5,s11
80000c06:	019f9023          	sh	s9,0(t6)
80000c0a:	04705763          	blez	t2,80000c58 <core_bench_list+0x318>
80000c0e:	84e2                	mv	s1,s8
80000c10:	000c2c03          	lw	s8,0(s8)
80000c14:	167d                	addi	a2,a2,-1
80000c16:	020e8063          	beqz	t4,80000c36 <core_bench_list+0x2f6>
80000c1a:	009ea023          	sw	s1,0(t4)
80000c1e:	8ea6                	mv	t4,s1
80000c20:	f80b1ce3          	bnez	s6,80000bb8 <core_bench_list+0x278>
80000c24:	c221                	beqz	a2,80000c64 <core_bench_list+0x324>
80000c26:	040c0163          	beqz	s8,80000c68 <core_bench_list+0x328>
80000c2a:	84e2                	mv	s1,s8
80000c2c:	167d                	addi	a2,a2,-1
80000c2e:	000c2c03          	lw	s8,0(s8)
80000c32:	fe0e94e3          	bnez	t4,80000c1a <core_bench_list+0x2da>
80000c36:	8426                	mv	s0,s1
80000c38:	8ea6                	mv	t4,s1
80000c3a:	b7dd                	j	80000c20 <core_bench_list+0x2e0>
80000c3c:	00442e03          	lw	t3,4(s0)
80000c40:	4fd2                	lw	t6,20(sp)
80000c42:	000e4f03          	lbu	t5,0(t3)
80000c46:	e5ff07e3          	beq	t5,t6,80000a94 <core_bench_list+0x154>
80000c4a:	4000                	lw	s0,0(s0)
80000c4c:	f865                	bnez	s0,80000c3c <core_bench_list+0x2fc>
80000c4e:	000c2403          	lw	s0,0(s8)
80000c52:	e40411e3          	bnez	s0,80000a94 <core_bench_list+0x154>
80000c56:	bda9                	j	80000ab0 <core_bench_list+0x170>
80000c58:	84ea                	mv	s1,s10
80000c5a:	1b7d                	addi	s6,s6,-1
80000c5c:	000d2d03          	lw	s10,0(s10)
80000c60:	bf5d                	j	80000c16 <core_bench_list+0x2d6>
80000c62:	0001                	nop
80000c64:	e60c16e3          	bnez	s8,80000ad0 <core_bench_list+0x190>
80000c68:	000ea023          	sw	zero,0(t4)
80000c6c:	07ee0863          	beq	t3,t5,80000cdc <core_bench_list+0x39c>
80000c70:	0b86                	slli	s7,s7,0x1
80000c72:	2c040863          	beqz	s0,80000f42 <core_bench_list+0x602>
80000c76:	8c22                	mv	s8,s0
80000c78:	4e01                	li	t3,0
80000c7a:	4e81                	li	t4,0
80000c7c:	4401                	li	s0,0
80000c7e:	bd89                	j	80000ad0 <core_bench_list+0x190>
80000c80:	8d62                	mv	s10,s8
80000c82:	8b5e                	mv	s6,s7
80000c84:	865e                	mv	a2,s7
80000c86:	8c4e                	mv	s8,s3
80000c88:	b72d                	j	80000bb2 <core_bench_list+0x272>
80000c8a:	0001                	nop
80000c8c:	380c0163          	beqz	s8,8000100e <core_bench_list+0x6ce>
80000c90:	004c2703          	lw	a4,4(s8)
80000c94:	89e2                	mv	s3,s8
80000c96:	00074083          	lbu	ra,0(a4)
80000c9a:	00169a63          	bne	a3,ra,80000cae <core_bench_list+0x36e>
80000c9e:	bb01                	j	800009ae <core_bench_list+0x6e>
80000ca0:	0049a283          	lw	t0,4(s3)
80000ca4:	4452                	lw	s0,20(sp)
80000ca6:	0002c383          	lbu	t2,0(t0)
80000caa:	d08382e3          	beq	t2,s0,800009ae <core_bench_list+0x6e>
80000cae:	0009a983          	lw	s3,0(s3)
80000cb2:	fe0997e3          	bnez	s3,80000ca0 <core_bench_list+0x360>
80000cb6:	b9e5                	j	800009ae <core_bench_list+0x6e>
80000cb8:	004ba483          	lw	s1,4(s7)
80000cbc:	0e85                	addi	t4,t4,1
80000cbe:	010e9813          	slli	a6,t4,0x10
80000cc2:	00148903          	lb	s2,1(s1)
80000cc6:	01085e93          	srli	t4,a6,0x10
80000cca:	00197993          	andi	s3,s2,1
80000cce:	01330a33          	add	s4,t1,s3
80000cd2:	010a1a93          	slli	s5,s4,0x10
80000cd6:	010ad313          	srli	t1,s5,0x10
80000cda:	bb1d                	j	80000a10 <core_bench_list+0xd0>
80000cdc:	00042c03          	lw	s8,0(s0)
80000ce0:	000c0e63          	beqz	s8,80000cfc <core_bench_list+0x3bc>
80000ce4:	00442e83          	lw	t4,4(s0)
80000ce8:	45f2                	lw	a1,28(sp)
80000cea:	000e9503          	lh	a0,0(t4)
80000cee:	70f020ef          	jal	ra,80003bfc <crc16>
80000cf2:	000c2c03          	lw	s8,0(s8)
80000cf6:	ce2a                	sw	a0,28(sp)
80000cf8:	fe0c16e3          	bnez	s8,80000ce4 <core_bench_list+0x3a4>
80000cfc:	40f6                	lw	ra,92(sp)
80000cfe:	4466                	lw	s0,88(sp)
80000d00:	4572                	lw	a0,28(sp)
80000d02:	44d6                	lw	s1,84(sp)
80000d04:	4946                	lw	s2,80(sp)
80000d06:	49b6                	lw	s3,76(sp)
80000d08:	4a26                	lw	s4,72(sp)
80000d0a:	4a96                	lw	s5,68(sp)
80000d0c:	4b06                	lw	s6,64(sp)
80000d0e:	5bf2                	lw	s7,60(sp)
80000d10:	5c62                	lw	s8,56(sp)
80000d12:	5cd2                	lw	s9,52(sp)
80000d14:	5d42                	lw	s10,48(sp)
80000d16:	5db2                	lw	s11,44(sp)
80000d18:	6125                	addi	sp,sp,96
80000d1a:	8082                	ret
80000d1c:	4505                	li	a0,1
80000d1e:	028d0593          	addi	a1,s10,40
80000d22:	c22a                	sw	a0,4(sp)
80000d24:	cc2e                	sw	a1,24(sp)
80000d26:	200c0e63          	beqz	s8,80000f42 <core_bench_list+0x602>
80000d2a:	0001                	nop
80000d2c:	4481                	li	s1,0
80000d2e:	c402                	sw	zero,8(sp)
80000d30:	c802                	sw	zero,16(sp)
80000d32:	4985                	li	s3,1
80000d34:	4742                	lw	a4,16(sp)
80000d36:	4792                	lw	a5,4(sp)
80000d38:	8de2                	mv	s11,s8
80000d3a:	00170313          	addi	t1,a4,1
80000d3e:	0077f093          	andi	ra,a5,7
80000d42:	c81a                	sw	t1,16(sp)
80000d44:	4c81                	li	s9,0
80000d46:	06008a63          	beqz	ra,80000dba <core_bench_list+0x47a>
80000d4a:	4285                	li	t0,1
80000d4c:	04508f63          	beq	ra,t0,80000daa <core_bench_list+0x46a>
80000d50:	4389                	li	t2,2
80000d52:	04708763          	beq	ra,t2,80000da0 <core_bench_list+0x460>
80000d56:	440d                	li	s0,3
80000d58:	02808f63          	beq	ra,s0,80000d96 <core_bench_list+0x456>
80000d5c:	4e91                	li	t4,4
80000d5e:	03d08763          	beq	ra,t4,80000d8c <core_bench_list+0x44c>
80000d62:	4815                	li	a6,5
80000d64:	01008f63          	beq	ra,a6,80000d82 <core_bench_list+0x442>
80000d68:	4919                	li	s2,6
80000d6a:	01208763          	beq	ra,s2,80000d78 <core_bench_list+0x438>
80000d6e:	000c2d83          	lw	s11,0(s8)
80000d72:	4c85                	li	s9,1
80000d74:	0a0d8263          	beqz	s11,80000e18 <core_bench_list+0x4d8>
80000d78:	000dad83          	lw	s11,0(s11)
80000d7c:	0c85                	addi	s9,s9,1
80000d7e:	080d8d63          	beqz	s11,80000e18 <core_bench_list+0x4d8>
80000d82:	000dad83          	lw	s11,0(s11)
80000d86:	0c85                	addi	s9,s9,1
80000d88:	080d8863          	beqz	s11,80000e18 <core_bench_list+0x4d8>
80000d8c:	000dad83          	lw	s11,0(s11)
80000d90:	0c85                	addi	s9,s9,1
80000d92:	080d8363          	beqz	s11,80000e18 <core_bench_list+0x4d8>
80000d96:	000dad83          	lw	s11,0(s11)
80000d9a:	0c85                	addi	s9,s9,1
80000d9c:	060d8e63          	beqz	s11,80000e18 <core_bench_list+0x4d8>
80000da0:	000dad83          	lw	s11,0(s11)
80000da4:	0c85                	addi	s9,s9,1
80000da6:	060d8963          	beqz	s11,80000e18 <core_bench_list+0x4d8>
80000daa:	000dad83          	lw	s11,0(s11)
80000dae:	0c85                	addi	s9,s9,1
80000db0:	060d8463          	beqz	s11,80000e18 <core_bench_list+0x4d8>
80000db4:	4a12                	lw	s4,4(sp)
80000db6:	074c8163          	beq	s9,s4,80000e18 <core_bench_list+0x4d8>
80000dba:	000dad83          	lw	s11,0(s11)
80000dbe:	0c85                	addi	s9,s9,1
80000dc0:	8ae6                	mv	s5,s9
80000dc2:	040d8b63          	beqz	s11,80000e18 <core_bench_list+0x4d8>
80000dc6:	000dad83          	lw	s11,0(s11)
80000dca:	0c85                	addi	s9,s9,1
80000dcc:	040d8663          	beqz	s11,80000e18 <core_bench_list+0x4d8>
80000dd0:	000dad83          	lw	s11,0(s11)
80000dd4:	002a8c93          	addi	s9,s5,2
80000dd8:	040d8063          	beqz	s11,80000e18 <core_bench_list+0x4d8>
80000ddc:	000dad83          	lw	s11,0(s11)
80000de0:	003a8c93          	addi	s9,s5,3
80000de4:	020d8a63          	beqz	s11,80000e18 <core_bench_list+0x4d8>
80000de8:	000dad83          	lw	s11,0(s11)
80000dec:	004a8c93          	addi	s9,s5,4
80000df0:	020d8463          	beqz	s11,80000e18 <core_bench_list+0x4d8>
80000df4:	000dad83          	lw	s11,0(s11)
80000df8:	005a8c93          	addi	s9,s5,5
80000dfc:	000d8e63          	beqz	s11,80000e18 <core_bench_list+0x4d8>
80000e00:	000dad83          	lw	s11,0(s11)
80000e04:	006a8c93          	addi	s9,s5,6
80000e08:	000d8863          	beqz	s11,80000e18 <core_bench_list+0x4d8>
80000e0c:	000dad83          	lw	s11,0(s11)
80000e10:	007a8c93          	addi	s9,s5,7
80000e14:	fa0d90e3          	bnez	s11,80000db4 <core_bench_list+0x474>
80000e18:	4b92                	lw	s7,4(sp)
80000e1a:	0e0c8063          	beqz	s9,80000efa <core_bench_list+0x5ba>
80000e1e:	0001                	nop
80000e20:	0e0b8a63          	beqz	s7,80000f14 <core_bench_list+0x5d4>
80000e24:	0e0d8863          	beqz	s11,80000f14 <core_bench_list+0x5d4>
80000e28:	004c2b03          	lw	s6,4(s8)
80000e2c:	004da903          	lw	s2,4(s11)
80000e30:	000b1a03          	lh	s4,0(s6)
80000e34:	080a7e13          	andi	t3,s4,128
80000e38:	07fa7a93          	andi	s5,s4,127
80000e3c:	040e1663          	bnez	t3,80000e88 <core_bench_list+0x548>
80000e40:	403a5f13          	srai	t5,s4,0x3
80000e44:	00ff7893          	andi	a7,t5,15
80000e48:	00489f93          	slli	t6,a7,0x4
80000e4c:	007a7693          	andi	a3,s4,7
80000e50:	01f8e5b3          	or	a1,a7,t6
80000e54:	038d5783          	lhu	a5,56(s10)
80000e58:	10068863          	beqz	a3,80000f68 <core_bench_list+0x628>
80000e5c:	0f368663          	beq	a3,s3,80000f48 <core_bench_list+0x608>
80000e60:	010a1293          	slli	t0,s4,0x10
80000e64:	0102d513          	srli	a0,t0,0x10
80000e68:	8ad2                	mv	s5,s4
80000e6a:	85be                	mv	a1,a5
80000e6c:	680020ef          	jal	ra,800034ec <crcu16>
80000e70:	07fafa93          	andi	s5,s5,127
80000e74:	f00a7393          	andi	t2,s4,-256
80000e78:	007ae833          	or	a6,s5,t2
80000e7c:	02ad1c23          	sh	a0,56(s10)
80000e80:	08086613          	ori	a2,a6,128
80000e84:	00cb1023          	sh	a2,0(s6)
80000e88:	00091b03          	lh	s6,0(s2)
80000e8c:	080b7e93          	andi	t4,s6,128
80000e90:	07fb7313          	andi	t1,s6,127
80000e94:	040e9563          	bnez	t4,80000ede <core_bench_list+0x59e>
80000e98:	403b5413          	srai	s0,s6,0x3
80000e9c:	00f47a13          	andi	s4,s0,15
80000ea0:	004a1e13          	slli	t3,s4,0x4
80000ea4:	007b7f13          	andi	t5,s6,7
80000ea8:	01ca65b3          	or	a1,s4,t3
80000eac:	038d5783          	lhu	a5,56(s10)
80000eb0:	100f0c63          	beqz	t5,80000fc8 <core_bench_list+0x688>
80000eb4:	0f3f0a63          	beq	t5,s3,80000fa8 <core_bench_list+0x668>
80000eb8:	010b1513          	slli	a0,s6,0x10
80000ebc:	8141                	srli	a0,a0,0x10
80000ebe:	845a                	mv	s0,s6
80000ec0:	85be                	mv	a1,a5
80000ec2:	62a020ef          	jal	ra,800034ec <crcu16>
80000ec6:	07f47313          	andi	t1,s0,127
80000eca:	f00b7293          	andi	t0,s6,-256
80000ece:	005363b3          	or	t2,t1,t0
80000ed2:	02ad1c23          	sh	a0,56(s10)
80000ed6:	0803e813          	ori	a6,t2,128
80000eda:	01091023          	sh	a6,0(s2)
80000ede:	406a8933          	sub	s2,s5,t1
80000ee2:	03205963          	blez	s2,80000f14 <core_bench_list+0x5d4>
80000ee6:	80ee                	mv	ra,s11
80000ee8:	000dad83          	lw	s11,0(s11)
80000eec:	1bfd                	addi	s7,s7,-1
80000eee:	cc99                	beqz	s1,80000f0c <core_bench_list+0x5cc>
80000ef0:	0014a023          	sw	ra,0(s1)
80000ef4:	8486                	mv	s1,ra
80000ef6:	f20c95e3          	bnez	s9,80000e20 <core_bench_list+0x4e0>
80000efa:	020b8363          	beqz	s7,80000f20 <core_bench_list+0x5e0>
80000efe:	020d8563          	beqz	s11,80000f28 <core_bench_list+0x5e8>
80000f02:	80ee                	mv	ra,s11
80000f04:	1bfd                	addi	s7,s7,-1
80000f06:	000dad83          	lw	s11,0(s11)
80000f0a:	f0fd                	bnez	s1,80000ef0 <core_bench_list+0x5b0>
80000f0c:	c406                	sw	ra,8(sp)
80000f0e:	8486                	mv	s1,ra
80000f10:	b7dd                	j	80000ef6 <core_bench_list+0x5b6>
80000f12:	0001                	nop
80000f14:	80e2                	mv	ra,s8
80000f16:	1cfd                	addi	s9,s9,-1
80000f18:	000c2c03          	lw	s8,0(s8)
80000f1c:	bfc9                	j	80000eee <core_bench_list+0x5ae>
80000f1e:	0001                	nop
80000f20:	8c6e                	mv	s8,s11
80000f22:	e00d99e3          	bnez	s11,80000d34 <core_bench_list+0x3f4>
80000f26:	0001                	nop
80000f28:	0004a023          	sw	zero,0(s1)
80000f2c:	44c2                	lw	s1,16(sp)
80000f2e:	4c05                	li	s8,1
80000f30:	0d848d63          	beq	s1,s8,8000100a <core_bench_list+0x6ca>
80000f34:	4992                	lw	s3,4(sp)
80000f36:	4c22                	lw	s8,8(sp)
80000f38:	00199b13          	slli	s6,s3,0x1
80000f3c:	c25a                	sw	s6,4(sp)
80000f3e:	de0c17e3          	bnez	s8,80000d2c <core_bench_list+0x3ec>
80000f42:	00002023          	sw	zero,0(zero) # 0 <__stack_size-0x800>
80000f46:	9002                	ebreak
80000f48:	4562                	lw	a0,24(sp)
80000f4a:	863e                	mv	a2,a5
80000f4c:	489010ef          	jal	ra,80002bd4 <core_bench_matrix>
80000f50:	03cd5703          	lhu	a4,60(s10)
80000f54:	01051313          	slli	t1,a0,0x10
80000f58:	41035a93          	srai	s5,t1,0x10
80000f5c:	e331                	bnez	a4,80000fa0 <core_bench_list+0x660>
80000f5e:	038d5783          	lhu	a5,56(s10)
80000f62:	02ad1e23          	sh	a0,60(s10)
80000f66:	b711                	j	80000e6a <core_bench_list+0x52a>
80000f68:	02200513          	li	a0,34
80000f6c:	80ae                	mv	ra,a1
80000f6e:	00a5d463          	bge	a1,a0,80000f76 <core_bench_list+0x636>
80000f72:	02200093          	li	ra,34
80000f76:	014d2583          	lw	a1,20(s10)
80000f7a:	002d1683          	lh	a3,2(s10)
80000f7e:	000d1603          	lh	a2,0(s10)
80000f82:	018d2503          	lw	a0,24(s10)
80000f86:	0ff0f713          	andi	a4,ra,255
80000f8a:	3c6020ef          	jal	ra,80003350 <core_bench_state>
80000f8e:	03ed5583          	lhu	a1,62(s10)
80000f92:	01051793          	slli	a5,a0,0x10
80000f96:	4107da93          	srai	s5,a5,0x10
80000f9a:	e199                	bnez	a1,80000fa0 <core_bench_list+0x660>
80000f9c:	02ad1f23          	sh	a0,62(s10)
80000fa0:	038d5783          	lhu	a5,56(s10)
80000fa4:	b5d9                	j	80000e6a <core_bench_list+0x52a>
80000fa6:	0001                	nop
80000fa8:	4562                	lw	a0,24(sp)
80000faa:	863e                	mv	a2,a5
80000fac:	429010ef          	jal	ra,80002bd4 <core_bench_matrix>
80000fb0:	03cd5783          	lhu	a5,60(s10)
80000fb4:	01051713          	slli	a4,a0,0x10
80000fb8:	41075413          	srai	s0,a4,0x10
80000fbc:	e3b1                	bnez	a5,80001000 <core_bench_list+0x6c0>
80000fbe:	038d5783          	lhu	a5,56(s10)
80000fc2:	02ad1e23          	sh	a0,60(s10)
80000fc6:	bded                	j	80000ec0 <core_bench_list+0x580>
80000fc8:	02200893          	li	a7,34
80000fcc:	8fae                	mv	t6,a1
80000fce:	0115d463          	bge	a1,a7,80000fd6 <core_bench_list+0x696>
80000fd2:	02200f93          	li	t6,34
80000fd6:	002d1683          	lh	a3,2(s10)
80000fda:	014d2583          	lw	a1,20(s10)
80000fde:	000d1603          	lh	a2,0(s10)
80000fe2:	018d2503          	lw	a0,24(s10)
80000fe6:	0ffff713          	andi	a4,t6,255
80000fea:	366020ef          	jal	ra,80003350 <core_bench_state>
80000fee:	03ed5683          	lhu	a3,62(s10)
80000ff2:	01051593          	slli	a1,a0,0x10
80000ff6:	4105d413          	srai	s0,a1,0x10
80000ffa:	e299                	bnez	a3,80001000 <core_bench_list+0x6c0>
80000ffc:	02ad1f23          	sh	a0,62(s10)
80001000:	038d5783          	lhu	a5,56(s10)
80001004:	bd75                	j	80000ec0 <core_bench_list+0x580>
80001006:	ce02                	sw	zero,28(sp)
80001008:	b481                	j	80000a48 <core_bench_list+0x108>
8000100a:	4c22                	lw	s8,8(sp)
8000100c:	b489                	j	80000a4e <core_bench_list+0x10e>
8000100e:	00002783          	lw	a5,0(zero) # 0 <__stack_size-0x800>
80001012:	9002                	ebreak
80001014:	0000                	unimp
	...

80001018 <core_list_init>:
80001018:	47d1                	li	a5,20
8000101a:	02f55533          	divu	a0,a0,a5
8000101e:	7861                	lui	a6,0xffff8
80001020:	0005a023          	sw	zero,0(a1)
80001024:	08080693          	addi	a3,a6,128 # ffff8080 <_sp+0x6ffe8080>
80001028:	01058713          	addi	a4,a1,16
8000102c:	00858793          	addi	a5,a1,8
80001030:	1579                	addi	a0,a0,-2
80001032:	00351893          	slli	a7,a0,0x3
80001036:	98ae                	add	a7,a7,a1
80001038:	0115a223          	sw	a7,4(a1)
8000103c:	00251e13          	slli	t3,a0,0x2
80001040:	00089123          	sh	zero,2(a7)
80001044:	00d89023          	sh	a3,0(a7)
80001048:	9e46                	add	t3,t3,a7
8000104a:	00488313          	addi	t1,a7,4
8000104e:	3f177d63          	bgeu	a4,a7,80001448 <core_list_init+0x430>
80001052:	00888693          	addi	a3,a7,8
80001056:	3fc6f963          	bgeu	a3,t3,80001448 <core_list_init+0x430>
8000105a:	0005a423          	sw	zero,8(a1)
8000105e:	c19c                	sw	a5,0(a1)
80001060:	0065a623          	sw	t1,12(a1)
80001064:	fff84293          	not	t0,a6
80001068:	53fd                	li	t2,-1
8000106a:	00789223          	sh	t2,4(a7)
8000106e:	00589323          	sh	t0,6(a7)
80001072:	20050d63          	beqz	a0,8000128c <core_list_init+0x274>
80001076:	01061f13          	slli	t5,a2,0x10
8000107a:	7ee1                	lui	t4,0xffff8
8000107c:	00357313          	andi	t1,a0,3
80001080:	010f5f13          	srli	t5,t5,0x10
80001084:	4801                	li	a6,0
80001086:	fffece93          	not	t4,t4
8000108a:	0c030d63          	beqz	t1,80001164 <core_list_init+0x14c>
8000108e:	4f85                	li	t6,1
80001090:	09f30463          	beq	t1,t6,80001118 <core_list_init+0x100>
80001094:	4289                	li	t0,2
80001096:	02530d63          	beq	t1,t0,800010d0 <core_list_init+0xb8>
8000109a:	00870393          	addi	t2,a4,8
8000109e:	0313f863          	bgeu	t2,a7,800010ce <core_list_init+0xb6>
800010a2:	00468313          	addi	t1,a3,4
800010a6:	03c37463          	bgeu	t1,t3,800010ce <core_list_init+0xb6>
800010aa:	003f1813          	slli	a6,t5,0x3
800010ae:	c31c                	sw	a5,0(a4)
800010b0:	07887793          	andi	a5,a6,120
800010b4:	c198                	sw	a4,0(a1)
800010b6:	00879f93          	slli	t6,a5,0x8
800010ba:	c354                	sw	a3,4(a4)
800010bc:	00ffe2b3          	or	t0,t6,a5
800010c0:	00569023          	sh	t0,0(a3)
800010c4:	01d69123          	sh	t4,2(a3)
800010c8:	87ba                	mv	a5,a4
800010ca:	869a                	mv	a3,t1
800010cc:	871e                	mv	a4,t2
800010ce:	4805                	li	a6,1
800010d0:	00870293          	addi	t0,a4,8
800010d4:	0512f163          	bgeu	t0,a7,80001116 <core_list_init+0xfe>
800010d8:	00468393          	addi	t2,a3,4
800010dc:	03c3fd63          	bgeu	t2,t3,80001116 <core_list_init+0xfe>
800010e0:	01081313          	slli	t1,a6,0x10
800010e4:	01035f93          	srli	t6,t1,0x10
800010e8:	01efc333          	xor	t1,t6,t5
800010ec:	030e                	slli	t1,t1,0x3
800010ee:	07837313          	andi	t1,t1,120
800010f2:	007fff93          	andi	t6,t6,7
800010f6:	c31c                	sw	a5,0(a4)
800010f8:	01f367b3          	or	a5,t1,t6
800010fc:	c198                	sw	a4,0(a1)
800010fe:	00879313          	slli	t1,a5,0x8
80001102:	c354                	sw	a3,4(a4)
80001104:	00f36fb3          	or	t6,t1,a5
80001108:	01f69023          	sh	t6,0(a3)
8000110c:	01d69123          	sh	t4,2(a3)
80001110:	87ba                	mv	a5,a4
80001112:	869e                	mv	a3,t2
80001114:	8716                	mv	a4,t0
80001116:	0805                	addi	a6,a6,1
80001118:	00870293          	addi	t0,a4,8
8000111c:	0512f163          	bgeu	t0,a7,8000115e <core_list_init+0x146>
80001120:	00468393          	addi	t2,a3,4
80001124:	03c3fd63          	bgeu	t2,t3,8000115e <core_list_init+0x146>
80001128:	01081313          	slli	t1,a6,0x10
8000112c:	01035f93          	srli	t6,t1,0x10
80001130:	01efc333          	xor	t1,t6,t5
80001134:	030e                	slli	t1,t1,0x3
80001136:	07837313          	andi	t1,t1,120
8000113a:	007fff93          	andi	t6,t6,7
8000113e:	c31c                	sw	a5,0(a4)
80001140:	01f367b3          	or	a5,t1,t6
80001144:	c198                	sw	a4,0(a1)
80001146:	00879313          	slli	t1,a5,0x8
8000114a:	c354                	sw	a3,4(a4)
8000114c:	00f36fb3          	or	t6,t1,a5
80001150:	01f69023          	sh	t6,0(a3)
80001154:	01d69123          	sh	t4,2(a3)
80001158:	87ba                	mv	a5,a4
8000115a:	869e                	mv	a3,t2
8000115c:	8716                	mv	a4,t0
8000115e:	0805                	addi	a6,a6,1
80001160:	13050663          	beq	a0,a6,8000128c <core_list_init+0x274>
80001164:	00870293          	addi	t0,a4,8
80001168:	0512f163          	bgeu	t0,a7,800011aa <core_list_init+0x192>
8000116c:	00468393          	addi	t2,a3,4
80001170:	03c3fd63          	bgeu	t2,t3,800011aa <core_list_init+0x192>
80001174:	01081313          	slli	t1,a6,0x10
80001178:	01035f93          	srli	t6,t1,0x10
8000117c:	01efc333          	xor	t1,t6,t5
80001180:	030e                	slli	t1,t1,0x3
80001182:	07837313          	andi	t1,t1,120
80001186:	007fff93          	andi	t6,t6,7
8000118a:	c31c                	sw	a5,0(a4)
8000118c:	01f367b3          	or	a5,t1,t6
80001190:	c198                	sw	a4,0(a1)
80001192:	00879313          	slli	t1,a5,0x8
80001196:	c354                	sw	a3,4(a4)
80001198:	00f36fb3          	or	t6,t1,a5
8000119c:	01f69023          	sh	t6,0(a3)
800011a0:	01d69123          	sh	t4,2(a3)
800011a4:	87ba                	mv	a5,a4
800011a6:	869e                	mv	a3,t2
800011a8:	8716                	mv	a4,t0
800011aa:	00870293          	addi	t0,a4,8
800011ae:	0805                	addi	a6,a6,1
800011b0:	0512f163          	bgeu	t0,a7,800011f2 <core_list_init+0x1da>
800011b4:	00468393          	addi	t2,a3,4
800011b8:	03c3fd63          	bgeu	t2,t3,800011f2 <core_list_init+0x1da>
800011bc:	01081313          	slli	t1,a6,0x10
800011c0:	01035f93          	srli	t6,t1,0x10
800011c4:	01efc333          	xor	t1,t6,t5
800011c8:	030e                	slli	t1,t1,0x3
800011ca:	07837313          	andi	t1,t1,120
800011ce:	007fff93          	andi	t6,t6,7
800011d2:	c31c                	sw	a5,0(a4)
800011d4:	01f367b3          	or	a5,t1,t6
800011d8:	c198                	sw	a4,0(a1)
800011da:	00879313          	slli	t1,a5,0x8
800011de:	c354                	sw	a3,4(a4)
800011e0:	00f36fb3          	or	t6,t1,a5
800011e4:	01f69023          	sh	t6,0(a3)
800011e8:	01d69123          	sh	t4,2(a3)
800011ec:	87ba                	mv	a5,a4
800011ee:	869e                	mv	a3,t2
800011f0:	8716                	mv	a4,t0
800011f2:	00870293          	addi	t0,a4,8
800011f6:	00180313          	addi	t1,a6,1
800011fa:	0512f163          	bgeu	t0,a7,8000123c <core_list_init+0x224>
800011fe:	00468393          	addi	t2,a3,4
80001202:	03c3fd63          	bgeu	t2,t3,8000123c <core_list_init+0x224>
80001206:	01031f93          	slli	t6,t1,0x10
8000120a:	010fdf93          	srli	t6,t6,0x10
8000120e:	01efc333          	xor	t1,t6,t5
80001212:	030e                	slli	t1,t1,0x3
80001214:	07837313          	andi	t1,t1,120
80001218:	007fff93          	andi	t6,t6,7
8000121c:	c31c                	sw	a5,0(a4)
8000121e:	01f367b3          	or	a5,t1,t6
80001222:	c198                	sw	a4,0(a1)
80001224:	00879313          	slli	t1,a5,0x8
80001228:	c354                	sw	a3,4(a4)
8000122a:	00f36fb3          	or	t6,t1,a5
8000122e:	01f69023          	sh	t6,0(a3)
80001232:	01d69123          	sh	t4,2(a3)
80001236:	87ba                	mv	a5,a4
80001238:	869e                	mv	a3,t2
8000123a:	8716                	mv	a4,t0
8000123c:	00870293          	addi	t0,a4,8
80001240:	00280313          	addi	t1,a6,2
80001244:	0512f163          	bgeu	t0,a7,80001286 <core_list_init+0x26e>
80001248:	00468393          	addi	t2,a3,4
8000124c:	03c3fd63          	bgeu	t2,t3,80001286 <core_list_init+0x26e>
80001250:	01031f93          	slli	t6,t1,0x10
80001254:	010fdf93          	srli	t6,t6,0x10
80001258:	01efc333          	xor	t1,t6,t5
8000125c:	030e                	slli	t1,t1,0x3
8000125e:	07837313          	andi	t1,t1,120
80001262:	007fff93          	andi	t6,t6,7
80001266:	c31c                	sw	a5,0(a4)
80001268:	01f367b3          	or	a5,t1,t6
8000126c:	c198                	sw	a4,0(a1)
8000126e:	00879313          	slli	t1,a5,0x8
80001272:	c354                	sw	a3,4(a4)
80001274:	00f36fb3          	or	t6,t1,a5
80001278:	01f69023          	sh	t6,0(a3)
8000127c:	01d69123          	sh	t4,2(a3)
80001280:	87ba                	mv	a5,a4
80001282:	869e                	mv	a3,t2
80001284:	8716                	mv	a4,t0
80001286:	080d                	addi	a6,a6,3
80001288:	ed051ee3          	bne	a0,a6,80001164 <core_list_init+0x14c>
8000128c:	0007a883          	lw	a7,0(a5)
80001290:	04088e63          	beqz	a7,800012ec <core_list_init+0x2d4>
80001294:	4e15                	li	t3,5
80001296:	03c55f33          	divu	t5,a0,t3
8000129a:	6511                	lui	a0,0x4
8000129c:	4685                	li	a3,1
8000129e:	fff50e93          	addi	t4,a0,-1 # 3fff <__stack_size+0x37ff>
800012a2:	a809                	j	800012b4 <core_list_init+0x29c>
800012a4:	439c                	lw	a5,0(a5)
800012a6:	00d29123          	sh	a3,2(t0)
800012aa:	0685                	addi	a3,a3,1
800012ac:	0007a283          	lw	t0,0(a5)
800012b0:	02028e63          	beqz	t0,800012ec <core_list_init+0x2d4>
800012b4:	0047a283          	lw	t0,4(a5)
800012b8:	ffe6e6e3          	bltu	a3,t5,800012a4 <core_list_init+0x28c>
800012bc:	01069393          	slli	t2,a3,0x10
800012c0:	0103d313          	srli	t1,t2,0x10
800012c4:	00130f93          	addi	t6,t1,1 # fffff001 <_sp+0x6ffef001>
800012c8:	008f9713          	slli	a4,t6,0x8
800012cc:	70077813          	andi	a6,a4,1792
800012d0:	00c348b3          	xor	a7,t1,a2
800012d4:	439c                	lw	a5,0(a5)
800012d6:	01186e33          	or	t3,a6,a7
800012da:	01de7533          	and	a0,t3,t4
800012de:	00a29123          	sh	a0,2(t0)
800012e2:	0007a283          	lw	t0,0(a5)
800012e6:	0685                	addi	a3,a3,1
800012e8:	fc0296e3          	bnez	t0,800012b4 <core_list_init+0x29c>
800012ec:	4805                	li	a6,1
800012ee:	4881                	li	a7,0
800012f0:	4501                	li	a0,0
800012f2:	4f81                	li	t6,0
800012f4:	4285                	li	t0,1
800012f6:	0001                	nop
800012f8:	00787f13          	andi	t5,a6,7
800012fc:	0f85                	addi	t6,t6,1
800012fe:	87ae                	mv	a5,a1
80001300:	4701                	li	a4,0
80001302:	040f0b63          	beqz	t5,80001358 <core_list_init+0x340>
80001306:	4605                	li	a2,1
80001308:	04cf0363          	beq	t5,a2,8000134e <core_list_init+0x336>
8000130c:	4e89                	li	t4,2
8000130e:	03df0d63          	beq	t5,t4,80001348 <core_list_init+0x330>
80001312:	438d                	li	t2,3
80001314:	027f0763          	beq	t5,t2,80001342 <core_list_init+0x32a>
80001318:	4311                	li	t1,4
8000131a:	026f0163          	beq	t5,t1,8000133c <core_list_init+0x324>
8000131e:	4e15                	li	t3,5
80001320:	01cf0b63          	beq	t5,t3,80001336 <core_list_init+0x31e>
80001324:	4699                	li	a3,6
80001326:	00df0563          	beq	t5,a3,80001330 <core_list_init+0x318>
8000132a:	419c                	lw	a5,0(a1)
8000132c:	4705                	li	a4,1
8000132e:	c7ad                	beqz	a5,80001398 <core_list_init+0x380>
80001330:	439c                	lw	a5,0(a5)
80001332:	0705                	addi	a4,a4,1
80001334:	c3b5                	beqz	a5,80001398 <core_list_init+0x380>
80001336:	439c                	lw	a5,0(a5)
80001338:	0705                	addi	a4,a4,1
8000133a:	cfb9                	beqz	a5,80001398 <core_list_init+0x380>
8000133c:	439c                	lw	a5,0(a5)
8000133e:	0705                	addi	a4,a4,1
80001340:	cfa1                	beqz	a5,80001398 <core_list_init+0x380>
80001342:	439c                	lw	a5,0(a5)
80001344:	0705                	addi	a4,a4,1
80001346:	cba9                	beqz	a5,80001398 <core_list_init+0x380>
80001348:	439c                	lw	a5,0(a5)
8000134a:	0705                	addi	a4,a4,1
8000134c:	c7b1                	beqz	a5,80001398 <core_list_init+0x380>
8000134e:	439c                	lw	a5,0(a5)
80001350:	0705                	addi	a4,a4,1
80001352:	c3b9                	beqz	a5,80001398 <core_list_init+0x380>
80001354:	05070263          	beq	a4,a6,80001398 <core_list_init+0x380>
80001358:	439c                	lw	a5,0(a5)
8000135a:	0705                	addi	a4,a4,1
8000135c:	8f3a                	mv	t5,a4
8000135e:	cf8d                	beqz	a5,80001398 <core_list_init+0x380>
80001360:	439c                	lw	a5,0(a5)
80001362:	0705                	addi	a4,a4,1
80001364:	cb95                	beqz	a5,80001398 <core_list_init+0x380>
80001366:	439c                	lw	a5,0(a5)
80001368:	002f0713          	addi	a4,t5,2
8000136c:	c795                	beqz	a5,80001398 <core_list_init+0x380>
8000136e:	439c                	lw	a5,0(a5)
80001370:	003f0713          	addi	a4,t5,3
80001374:	c395                	beqz	a5,80001398 <core_list_init+0x380>
80001376:	439c                	lw	a5,0(a5)
80001378:	004f0713          	addi	a4,t5,4
8000137c:	cf91                	beqz	a5,80001398 <core_list_init+0x380>
8000137e:	439c                	lw	a5,0(a5)
80001380:	005f0713          	addi	a4,t5,5
80001384:	cb91                	beqz	a5,80001398 <core_list_init+0x380>
80001386:	439c                	lw	a5,0(a5)
80001388:	006f0713          	addi	a4,t5,6
8000138c:	c791                	beqz	a5,80001398 <core_list_init+0x380>
8000138e:	439c                	lw	a5,0(a5)
80001390:	007f0713          	addi	a4,t5,7
80001394:	f3e1                	bnez	a5,80001354 <core_list_init+0x33c>
80001396:	0001                	nop
80001398:	86ae                	mv	a3,a1
8000139a:	8642                	mv	a2,a6
8000139c:	85be                	mv	a1,a5
8000139e:	c725                	beqz	a4,80001406 <core_list_init+0x3ee>
800013a0:	ce35                	beqz	a2,8000141c <core_list_init+0x404>
800013a2:	cdad                	beqz	a1,8000141c <core_list_init+0x404>
800013a4:	0046ae83          	lw	t4,4(a3)
800013a8:	0045ae03          	lw	t3,4(a1)
800013ac:	000e9783          	lh	a5,0(t4) # ffff8000 <_sp+0x6ffe8000>
800013b0:	002e1383          	lh	t2,2(t3)
800013b4:	002e9303          	lh	t1,2(t4)
800013b8:	01079f13          	slli	t5,a5,0x10
800013bc:	010f5f13          	srli	t5,t5,0x10
800013c0:	008f5f13          	srli	t5,t5,0x8
800013c4:	f007f793          	andi	a5,a5,-256
800013c8:	01e7e7b3          	or	a5,a5,t5
800013cc:	00fe9023          	sh	a5,0(t4)
800013d0:	000e1f03          	lh	t5,0(t3)
800013d4:	40730333          	sub	t1,t1,t2
800013d8:	010f1e93          	slli	t4,t5,0x10
800013dc:	010ed393          	srli	t2,t4,0x10
800013e0:	f00f7793          	andi	a5,t5,-256
800013e4:	0083df13          	srli	t5,t2,0x8
800013e8:	01e7eeb3          	or	t4,a5,t5
800013ec:	01de1023          	sh	t4,0(t3)
800013f0:	02605663          	blez	t1,8000141c <core_list_init+0x404>
800013f4:	8e2e                	mv	t3,a1
800013f6:	418c                	lw	a1,0(a1)
800013f8:	167d                	addi	a2,a2,-1
800013fa:	00088d63          	beqz	a7,80001414 <core_list_init+0x3fc>
800013fe:	01c8a023          	sw	t3,0(a7)
80001402:	88f2                	mv	a7,t3
80001404:	ff51                	bnez	a4,800013a0 <core_list_init+0x388>
80001406:	ce19                	beqz	a2,80001424 <core_list_init+0x40c>
80001408:	c185                	beqz	a1,80001428 <core_list_init+0x410>
8000140a:	8e2e                	mv	t3,a1
8000140c:	167d                	addi	a2,a2,-1
8000140e:	418c                	lw	a1,0(a1)
80001410:	fe0897e3          	bnez	a7,800013fe <core_list_init+0x3e6>
80001414:	8572                	mv	a0,t3
80001416:	88f2                	mv	a7,t3
80001418:	b7f5                	j	80001404 <core_list_init+0x3ec>
8000141a:	0001                	nop
8000141c:	8e36                	mv	t3,a3
8000141e:	177d                	addi	a4,a4,-1
80001420:	4294                	lw	a3,0(a3)
80001422:	bfe1                	j	800013fa <core_list_init+0x3e2>
80001424:	ec059ae3          	bnez	a1,800012f8 <core_list_init+0x2e0>
80001428:	0008a023          	sw	zero,0(a7)
8000142c:	005f8a63          	beq	t6,t0,80001440 <core_list_init+0x428>
80001430:	0806                	slli	a6,a6,0x1
80001432:	c901                	beqz	a0,80001442 <core_list_init+0x42a>
80001434:	85aa                	mv	a1,a0
80001436:	4f81                	li	t6,0
80001438:	4881                	li	a7,0
8000143a:	4501                	li	a0,0
8000143c:	bd75                	j	800012f8 <core_list_init+0x2e0>
8000143e:	0001                	nop
80001440:	8082                	ret
80001442:	00002023          	sw	zero,0(zero) # 0 <__stack_size-0x800>
80001446:	9002                	ebreak
80001448:	873e                	mv	a4,a5
8000144a:	869a                	mv	a3,t1
8000144c:	4781                	li	a5,0
8000144e:	b115                	j	80001072 <core_list_init+0x5a>

80001450 <iterate>:
80001450:	1101                	addi	sp,sp,-32
80001452:	c64e                	sw	s3,12(sp)
80001454:	01c52983          	lw	s3,28(a0)
80001458:	ce06                	sw	ra,28(sp)
8000145a:	cc22                	sw	s0,24(sp)
8000145c:	ca26                	sw	s1,20(sp)
8000145e:	c84a                	sw	s2,16(sp)
80001460:	c452                	sw	s4,8(sp)
80001462:	c256                	sw	s5,4(sp)
80001464:	02052c23          	sw	zero,56(a0)
80001468:	02052e23          	sw	zero,60(a0)
8000146c:	16098d63          	beqz	s3,800015e6 <iterate+0x196>
80001470:	0039f793          	andi	a5,s3,3
80001474:	842a                	mv	s0,a0
80001476:	4481                	li	s1,0
80001478:	cfd1                	beqz	a5,80001514 <iterate+0xc4>
8000147a:	4705                	li	a4,1
8000147c:	06e78263          	beq	a5,a4,800014e0 <iterate+0x90>
80001480:	4089                	li	ra,2
80001482:	02178863          	beq	a5,ra,800014b2 <iterate+0x62>
80001486:	4585                	li	a1,1
80001488:	cb8ff0ef          	jal	ra,80000940 <core_bench_list>
8000148c:	03845583          	lhu	a1,56(s0)
80001490:	4485                	li	s1,1
80001492:	05a020ef          	jal	ra,800034ec <crcu16>
80001496:	02a41c23          	sh	a0,56(s0)
8000149a:	55fd                	li	a1,-1
8000149c:	8522                	mv	a0,s0
8000149e:	ca2ff0ef          	jal	ra,80000940 <core_bench_list>
800014a2:	03845583          	lhu	a1,56(s0)
800014a6:	046020ef          	jal	ra,800034ec <crcu16>
800014aa:	02a41c23          	sh	a0,56(s0)
800014ae:	02a41d23          	sh	a0,58(s0)
800014b2:	4585                	li	a1,1
800014b4:	8522                	mv	a0,s0
800014b6:	c8aff0ef          	jal	ra,80000940 <core_bench_list>
800014ba:	03845583          	lhu	a1,56(s0)
800014be:	02e020ef          	jal	ra,800034ec <crcu16>
800014c2:	02a41c23          	sh	a0,56(s0)
800014c6:	55fd                	li	a1,-1
800014c8:	8522                	mv	a0,s0
800014ca:	c76ff0ef          	jal	ra,80000940 <core_bench_list>
800014ce:	03845583          	lhu	a1,56(s0)
800014d2:	01a020ef          	jal	ra,800034ec <crcu16>
800014d6:	02a41c23          	sh	a0,56(s0)
800014da:	12048d63          	beqz	s1,80001614 <iterate+0x1c4>
800014de:	0485                	addi	s1,s1,1
800014e0:	4585                	li	a1,1
800014e2:	8522                	mv	a0,s0
800014e4:	c5cff0ef          	jal	ra,80000940 <core_bench_list>
800014e8:	03845583          	lhu	a1,56(s0)
800014ec:	000020ef          	jal	ra,800034ec <crcu16>
800014f0:	02a41c23          	sh	a0,56(s0)
800014f4:	55fd                	li	a1,-1
800014f6:	8522                	mv	a0,s0
800014f8:	c48ff0ef          	jal	ra,80000940 <core_bench_list>
800014fc:	03845583          	lhu	a1,56(s0)
80001500:	7ed010ef          	jal	ra,800034ec <crcu16>
80001504:	02a41c23          	sh	a0,56(s0)
80001508:	10048063          	beqz	s1,80001608 <iterate+0x1b8>
8000150c:	0485                	addi	s1,s1,1
8000150e:	0c998c63          	beq	s3,s1,800015e6 <iterate+0x196>
80001512:	0001                	nop
80001514:	4585                	li	a1,1
80001516:	8522                	mv	a0,s0
80001518:	c28ff0ef          	jal	ra,80000940 <core_bench_list>
8000151c:	03845583          	lhu	a1,56(s0)
80001520:	00148913          	addi	s2,s1,1
80001524:	7c9010ef          	jal	ra,800034ec <crcu16>
80001528:	02a41c23          	sh	a0,56(s0)
8000152c:	55fd                	li	a1,-1
8000152e:	8522                	mv	a0,s0
80001530:	c10ff0ef          	jal	ra,80000940 <core_bench_list>
80001534:	03845583          	lhu	a1,56(s0)
80001538:	7b5010ef          	jal	ra,800034ec <crcu16>
8000153c:	82aa                	mv	t0,a0
8000153e:	02541c23          	sh	t0,56(s0)
80001542:	4585                	li	a1,1
80001544:	8522                	mv	a0,s0
80001546:	e099                	bnez	s1,8000154c <iterate+0xfc>
80001548:	02541d23          	sh	t0,58(s0)
8000154c:	bf4ff0ef          	jal	ra,80000940 <core_bench_list>
80001550:	03845583          	lhu	a1,56(s0)
80001554:	799010ef          	jal	ra,800034ec <crcu16>
80001558:	02a41c23          	sh	a0,56(s0)
8000155c:	55fd                	li	a1,-1
8000155e:	8522                	mv	a0,s0
80001560:	be0ff0ef          	jal	ra,80000940 <core_bench_list>
80001564:	03845583          	lhu	a1,56(s0)
80001568:	785010ef          	jal	ra,800034ec <crcu16>
8000156c:	02a41c23          	sh	a0,56(s0)
80001570:	00091463          	bnez	s2,80001578 <iterate+0x128>
80001574:	02a41d23          	sh	a0,58(s0)
80001578:	4585                	li	a1,1
8000157a:	8522                	mv	a0,s0
8000157c:	bc4ff0ef          	jal	ra,80000940 <core_bench_list>
80001580:	03845583          	lhu	a1,56(s0)
80001584:	00190a93          	addi	s5,s2,1
80001588:	00290a13          	addi	s4,s2,2
8000158c:	761010ef          	jal	ra,800034ec <crcu16>
80001590:	02a41c23          	sh	a0,56(s0)
80001594:	55fd                	li	a1,-1
80001596:	8522                	mv	a0,s0
80001598:	ba8ff0ef          	jal	ra,80000940 <core_bench_list>
8000159c:	03845583          	lhu	a1,56(s0)
800015a0:	00390493          	addi	s1,s2,3
800015a4:	749010ef          	jal	ra,800034ec <crcu16>
800015a8:	832a                	mv	t1,a0
800015aa:	02641c23          	sh	t1,56(s0)
800015ae:	4585                	li	a1,1
800015b0:	8522                	mv	a0,s0
800015b2:	000a9463          	bnez	s5,800015ba <iterate+0x16a>
800015b6:	02641d23          	sh	t1,58(s0)
800015ba:	b86ff0ef          	jal	ra,80000940 <core_bench_list>
800015be:	03845583          	lhu	a1,56(s0)
800015c2:	72b010ef          	jal	ra,800034ec <crcu16>
800015c6:	02a41c23          	sh	a0,56(s0)
800015ca:	55fd                	li	a1,-1
800015cc:	8522                	mv	a0,s0
800015ce:	b72ff0ef          	jal	ra,80000940 <core_bench_list>
800015d2:	03845583          	lhu	a1,56(s0)
800015d6:	717010ef          	jal	ra,800034ec <crcu16>
800015da:	02a41c23          	sh	a0,56(s0)
800015de:	000a0f63          	beqz	s4,800015fc <iterate+0x1ac>
800015e2:	f29999e3          	bne	s3,s1,80001514 <iterate+0xc4>
800015e6:	40f2                	lw	ra,28(sp)
800015e8:	4462                	lw	s0,24(sp)
800015ea:	44d2                	lw	s1,20(sp)
800015ec:	4942                	lw	s2,16(sp)
800015ee:	49b2                	lw	s3,12(sp)
800015f0:	4a22                	lw	s4,8(sp)
800015f2:	4a92                	lw	s5,4(sp)
800015f4:	4501                	li	a0,0
800015f6:	6105                	addi	sp,sp,32
800015f8:	8082                	ret
800015fa:	0001                	nop
800015fc:	02a41d23          	sh	a0,58(s0)
80001600:	f0999ae3          	bne	s3,s1,80001514 <iterate+0xc4>
80001604:	b7cd                	j	800015e6 <iterate+0x196>
80001606:	0001                	nop
80001608:	02a41d23          	sh	a0,58(s0)
8000160c:	0485                	addi	s1,s1,1
8000160e:	f09993e3          	bne	s3,s1,80001514 <iterate+0xc4>
80001612:	bfd1                	j	800015e6 <iterate+0x196>
80001614:	02a41d23          	sh	a0,58(s0)
80001618:	0485                	addi	s1,s1,1
8000161a:	b5d9                	j	800014e0 <iterate+0x90>

8000161c <matrix_test>:
8000161c:	711d                	addi	sp,sp,-96
8000161e:	c8ca                	sw	s2,80(sp)
80001620:	ce86                	sw	ra,92(sp)
80001622:	797d                	lui	s2,0xfffff
80001624:	cca2                	sw	s0,88(sp)
80001626:	caa6                	sw	s1,84(sp)
80001628:	c6ce                	sw	s3,76(sp)
8000162a:	c4d2                	sw	s4,72(sp)
8000162c:	c2d6                	sw	s5,68(sp)
8000162e:	c0da                	sw	s6,64(sp)
80001630:	de5e                	sw	s7,60(sp)
80001632:	dc62                	sw	s8,56(sp)
80001634:	da66                	sw	s9,52(sp)
80001636:	d86a                	sw	s10,48(sp)
80001638:	d66e                	sw	s11,44(sp)
8000163a:	c02e                	sw	a1,0(sp)
8000163c:	c232                	sw	a2,4(sp)
8000163e:	c436                	sw	a3,8(sp)
80001640:	01276933          	or	s2,a4,s2
80001644:	e119                	bnez	a0,8000164a <matrix_test+0x2e>
80001646:	56e0106f          	j	80002bb4 <matrix_test+0x1598>
8000164a:	00151413          	slli	s0,a0,0x1
8000164e:	40a00f33          	neg	t5,a0
80001652:	8d32                	mv	s10,a2
80001654:	01071993          	slli	s3,a4,0x10
80001658:	9622                	add	a2,a2,s0
8000165a:	001f1b13          	slli	s6,t5,0x1
8000165e:	8e2a                	mv	t3,a0
80001660:	0109d993          	srli	s3,s3,0x10
80001664:	86b2                	mv	a3,a2
80001666:	4801                	li	a6,0
80001668:	0f0a                	slli	t5,t5,0x2
8000166a:	0001                	nop
8000166c:	00db0533          	add	a0,s6,a3
80001670:	40a685b3          	sub	a1,a3,a0
80001674:	ffe58093          	addi	ra,a1,-2
80001678:	0010d293          	srli	t0,ra,0x1
8000167c:	00128313          	addi	t1,t0,1
80001680:	00737393          	andi	t2,t1,7
80001684:	87aa                	mv	a5,a0
80001686:	08038863          	beqz	t2,80001716 <matrix_test+0xfa>
8000168a:	4885                	li	a7,1
8000168c:	07138c63          	beq	t2,a7,80001704 <matrix_test+0xe8>
80001690:	4489                	li	s1,2
80001692:	06938263          	beq	t2,s1,800016f6 <matrix_test+0xda>
80001696:	4a0d                	li	s4,3
80001698:	05438863          	beq	t2,s4,800016e8 <matrix_test+0xcc>
8000169c:	4a91                	li	s5,4
8000169e:	03538e63          	beq	t2,s5,800016da <matrix_test+0xbe>
800016a2:	4b95                	li	s7,5
800016a4:	03738463          	beq	t2,s7,800016cc <matrix_test+0xb0>
800016a8:	4c19                	li	s8,6
800016aa:	01838a63          	beq	t2,s8,800016be <matrix_test+0xa2>
800016ae:	00055c83          	lhu	s9,0(a0)
800016b2:	00250793          	addi	a5,a0,2
800016b6:	01998db3          	add	s11,s3,s9
800016ba:	01b51023          	sh	s11,0(a0)
800016be:	0007de83          	lhu	t4,0(a5)
800016c2:	0789                	addi	a5,a5,2
800016c4:	01d98fb3          	add	t6,s3,t4
800016c8:	fff79f23          	sh	t6,-2(a5)
800016cc:	0007d583          	lhu	a1,0(a5)
800016d0:	0789                	addi	a5,a5,2
800016d2:	00b980b3          	add	ra,s3,a1
800016d6:	fe179f23          	sh	ra,-2(a5)
800016da:	0007d283          	lhu	t0,0(a5)
800016de:	0789                	addi	a5,a5,2
800016e0:	00598333          	add	t1,s3,t0
800016e4:	fe679f23          	sh	t1,-2(a5)
800016e8:	0007d383          	lhu	t2,0(a5)
800016ec:	0789                	addi	a5,a5,2
800016ee:	007988b3          	add	a7,s3,t2
800016f2:	ff179f23          	sh	a7,-2(a5)
800016f6:	0007d483          	lhu	s1,0(a5)
800016fa:	0789                	addi	a5,a5,2
800016fc:	00998a33          	add	s4,s3,s1
80001700:	ff479f23          	sh	s4,-2(a5)
80001704:	0007da83          	lhu	s5,0(a5)
80001708:	0789                	addi	a5,a5,2
8000170a:	01598bb3          	add	s7,s3,s5
8000170e:	ff779f23          	sh	s7,-2(a5)
80001712:	06f68563          	beq	a3,a5,8000177c <matrix_test+0x160>
80001716:	0007dc03          	lhu	s8,0(a5)
8000171a:	0027dc83          	lhu	s9,2(a5)
8000171e:	0047dd83          	lhu	s11,4(a5)
80001722:	0067df83          	lhu	t6,6(a5)
80001726:	0087de83          	lhu	t4,8(a5)
8000172a:	00a7d303          	lhu	t1,10(a5)
8000172e:	00c7d883          	lhu	a7,12(a5)
80001732:	00e7d583          	lhu	a1,14(a5)
80001736:	018980b3          	add	ra,s3,s8
8000173a:	019983b3          	add	t2,s3,s9
8000173e:	01b982b3          	add	t0,s3,s11
80001742:	01f984b3          	add	s1,s3,t6
80001746:	01d98a33          	add	s4,s3,t4
8000174a:	00698ab3          	add	s5,s3,t1
8000174e:	01198bb3          	add	s7,s3,a7
80001752:	00b98c33          	add	s8,s3,a1
80001756:	00179023          	sh	ra,0(a5)
8000175a:	00779123          	sh	t2,2(a5)
8000175e:	00579223          	sh	t0,4(a5)
80001762:	00979323          	sh	s1,6(a5)
80001766:	01479423          	sh	s4,8(a5)
8000176a:	01579523          	sh	s5,10(a5)
8000176e:	01779623          	sh	s7,12(a5)
80001772:	01879723          	sh	s8,14(a5)
80001776:	07c1                	addi	a5,a5,16
80001778:	f8f69fe3          	bne	a3,a5,80001716 <matrix_test+0xfa>
8000177c:	00180493          	addi	s1,a6,1
80001780:	41e506b3          	sub	a3,a0,t5
80001784:	009e0463          	beq	t3,s1,8000178c <matrix_test+0x170>
80001788:	8826                	mv	a6,s1
8000178a:	b5cd                	j	8000166c <matrix_test+0x50>
8000178c:	4382                	lw	t2,0(sp)
8000178e:	40900ab3          	neg	s5,s1
80001792:	00249b93          	slli	s7,s1,0x2
80001796:	c81e                	sw	t2,16(sp)
80001798:	4081                	li	ra,0
8000179a:	002a9a13          	slli	s4,s5,0x2
8000179e:	0001                	nop
800017a0:	00cb0533          	add	a0,s6,a2
800017a4:	40a607b3          	sub	a5,a2,a0
800017a8:	ffe78e13          	addi	t3,a5,-2
800017ac:	001e5f13          	srli	t5,t3,0x1
800017b0:	001f0c93          	addi	s9,t5,1
800017b4:	007cfd93          	andi	s11,s9,7
800017b8:	869e                	mv	a3,t2
800017ba:	87aa                	mv	a5,a0
800017bc:	0a0d8063          	beqz	s11,8000185c <matrix_test+0x240>
800017c0:	4f85                	li	t6,1
800017c2:	09fd8363          	beq	s11,t6,80001848 <matrix_test+0x22c>
800017c6:	4e89                	li	t4,2
800017c8:	07dd8863          	beq	s11,t4,80001838 <matrix_test+0x21c>
800017cc:	430d                	li	t1,3
800017ce:	046d8d63          	beq	s11,t1,80001828 <matrix_test+0x20c>
800017d2:	4891                	li	a7,4
800017d4:	051d8263          	beq	s11,a7,80001818 <matrix_test+0x1fc>
800017d8:	4595                	li	a1,5
800017da:	02bd8763          	beq	s11,a1,80001808 <matrix_test+0x1ec>
800017de:	4299                	li	t0,6
800017e0:	005d8c63          	beq	s11,t0,800017f8 <matrix_test+0x1dc>
800017e4:	00051c03          	lh	s8,0(a0)
800017e8:	00250793          	addi	a5,a0,2
800017ec:	00438693          	addi	a3,t2,4
800017f0:	02ec0e33          	mul	t3,s8,a4
800017f4:	01c3a023          	sw	t3,0(t2)
800017f8:	00079f03          	lh	t5,0(a5)
800017fc:	0691                	addi	a3,a3,4
800017fe:	0789                	addi	a5,a5,2
80001800:	02ef0cb3          	mul	s9,t5,a4
80001804:	ff96ae23          	sw	s9,-4(a3)
80001808:	00079d83          	lh	s11,0(a5)
8000180c:	0691                	addi	a3,a3,4
8000180e:	0789                	addi	a5,a5,2
80001810:	02ed8fb3          	mul	t6,s11,a4
80001814:	fff6ae23          	sw	t6,-4(a3)
80001818:	00079e83          	lh	t4,0(a5)
8000181c:	0691                	addi	a3,a3,4
8000181e:	0789                	addi	a5,a5,2
80001820:	02ee8333          	mul	t1,t4,a4
80001824:	fe66ae23          	sw	t1,-4(a3)
80001828:	00079883          	lh	a7,0(a5)
8000182c:	0691                	addi	a3,a3,4
8000182e:	0789                	addi	a5,a5,2
80001830:	02e885b3          	mul	a1,a7,a4
80001834:	feb6ae23          	sw	a1,-4(a3)
80001838:	00079283          	lh	t0,0(a5)
8000183c:	0691                	addi	a3,a3,4
8000183e:	0789                	addi	a5,a5,2
80001840:	02e28c33          	mul	s8,t0,a4
80001844:	ff86ae23          	sw	s8,-4(a3)
80001848:	00079e03          	lh	t3,0(a5)
8000184c:	0691                	addi	a3,a3,4
8000184e:	0789                	addi	a5,a5,2
80001850:	02ee0f33          	mul	t5,t3,a4
80001854:	ffe6ae23          	sw	t5,-4(a3)
80001858:	06f60763          	beq	a2,a5,800018c6 <matrix_test+0x2aa>
8000185c:	00079c83          	lh	s9,0(a5)
80001860:	00279d83          	lh	s11,2(a5)
80001864:	00479c03          	lh	s8,4(a5)
80001868:	00679e83          	lh	t4,6(a5)
8000186c:	00879e03          	lh	t3,8(a5)
80001870:	00a79303          	lh	t1,10(a5)
80001874:	00c79883          	lh	a7,12(a5)
80001878:	00e79583          	lh	a1,14(a5)
8000187c:	02ec82b3          	mul	t0,s9,a4
80001880:	02068693          	addi	a3,a3,32
80001884:	07c1                	addi	a5,a5,16
80001886:	02ed8fb3          	mul	t6,s11,a4
8000188a:	fe56a023          	sw	t0,-32(a3)
8000188e:	02ec0f33          	mul	t5,s8,a4
80001892:	fff6a223          	sw	t6,-28(a3)
80001896:	02ee8cb3          	mul	s9,t4,a4
8000189a:	ffe6a423          	sw	t5,-24(a3)
8000189e:	02ee0db3          	mul	s11,t3,a4
800018a2:	ff96a623          	sw	s9,-20(a3)
800018a6:	02e30c33          	mul	s8,t1,a4
800018aa:	ffb6a823          	sw	s11,-16(a3)
800018ae:	02e88eb3          	mul	t4,a7,a4
800018b2:	ff86aa23          	sw	s8,-12(a3)
800018b6:	02e58e33          	mul	t3,a1,a4
800018ba:	ffd6ac23          	sw	t4,-8(a3)
800018be:	ffc6ae23          	sw	t3,-4(a3)
800018c2:	f8f61de3          	bne	a2,a5,8000185c <matrix_test+0x240>
800018c6:	00108793          	addi	a5,ra,1
800018ca:	93de                	add	t2,t2,s7
800018cc:	41450633          	sub	a2,a0,s4
800018d0:	01008463          	beq	ra,a6,800018d8 <matrix_test+0x2bc>
800018d4:	80be                	mv	ra,a5
800018d6:	b5e9                	j	800017a0 <matrix_test+0x184>
800018d8:	4702                	lw	a4,0(sp)
800018da:	4881                	li	a7,0
800018dc:	4781                	li	a5,0
800018de:	01770db3          	add	s11,a4,s7
800018e2:	86ee                	mv	a3,s11
800018e4:	4581                	li	a1,0
800018e6:	0a8e                	slli	s5,s5,0x3
800018e8:	8546                	mv	a0,a7
800018ea:	0001                	nop
800018ec:	00da00b3          	add	ra,s4,a3
800018f0:	40168b33          	sub	s6,a3,ra
800018f4:	ffcb0313          	addi	t1,s6,-4
800018f8:	00235293          	srli	t0,t1,0x2
800018fc:	00128f93          	addi	t6,t0,1
80001900:	007fff13          	andi	t5,t6,7
80001904:	8706                	mv	a4,ra
80001906:	240f0463          	beqz	t5,80001b4e <matrix_test+0x532>
8000190a:	4c85                	li	s9,1
8000190c:	119f0363          	beq	t5,s9,80001a12 <matrix_test+0x3f6>
80001910:	4c09                	li	s8,2
80001912:	0d8f0e63          	beq	t5,s8,800019ee <matrix_test+0x3d2>
80001916:	4e8d                	li	t4,3
80001918:	0bdf0863          	beq	t5,t4,800019c8 <matrix_test+0x3ac>
8000191c:	4e11                	li	t3,4
8000191e:	09cf0263          	beq	t5,t3,800019a2 <matrix_test+0x386>
80001922:	4395                	li	t2,5
80001924:	047f0d63          	beq	t5,t2,8000197e <matrix_test+0x362>
80001928:	4619                	li	a2,6
8000192a:	02cf0763          	beq	t5,a2,80001958 <matrix_test+0x33c>
8000192e:	0000ab03          	lw	s6,0(ra)
80001932:	07c2                	slli	a5,a5,0x10
80001934:	0107d713          	srli	a4,a5,0x10
80001938:	955a                	add	a0,a0,s6
8000193a:	00a95463          	bge	s2,a0,80001942 <matrix_test+0x326>
8000193e:	2540106f          	j	80002b92 <matrix_test+0x1576>
80001942:	0168a8b3          	slt	a7,a7,s6
80001946:	01170333          	add	t1,a4,a7
8000194a:	01031293          	slli	t0,t1,0x10
8000194e:	4102d793          	srai	a5,t0,0x10
80001952:	00408713          	addi	a4,ra,4
80001956:	88da                	mv	a7,s6
80001958:	00072f03          	lw	t5,0(a4)
8000195c:	01079c93          	slli	s9,a5,0x10
80001960:	010cdc13          	srli	s8,s9,0x10
80001964:	957a                	add	a0,a0,t5
80001966:	36a94163          	blt	s2,a0,80001cc8 <matrix_test+0x6ac>
8000196a:	01e8aeb3          	slt	t4,a7,t5
8000196e:	01dc0e33          	add	t3,s8,t4
80001972:	010e1393          	slli	t2,t3,0x10
80001976:	4103d793          	srai	a5,t2,0x10
8000197a:	0711                	addi	a4,a4,4
8000197c:	88fa                	mv	a7,t5
8000197e:	00072303          	lw	t1,0(a4)
80001982:	07c2                	slli	a5,a5,0x10
80001984:	0107d293          	srli	t0,a5,0x10
80001988:	951a                	add	a0,a0,t1
8000198a:	32a94763          	blt	s2,a0,80001cb8 <matrix_test+0x69c>
8000198e:	0068a8b3          	slt	a7,a7,t1
80001992:	01128fb3          	add	t6,t0,a7
80001996:	010f9f13          	slli	t5,t6,0x10
8000199a:	410f5793          	srai	a5,t5,0x10
8000199e:	0711                	addi	a4,a4,4
800019a0:	889a                	mv	a7,t1
800019a2:	00072c03          	lw	s8,0(a4)
800019a6:	01079e93          	slli	t4,a5,0x10
800019aa:	010ede13          	srli	t3,t4,0x10
800019ae:	9562                	add	a0,a0,s8
800019b0:	2ea94c63          	blt	s2,a0,80001ca8 <matrix_test+0x68c>
800019b4:	0188a3b3          	slt	t2,a7,s8
800019b8:	007e0633          	add	a2,t3,t2
800019bc:	01061b13          	slli	s6,a2,0x10
800019c0:	410b5793          	srai	a5,s6,0x10
800019c4:	0711                	addi	a4,a4,4
800019c6:	88e2                	mv	a7,s8
800019c8:	00072283          	lw	t0,0(a4)
800019cc:	01079f93          	slli	t6,a5,0x10
800019d0:	010fdf13          	srli	t5,t6,0x10
800019d4:	9516                	add	a0,a0,t0
800019d6:	2ca94163          	blt	s2,a0,80001c98 <matrix_test+0x67c>
800019da:	0058a8b3          	slt	a7,a7,t0
800019de:	011f0cb3          	add	s9,t5,a7
800019e2:	010c9c13          	slli	s8,s9,0x10
800019e6:	410c5793          	srai	a5,s8,0x10
800019ea:	0711                	addi	a4,a4,4
800019ec:	8896                	mv	a7,t0
800019ee:	00072383          	lw	t2,0(a4)
800019f2:	01079e13          	slli	t3,a5,0x10
800019f6:	010e5613          	srli	a2,t3,0x10
800019fa:	951e                	add	a0,a0,t2
800019fc:	28a94663          	blt	s2,a0,80001c88 <matrix_test+0x66c>
80001a00:	0078ab33          	slt	s6,a7,t2
80001a04:	01660333          	add	t1,a2,s6
80001a08:	01031793          	slli	a5,t1,0x10
80001a0c:	87c1                	srai	a5,a5,0x10
80001a0e:	0711                	addi	a4,a4,4
80001a10:	889e                	mv	a7,t2
80001a12:	00072f03          	lw	t5,0(a4)
80001a16:	01079c93          	slli	s9,a5,0x10
80001a1a:	010cdc13          	srli	s8,s9,0x10
80001a1e:	957a                	add	a0,a0,t5
80001a20:	24a94c63          	blt	s2,a0,80001c78 <matrix_test+0x65c>
80001a24:	01e8a8b3          	slt	a7,a7,t5
80001a28:	011c0eb3          	add	t4,s8,a7
80001a2c:	010e9393          	slli	t2,t4,0x10
80001a30:	4103d793          	srai	a5,t2,0x10
80001a34:	0711                	addi	a4,a4,4
80001a36:	88fa                	mv	a7,t5
80001a38:	10e69b63          	bne	a3,a4,80001b4e <matrix_test+0x532>
80001a3c:	a435                	j	80001c68 <matrix_test+0x64c>
80001a3e:	0001                	nop
80001a40:	00472e83          	lw	t4,4(a4)
80001a44:	00a30c13          	addi	s8,t1,10
80001a48:	010c1893          	slli	a7,s8,0x10
80001a4c:	4108dc93          	srai	s9,a7,0x10
80001a50:	4281                	li	t0,0
80001a52:	010c9393          	slli	t2,s9,0x10
80001a56:	01d28fb3          	add	t6,t0,t4
80001a5a:	0711                	addi	a4,a4,4
80001a5c:	0103db13          	srli	s6,t2,0x10
80001a60:	13f95363          	bge	s2,t6,80001b86 <matrix_test+0x56a>
80001a64:	00ab0513          	addi	a0,s6,10
80001a68:	00472f03          	lw	t5,4(a4)
80001a6c:	01051293          	slli	t0,a0,0x10
80001a70:	4102d793          	srai	a5,t0,0x10
80001a74:	4f81                	li	t6,0
80001a76:	01079c93          	slli	s9,a5,0x10
80001a7a:	01ef8333          	add	t1,t6,t5
80001a7e:	010cdc13          	srli	s8,s9,0x10
80001a82:	12694463          	blt	s2,t1,80001baa <matrix_test+0x58e>
80001a86:	01eea8b3          	slt	a7,t4,t5
80001a8a:	011c0eb3          	add	t4,s8,a7
80001a8e:	00872283          	lw	t0,8(a4)
80001a92:	010e9393          	slli	t2,t4,0x10
80001a96:	4103d613          	srai	a2,t2,0x10
80001a9a:	01061513          	slli	a0,a2,0x10
80001a9e:	005303b3          	add	t2,t1,t0
80001aa2:	01055793          	srli	a5,a0,0x10
80001aa6:	12794363          	blt	s2,t2,80001bcc <matrix_test+0x5b0>
80001aaa:	005f2fb3          	slt	t6,t5,t0
80001aae:	01f78f33          	add	t5,a5,t6
80001ab2:	00c72b03          	lw	s6,12(a4)
80001ab6:	010f1c93          	slli	s9,t5,0x10
80001aba:	410cde93          	srai	t4,s9,0x10
80001abe:	010e9e13          	slli	t3,t4,0x10
80001ac2:	01638cb3          	add	s9,t2,s6
80001ac6:	010e5613          	srli	a2,t3,0x10
80001aca:	13994263          	blt	s2,s9,80001bee <matrix_test+0x5d2>
80001ace:	0162a333          	slt	t1,t0,s6
80001ad2:	006602b3          	add	t0,a2,t1
80001ad6:	01072c03          	lw	s8,16(a4)
80001ada:	01029793          	slli	a5,t0,0x10
80001ade:	4107df13          	srai	t5,a5,0x10
80001ae2:	010f1893          	slli	a7,t5,0x10
80001ae6:	018c8533          	add	a0,s9,s8
80001aea:	0108de93          	srli	t4,a7,0x10
80001aee:	12a94163          	blt	s2,a0,80001c10 <matrix_test+0x5f4>
80001af2:	018b23b3          	slt	t2,s6,s8
80001af6:	007e8b33          	add	s6,t4,t2
80001afa:	01472f83          	lw	t6,20(a4)
80001afe:	010b1e13          	slli	t3,s6,0x10
80001b02:	410e5293          	srai	t0,t3,0x10
80001b06:	01029793          	slli	a5,t0,0x10
80001b0a:	01f50e33          	add	t3,a0,t6
80001b0e:	0107df13          	srli	t5,a5,0x10
80001b12:	13c94063          	blt	s2,t3,80001c32 <matrix_test+0x616>
80001b16:	01fc2cb3          	slt	s9,s8,t6
80001b1a:	019f0c33          	add	s8,t5,s9
80001b1e:	010c1893          	slli	a7,s8,0x10
80001b22:	4108db13          	srai	s6,a7,0x10
80001b26:	01872883          	lw	a7,24(a4)
80001b2a:	010b1613          	slli	a2,s6,0x10
80001b2e:	01065293          	srli	t0,a2,0x10
80001b32:	011e0533          	add	a0,t3,a7
80001b36:	10a94f63          	blt	s2,a0,80001c54 <matrix_test+0x638>
80001b3a:	011fa333          	slt	t1,t6,a7
80001b3e:	00628fb3          	add	t6,t0,t1
80001b42:	010f9793          	slli	a5,t6,0x10
80001b46:	0771                	addi	a4,a4,28
80001b48:	87c1                	srai	a5,a5,0x10
80001b4a:	10e68f63          	beq	a3,a4,80001c68 <matrix_test+0x64c>
80001b4e:	4310                	lw	a2,0(a4)
80001b50:	01079b13          	slli	s6,a5,0x10
80001b54:	010b5313          	srli	t1,s6,0x10
80001b58:	00c502b3          	add	t0,a0,a2
80001b5c:	ee5942e3          	blt	s2,t0,80001a40 <matrix_test+0x424>
80001b60:	00c8a7b3          	slt	a5,a7,a2
80001b64:	00f30fb3          	add	t6,t1,a5
80001b68:	00472e83          	lw	t4,4(a4)
80001b6c:	010f9f13          	slli	t5,t6,0x10
80001b70:	410f5c93          	srai	s9,t5,0x10
80001b74:	010c9393          	slli	t2,s9,0x10
80001b78:	01d28fb3          	add	t6,t0,t4
80001b7c:	0711                	addi	a4,a4,4
80001b7e:	0103db13          	srli	s6,t2,0x10
80001b82:	eff941e3          	blt	s2,t6,80001a64 <matrix_test+0x448>
80001b86:	01d62e33          	slt	t3,a2,t4
80001b8a:	01cb0633          	add	a2,s6,t3
80001b8e:	00472f03          	lw	t5,4(a4)
80001b92:	01061313          	slli	t1,a2,0x10
80001b96:	41035793          	srai	a5,t1,0x10
80001b9a:	01079c93          	slli	s9,a5,0x10
80001b9e:	01ef8333          	add	t1,t6,t5
80001ba2:	010cdc13          	srli	s8,s9,0x10
80001ba6:	ee6950e3          	bge	s2,t1,80001a86 <matrix_test+0x46a>
80001baa:	00ac0b13          	addi	s6,s8,10
80001bae:	00872283          	lw	t0,8(a4)
80001bb2:	010b1e13          	slli	t3,s6,0x10
80001bb6:	410e5613          	srai	a2,t3,0x10
80001bba:	4301                	li	t1,0
80001bbc:	01061513          	slli	a0,a2,0x10
80001bc0:	005303b3          	add	t2,t1,t0
80001bc4:	01055793          	srli	a5,a0,0x10
80001bc8:	ee7951e3          	bge	s2,t2,80001aaa <matrix_test+0x48e>
80001bcc:	00a78c13          	addi	s8,a5,10
80001bd0:	00c72b03          	lw	s6,12(a4)
80001bd4:	010c1893          	slli	a7,s8,0x10
80001bd8:	4108de93          	srai	t4,a7,0x10
80001bdc:	4381                	li	t2,0
80001bde:	010e9e13          	slli	t3,t4,0x10
80001be2:	01638cb3          	add	s9,t2,s6
80001be6:	010e5613          	srli	a2,t3,0x10
80001bea:	ef9952e3          	bge	s2,s9,80001ace <matrix_test+0x4b2>
80001bee:	00a60513          	addi	a0,a2,10
80001bf2:	01072c03          	lw	s8,16(a4)
80001bf6:	01051f93          	slli	t6,a0,0x10
80001bfa:	410fdf13          	srai	t5,t6,0x10
80001bfe:	4c81                	li	s9,0
80001c00:	010f1893          	slli	a7,t5,0x10
80001c04:	018c8533          	add	a0,s9,s8
80001c08:	0108de93          	srli	t4,a7,0x10
80001c0c:	eea953e3          	bge	s2,a0,80001af2 <matrix_test+0x4d6>
80001c10:	00ae8613          	addi	a2,t4,10
80001c14:	01472f83          	lw	t6,20(a4)
80001c18:	01061313          	slli	t1,a2,0x10
80001c1c:	41035293          	srai	t0,t1,0x10
80001c20:	4501                	li	a0,0
80001c22:	01029793          	slli	a5,t0,0x10
80001c26:	01f50e33          	add	t3,a0,t6
80001c2a:	0107df13          	srli	t5,a5,0x10
80001c2e:	efc954e3          	bge	s2,t3,80001b16 <matrix_test+0x4fa>
80001c32:	00af0e93          	addi	t4,t5,10
80001c36:	01872883          	lw	a7,24(a4)
80001c3a:	010e9393          	slli	t2,t4,0x10
80001c3e:	4103db13          	srai	s6,t2,0x10
80001c42:	4e01                	li	t3,0
80001c44:	010b1613          	slli	a2,s6,0x10
80001c48:	011e0533          	add	a0,t3,a7
80001c4c:	01065293          	srli	t0,a2,0x10
80001c50:	eea955e3          	bge	s2,a0,80001b3a <matrix_test+0x51e>
80001c54:	00a28513          	addi	a0,t0,10
80001c58:	01051f13          	slli	t5,a0,0x10
80001c5c:	0771                	addi	a4,a4,28
80001c5e:	410f5793          	srai	a5,t5,0x10
80001c62:	4501                	li	a0,0
80001c64:	eee695e3          	bne	a3,a4,80001b4e <matrix_test+0x532>
80001c68:	00158c93          	addi	s9,a1,1
80001c6c:	415086b3          	sub	a3,ra,s5
80001c70:	07058463          	beq	a1,a6,80001cd8 <matrix_test+0x6bc>
80001c74:	85e6                	mv	a1,s9
80001c76:	b99d                	j	800018ec <matrix_test+0x2d0>
80001c78:	00ac0513          	addi	a0,s8,10
80001c7c:	01051e13          	slli	t3,a0,0x10
80001c80:	410e5793          	srai	a5,t3,0x10
80001c84:	4501                	li	a0,0
80001c86:	b37d                	j	80001a34 <matrix_test+0x418>
80001c88:	00a60293          	addi	t0,a2,10
80001c8c:	01029f93          	slli	t6,t0,0x10
80001c90:	410fd793          	srai	a5,t6,0x10
80001c94:	4501                	li	a0,0
80001c96:	bba5                	j	80001a0e <matrix_test+0x3f2>
80001c98:	00af0513          	addi	a0,t5,10
80001c9c:	01051e93          	slli	t4,a0,0x10
80001ca0:	410ed793          	srai	a5,t4,0x10
80001ca4:	4501                	li	a0,0
80001ca6:	b391                	j	800019ea <matrix_test+0x3ce>
80001ca8:	00ae0313          	addi	t1,t3,10
80001cac:	01031793          	slli	a5,t1,0x10
80001cb0:	87c1                	srai	a5,a5,0x10
80001cb2:	4501                	li	a0,0
80001cb4:	bb01                	j	800019c4 <matrix_test+0x3a8>
80001cb6:	0001                	nop
80001cb8:	00a28513          	addi	a0,t0,10
80001cbc:	01051c93          	slli	s9,a0,0x10
80001cc0:	410cd793          	srai	a5,s9,0x10
80001cc4:	4501                	li	a0,0
80001cc6:	b9e1                	j	8000199e <matrix_test+0x382>
80001cc8:	00ac0613          	addi	a2,s8,10
80001ccc:	01061b13          	slli	s6,a2,0x10
80001cd0:	410b5793          	srai	a5,s6,0x10
80001cd4:	4501                	li	a0,0
80001cd6:	b155                	j	8000197a <matrix_test+0x35e>
80001cd8:	4581                	li	a1,0
80001cda:	853e                	mv	a0,a5
80001cdc:	721010ef          	jal	ra,80003bfc <crc16>
80001ce0:	43a2                	lw	t2,8(sp)
80001ce2:	4f92                	lw	t6,4(sp)
80001ce4:	4582                	lw	a1,0(sp)
80001ce6:	c62a                	sw	a0,12(sp)
80001ce8:	008382b3          	add	t0,t2,s0
80001cec:	ca4a                	sw	s2,20(sp)
80001cee:	0001                	nop
80001cf0:	407280b3          	sub	ra,t0,t2
80001cf4:	ffe08c13          	addi	s8,ra,-2
80001cf8:	001c5e93          	srli	t4,s8,0x1
80001cfc:	001e8b13          	addi	s6,t4,1
80001d00:	007b7e13          	andi	t3,s6,7
80001d04:	869e                	mv	a3,t2
80001d06:	867e                	mv	a2,t6
80001d08:	4781                	li	a5,0
80001d0a:	0a0e0663          	beqz	t3,80001db6 <matrix_test+0x79a>
80001d0e:	4885                	li	a7,1
80001d10:	091e0863          	beq	t3,a7,80001da0 <matrix_test+0x784>
80001d14:	4309                	li	t1,2
80001d16:	066e0c63          	beq	t3,t1,80001d8e <matrix_test+0x772>
80001d1a:	4f0d                	li	t5,3
80001d1c:	07ee0063          	beq	t3,t5,80001d7c <matrix_test+0x760>
80001d20:	4511                	li	a0,4
80001d22:	04ae0463          	beq	t3,a0,80001d6a <matrix_test+0x74e>
80001d26:	4715                	li	a4,5
80001d28:	02ee0863          	beq	t3,a4,80001d58 <matrix_test+0x73c>
80001d2c:	4819                	li	a6,6
80001d2e:	010e0c63          	beq	t3,a6,80001d46 <matrix_test+0x72a>
80001d32:	000f9903          	lh	s2,0(t6)
80001d36:	00039783          	lh	a5,0(t2)
80001d3a:	002f8613          	addi	a2,t6,2
80001d3e:	00238693          	addi	a3,t2,2
80001d42:	02f907b3          	mul	a5,s2,a5
80001d46:	00061a03          	lh	s4,0(a2)
80001d4a:	00069a83          	lh	s5,0(a3)
80001d4e:	0609                	addi	a2,a2,2
80001d50:	0689                	addi	a3,a3,2
80001d52:	035a0cb3          	mul	s9,s4,s5
80001d56:	97e6                	add	a5,a5,s9
80001d58:	00061083          	lh	ra,0(a2)
80001d5c:	00069c03          	lh	s8,0(a3)
80001d60:	0609                	addi	a2,a2,2
80001d62:	0689                	addi	a3,a3,2
80001d64:	03808eb3          	mul	t4,ra,s8
80001d68:	97f6                	add	a5,a5,t4
80001d6a:	00061b03          	lh	s6,0(a2)
80001d6e:	00069e03          	lh	t3,0(a3)
80001d72:	0609                	addi	a2,a2,2
80001d74:	0689                	addi	a3,a3,2
80001d76:	03cb08b3          	mul	a7,s6,t3
80001d7a:	97c6                	add	a5,a5,a7
80001d7c:	00061303          	lh	t1,0(a2)
80001d80:	00069f03          	lh	t5,0(a3)
80001d84:	0609                	addi	a2,a2,2
80001d86:	0689                	addi	a3,a3,2
80001d88:	03e30533          	mul	a0,t1,t5
80001d8c:	97aa                	add	a5,a5,a0
80001d8e:	00061703          	lh	a4,0(a2)
80001d92:	00069803          	lh	a6,0(a3)
80001d96:	0609                	addi	a2,a2,2
80001d98:	0689                	addi	a3,a3,2
80001d9a:	03070933          	mul	s2,a4,a6
80001d9e:	97ca                	add	a5,a5,s2
80001da0:	00061a03          	lh	s4,0(a2)
80001da4:	00069a83          	lh	s5,0(a3)
80001da8:	0689                	addi	a3,a3,2
80001daa:	0609                	addi	a2,a2,2
80001dac:	035a0cb3          	mul	s9,s4,s5
80001db0:	97e6                	add	a5,a5,s9
80001db2:	08d28663          	beq	t0,a3,80001e3e <matrix_test+0x822>
80001db6:	00061083          	lh	ra,0(a2)
80001dba:	00069e83          	lh	t4,0(a3)
80001dbe:	00269a83          	lh	s5,2(a3)
80001dc2:	00261c83          	lh	s9,2(a2)
80001dc6:	03d08733          	mul	a4,ra,t4
80001dca:	00461903          	lh	s2,4(a2)
80001dce:	00469c03          	lh	s8,4(a3)
80001dd2:	00661e03          	lh	t3,6(a2)
80001dd6:	00669b03          	lh	s6,6(a3)
80001dda:	00861303          	lh	t1,8(a2)
80001dde:	00869a03          	lh	s4,8(a3)
80001de2:	00a61883          	lh	a7,10(a2)
80001de6:	00a69083          	lh	ra,10(a3)
80001dea:	00c61803          	lh	a6,12(a2)
80001dee:	035c8cb3          	mul	s9,s9,s5
80001df2:	00e78ab3          	add	s5,a5,a4
80001df6:	00c69f03          	lh	t5,12(a3)
80001dfa:	00e61503          	lh	a0,14(a2)
80001dfe:	00e69e83          	lh	t4,14(a3)
80001e02:	06c1                	addi	a3,a3,16
80001e04:	0641                	addi	a2,a2,16
80001e06:	038907b3          	mul	a5,s2,s8
80001e0a:	019a8933          	add	s2,s5,s9
80001e0e:	036e0c33          	mul	s8,t3,s6
80001e12:	00f90e33          	add	t3,s2,a5
80001e16:	03430b33          	mul	s6,t1,s4
80001e1a:	018e0733          	add	a4,t3,s8
80001e1e:	02188333          	mul	t1,a7,ra
80001e22:	01670a33          	add	s4,a4,s6
80001e26:	03e808b3          	mul	a7,a6,t5
80001e2a:	006a00b3          	add	ra,s4,t1
80001e2e:	03d50833          	mul	a6,a0,t4
80001e32:	01108f33          	add	t5,ra,a7
80001e36:	010f07b3          	add	a5,t5,a6
80001e3a:	f6d29ee3          	bne	t0,a3,80001db6 <matrix_test+0x79a>
80001e3e:	c19c                	sw	a5,0(a1)
80001e40:	0591                	addi	a1,a1,4
80001e42:	9fa2                	add	t6,t6,s0
80001e44:	eabd96e3          	bne	s11,a1,80001cf0 <matrix_test+0x6d4>
80001e48:	4952                	lw	s2,20(sp)
80001e4a:	4782                	lw	a5,0(sp)
80001e4c:	4501                	li	a0,0
80001e4e:	4a81                	li	s5,0
80001e50:	4581                	li	a1,0
80001e52:	4701                	li	a4,0
80001e54:	4390                	lw	a2,0(a5)
80001e56:	fff48d93          	addi	s11,s1,-1
80001e5a:	01051293          	slli	t0,a0,0x10
80001e5e:	95b2                	add	a1,a1,a2
80001e60:	003df393          	andi	t2,s11,3
80001e64:	0102df93          	srli	t6,t0,0x10
80001e68:	42b95ee3          	bge	s2,a1,80002aa4 <matrix_test+0x1488>
80001e6c:	00af8593          	addi	a1,t6,10
80001e70:	01059c93          	slli	s9,a1,0x10
80001e74:	410cd513          	srai	a0,s9,0x10
80001e78:	4581                	li	a1,0
80001e7a:	4885                	li	a7,1
80001e7c:	00478813          	addi	a6,a5,4
80001e80:	8cb2                	mv	s9,a2
80001e82:	1a98f963          	bgeu	a7,s1,80002034 <matrix_test+0xa18>
80001e86:	10038963          	beqz	t2,80001f98 <matrix_test+0x97c>
80001e8a:	05138c63          	beq	t2,a7,80001ee2 <matrix_test+0x8c6>
80001e8e:	4a89                	li	s5,2
80001e90:	03538663          	beq	t2,s5,80001ebc <matrix_test+0x8a0>
80001e94:	00082c03          	lw	s8,0(a6)
80001e98:	01051e13          	slli	t3,a0,0x10
80001e9c:	010e5b13          	srli	s6,t3,0x10
80001ea0:	95e2                	add	a1,a1,s8
80001ea2:	4ab94de3          	blt	s2,a1,80002b5c <matrix_test+0x1540>
80001ea6:	01862633          	slt	a2,a2,s8
80001eaa:	00cb0333          	add	t1,s6,a2
80001eae:	01031a13          	slli	s4,t1,0x10
80001eb2:	410a5513          	srai	a0,s4,0x10
80001eb6:	0885                	addi	a7,a7,1
80001eb8:	0811                	addi	a6,a6,4
80001eba:	8ce2                	mv	s9,s8
80001ebc:	00082d83          	lw	s11,0(a6)
80001ec0:	01051393          	slli	t2,a0,0x10
80001ec4:	0103d293          	srli	t0,t2,0x10
80001ec8:	95ee                	add	a1,a1,s11
80001eca:	46b945e3          	blt	s2,a1,80002b34 <matrix_test+0x1518>
80001ece:	01bcafb3          	slt	t6,s9,s11
80001ed2:	01f286b3          	add	a3,t0,t6
80001ed6:	01069513          	slli	a0,a3,0x10
80001eda:	8541                	srai	a0,a0,0x10
80001edc:	0885                	addi	a7,a7,1
80001ede:	0811                	addi	a6,a6,4
80001ee0:	8cee                	mv	s9,s11
80001ee2:	00082603          	lw	a2,0(a6)
80001ee6:	01051a93          	slli	s5,a0,0x10
80001eea:	010adc13          	srli	s8,s5,0x10
80001eee:	95b2                	add	a1,a1,a2
80001ef0:	3eb94ce3          	blt	s2,a1,80002ae8 <matrix_test+0x14cc>
80001ef4:	00ccae33          	slt	t3,s9,a2
80001ef8:	01cc0b33          	add	s6,s8,t3
80001efc:	010b1313          	slli	t1,s6,0x10
80001f00:	41035513          	srai	a0,t1,0x10
80001f04:	0885                	addi	a7,a7,1
80001f06:	0811                	addi	a6,a6,4
80001f08:	0898e863          	bltu	a7,s1,80001f98 <matrix_test+0x97c>
80001f0c:	a225                	j	80002034 <matrix_test+0xa18>
80001f0e:	0001                	nop
80001f10:	00482c83          	lw	s9,4(a6)
80001f14:	00a38e93          	addi	t4,t2,10
80001f18:	010e9593          	slli	a1,t4,0x10
80001f1c:	4105d513          	srai	a0,a1,0x10
80001f20:	4281                	li	t0,0
80001f22:	00188a93          	addi	s5,a7,1
80001f26:	01928db3          	add	s11,t0,s9
80001f2a:	01051893          	slli	a7,a0,0x10
80001f2e:	0811                	addi	a6,a6,4
80001f30:	0108dc13          	srli	s8,a7,0x10
80001f34:	0bb95163          	bge	s2,s11,80001fd6 <matrix_test+0x9ba>
80001f38:	00ac0a13          	addi	s4,s8,10
80001f3c:	00482383          	lw	t2,4(a6)
80001f40:	010a1093          	slli	ra,s4,0x10
80001f44:	4100df13          	srai	t5,ra,0x10
80001f48:	4d81                	li	s11,0
80001f4a:	010f1293          	slli	t0,t5,0x10
80001f4e:	007d88b3          	add	a7,s11,t2
80001f52:	0102df93          	srli	t6,t0,0x10
80001f56:	0b194263          	blt	s2,a7,80001ffa <matrix_test+0x9de>
80001f5a:	007ca633          	slt	a2,s9,t2
80001f5e:	00cf86b3          	add	a3,t6,a2
80001f62:	00882603          	lw	a2,8(a6)
80001f66:	01069513          	slli	a0,a3,0x10
80001f6a:	41055c93          	srai	s9,a0,0x10
80001f6e:	010c9c13          	slli	s8,s9,0x10
80001f72:	00c885b3          	add	a1,a7,a2
80001f76:	010c5e13          	srli	t3,s8,0x10
80001f7a:	0ab94163          	blt	s2,a1,8000201c <matrix_test+0xa00>
80001f7e:	00c3ab33          	slt	s6,t2,a2
80001f82:	016e0333          	add	t1,t3,s6
80001f86:	01031a13          	slli	s4,t1,0x10
80001f8a:	003a8893          	addi	a7,s5,3
80001f8e:	410a5513          	srai	a0,s4,0x10
80001f92:	0831                	addi	a6,a6,12
80001f94:	0a98f063          	bgeu	a7,s1,80002034 <matrix_test+0xa18>
80001f98:	00082f03          	lw	t5,0(a6)
80001f9c:	01051d93          	slli	s11,a0,0x10
80001fa0:	010dd393          	srli	t2,s11,0x10
80001fa4:	01e582b3          	add	t0,a1,t5
80001fa8:	f65944e3          	blt	s2,t0,80001f10 <matrix_test+0x8f4>
80001fac:	01e62633          	slt	a2,a2,t5
80001fb0:	00482c83          	lw	s9,4(a6)
80001fb4:	00c38fb3          	add	t6,t2,a2
80001fb8:	010f9693          	slli	a3,t6,0x10
80001fbc:	4106d513          	srai	a0,a3,0x10
80001fc0:	00188a93          	addi	s5,a7,1
80001fc4:	01928db3          	add	s11,t0,s9
80001fc8:	01051893          	slli	a7,a0,0x10
80001fcc:	0811                	addi	a6,a6,4
80001fce:	0108dc13          	srli	s8,a7,0x10
80001fd2:	f7b943e3          	blt	s2,s11,80001f38 <matrix_test+0x91c>
80001fd6:	019f2e33          	slt	t3,t5,s9
80001fda:	01cc0b33          	add	s6,s8,t3
80001fde:	00482383          	lw	t2,4(a6)
80001fe2:	010b1313          	slli	t1,s6,0x10
80001fe6:	41035f13          	srai	t5,t1,0x10
80001fea:	010f1293          	slli	t0,t5,0x10
80001fee:	007d88b3          	add	a7,s11,t2
80001ff2:	0102df93          	srli	t6,t0,0x10
80001ff6:	f71952e3          	bge	s2,a7,80001f5a <matrix_test+0x93e>
80001ffa:	00af8e93          	addi	t4,t6,10
80001ffe:	00882603          	lw	a2,8(a6)
80002002:	010e9593          	slli	a1,t4,0x10
80002006:	4105dc93          	srai	s9,a1,0x10
8000200a:	4881                	li	a7,0
8000200c:	010c9c13          	slli	s8,s9,0x10
80002010:	00c885b3          	add	a1,a7,a2
80002014:	010c5e13          	srli	t3,s8,0x10
80002018:	f6b953e3          	bge	s2,a1,80001f7e <matrix_test+0x962>
8000201c:	00ae0093          	addi	ra,t3,10
80002020:	01009f13          	slli	t5,ra,0x10
80002024:	003a8893          	addi	a7,s5,3
80002028:	410f5513          	srai	a0,t5,0x10
8000202c:	4581                	li	a1,0
8000202e:	0831                	addi	a6,a6,12
80002030:	f698e4e3          	bltu	a7,s1,80001f98 <matrix_test+0x97c>
80002034:	0705                	addi	a4,a4,1
80002036:	97de                	add	a5,a5,s7
80002038:	8ab2                	mv	s5,a2
8000203a:	e0976de3          	bltu	a4,s1,80001e54 <matrix_test+0x838>
8000203e:	45b2                	lw	a1,12(sp)
80002040:	4c01                	li	s8,0
80002042:	3bb010ef          	jal	ra,80003bfc <crc16>
80002046:	4392                	lw	t2,4(sp)
80002048:	cc6a                	sw	s10,24(sp)
8000204a:	4c82                	lw	s9,0(sp)
8000204c:	4d22                	lw	s10,8(sp)
8000204e:	c62a                	sw	a0,12(sp)
80002050:	ca4a                	sw	s2,20(sp)
80002052:	ce4e                	sw	s3,28(sp)
80002054:	85ea                	mv	a1,s10
80002056:	82e6                	mv	t0,s9
80002058:	4f81                	li	t6,0
8000205a:	0001                	nop
8000205c:	00039983          	lh	s3,0(t2)
80002060:	00059d83          	lh	s11,0(a1)
80002064:	fff48693          	addi	a3,s1,-1
80002068:	4505                	li	a0,1
8000206a:	0076fe93          	andi	t4,a3,7
8000206e:	03b987b3          	mul	a5,s3,s11
80002072:	00238693          	addi	a3,t2,2
80002076:	00858633          	add	a2,a1,s0
8000207a:	16957063          	bgeu	a0,s1,800021da <matrix_test+0xbbe>
8000207e:	0a0e8c63          	beqz	t4,80002136 <matrix_test+0xb1a>
80002082:	08ae8e63          	beq	t4,a0,8000211e <matrix_test+0xb02>
80002086:	4e09                	li	t3,2
80002088:	09ce8163          	beq	t4,t3,8000210a <matrix_test+0xaee>
8000208c:	4b0d                	li	s6,3
8000208e:	076e8463          	beq	t4,s6,800020f6 <matrix_test+0xada>
80002092:	4311                	li	t1,4
80002094:	046e8763          	beq	t4,t1,800020e2 <matrix_test+0xac6>
80002098:	4a15                	li	s4,5
8000209a:	034e8a63          	beq	t4,s4,800020ce <matrix_test+0xab2>
8000209e:	4099                	li	ra,6
800020a0:	001e8d63          	beq	t4,ra,800020ba <matrix_test+0xa9e>
800020a4:	00069f03          	lh	t5,0(a3)
800020a8:	00061883          	lh	a7,0(a2)
800020ac:	4509                	li	a0,2
800020ae:	00438693          	addi	a3,t2,4
800020b2:	031f0833          	mul	a6,t5,a7
800020b6:	9622                	add	a2,a2,s0
800020b8:	97c2                	add	a5,a5,a6
800020ba:	00069903          	lh	s2,0(a3)
800020be:	00061703          	lh	a4,0(a2)
800020c2:	0505                	addi	a0,a0,1
800020c4:	0689                	addi	a3,a3,2
800020c6:	02e90ab3          	mul	s5,s2,a4
800020ca:	9622                	add	a2,a2,s0
800020cc:	97d6                	add	a5,a5,s5
800020ce:	00069983          	lh	s3,0(a3)
800020d2:	00061d83          	lh	s11,0(a2)
800020d6:	0505                	addi	a0,a0,1
800020d8:	0689                	addi	a3,a3,2
800020da:	03b98eb3          	mul	t4,s3,s11
800020de:	9622                	add	a2,a2,s0
800020e0:	97f6                	add	a5,a5,t4
800020e2:	00069e03          	lh	t3,0(a3)
800020e6:	00061b03          	lh	s6,0(a2)
800020ea:	0505                	addi	a0,a0,1
800020ec:	0689                	addi	a3,a3,2
800020ee:	036e0333          	mul	t1,t3,s6
800020f2:	9622                	add	a2,a2,s0
800020f4:	979a                	add	a5,a5,t1
800020f6:	00069a03          	lh	s4,0(a3)
800020fa:	00061083          	lh	ra,0(a2)
800020fe:	0505                	addi	a0,a0,1
80002100:	0689                	addi	a3,a3,2
80002102:	021a0f33          	mul	t5,s4,ra
80002106:	9622                	add	a2,a2,s0
80002108:	97fa                	add	a5,a5,t5
8000210a:	00069883          	lh	a7,0(a3)
8000210e:	00061803          	lh	a6,0(a2)
80002112:	0505                	addi	a0,a0,1
80002114:	0689                	addi	a3,a3,2
80002116:	03088933          	mul	s2,a7,a6
8000211a:	9622                	add	a2,a2,s0
8000211c:	97ca                	add	a5,a5,s2
8000211e:	00069703          	lh	a4,0(a3)
80002122:	00061a83          	lh	s5,0(a2)
80002126:	0505                	addi	a0,a0,1
80002128:	0689                	addi	a3,a3,2
8000212a:	035709b3          	mul	s3,a4,s5
8000212e:	9622                	add	a2,a2,s0
80002130:	97ce                	add	a5,a5,s3
80002132:	0a957463          	bgeu	a0,s1,800021da <matrix_test+0xbbe>
80002136:	00860db3          	add	s11,a2,s0
8000213a:	00069e03          	lh	t3,0(a3)
8000213e:	00061303          	lh	t1,0(a2)
80002142:	000d9e83          	lh	t4,0(s11)
80002146:	00269b03          	lh	s6,2(a3)
8000214a:	026e0733          	mul	a4,t3,t1
8000214e:	008d8a33          	add	s4,s11,s0
80002152:	008a00b3          	add	ra,s4,s0
80002156:	000a1d83          	lh	s11,0(s4)
8000215a:	00469983          	lh	s3,4(a3)
8000215e:	008088b3          	add	a7,ra,s0
80002162:	00009a83          	lh	s5,0(ra)
80002166:	00669f03          	lh	t5,6(a3)
8000216a:	00869e03          	lh	t3,8(a3)
8000216e:	00888933          	add	s2,a7,s0
80002172:	03db0b33          	mul	s6,s6,t4
80002176:	00089a03          	lh	s4,0(a7)
8000217a:	00890833          	add	a6,s2,s0
8000217e:	00a69303          	lh	t1,10(a3)
80002182:	00091903          	lh	s2,0(s2) # fffff000 <_sp+0x6ffef000>
80002186:	00c69883          	lh	a7,12(a3)
8000218a:	00880633          	add	a2,a6,s0
8000218e:	00081083          	lh	ra,0(a6)
80002192:	00061e83          	lh	t4,0(a2)
80002196:	00e69803          	lh	a6,14(a3)
8000219a:	03b989b3          	mul	s3,s3,s11
8000219e:	97ba                	add	a5,a5,a4
800021a0:	01678db3          	add	s11,a5,s6
800021a4:	0521                	addi	a0,a0,8
800021a6:	06c1                	addi	a3,a3,16
800021a8:	9622                	add	a2,a2,s0
800021aa:	035f0f33          	mul	t5,t5,s5
800021ae:	013d8733          	add	a4,s11,s3
800021b2:	034e0ab3          	mul	s5,t3,s4
800021b6:	01e70e33          	add	t3,a4,t5
800021ba:	03230a33          	mul	s4,t1,s2
800021be:	015e0333          	add	t1,t3,s5
800021c2:	02188933          	mul	s2,a7,ra
800021c6:	014308b3          	add	a7,t1,s4
800021ca:	03d80b33          	mul	s6,a6,t4
800021ce:	012880b3          	add	ra,a7,s2
800021d2:	016087b3          	add	a5,ra,s6
800021d6:	f69560e3          	bltu	a0,s1,80002136 <matrix_test+0xb1a>
800021da:	00f2a023          	sw	a5,0(t0)
800021de:	0f85                	addi	t6,t6,1
800021e0:	0291                	addi	t0,t0,4
800021e2:	0589                	addi	a1,a1,2
800021e4:	e69fece3          	bltu	t6,s1,8000205c <matrix_test+0xa40>
800021e8:	0c05                	addi	s8,s8,1
800021ea:	93a2                	add	t2,t2,s0
800021ec:	9cde                	add	s9,s9,s7
800021ee:	e69c63e3          	bltu	s8,s1,80002054 <matrix_test+0xa38>
800021f2:	4cd2                	lw	s9,20(sp)
800021f4:	4d62                	lw	s10,24(sp)
800021f6:	49f2                	lw	s3,28(sp)
800021f8:	4382                	lw	t2,0(sp)
800021fa:	4501                	li	a0,0
800021fc:	4881                	li	a7,0
800021fe:	4581                	li	a1,0
80002200:	4c01                	li	s8,0
80002202:	0001                	nop
80002204:	0003a283          	lw	t0,0(t2)
80002208:	fff48f93          	addi	t6,s1,-1
8000220c:	0542                	slli	a0,a0,0x10
8000220e:	9596                	add	a1,a1,t0
80002210:	007ff693          	andi	a3,t6,7
80002214:	01055613          	srli	a2,a0,0x10
80002218:	06bcdce3          	bge	s9,a1,80002a90 <matrix_test+0x1474>
8000221c:	00a60593          	addi	a1,a2,10
80002220:	01059d93          	slli	s11,a1,0x10
80002224:	410dd513          	srai	a0,s11,0x10
80002228:	4581                	li	a1,0
8000222a:	4705                	li	a4,1
8000222c:	00438793          	addi	a5,t2,4
80002230:	8896                	mv	a7,t0
80002232:	12977f63          	bgeu	a4,s1,80002370 <matrix_test+0xd54>
80002236:	72068863          	beqz	a3,80002966 <matrix_test+0x134a>
8000223a:	10e68563          	beq	a3,a4,80002344 <matrix_test+0xd28>
8000223e:	4f09                	li	t5,2
80002240:	0de68e63          	beq	a3,t5,8000231c <matrix_test+0xd00>
80002244:	4a8d                	li	s5,3
80002246:	0b568763          	beq	a3,s5,800022f4 <matrix_test+0xcd8>
8000224a:	4e11                	li	t3,4
8000224c:	09c68263          	beq	a3,t3,800022d0 <matrix_test+0xcb4>
80002250:	4a15                	li	s4,5
80002252:	05468b63          	beq	a3,s4,800022a8 <matrix_test+0xc8c>
80002256:	4319                	li	t1,6
80002258:	02668563          	beq	a3,t1,80002282 <matrix_test+0xc66>
8000225c:	0007a883          	lw	a7,0(a5)
80002260:	01051913          	slli	s2,a0,0x10
80002264:	01095b13          	srli	s6,s2,0x10
80002268:	95c6                	add	a1,a1,a7
8000226a:	12bccde3          	blt	s9,a1,80002ba4 <matrix_test+0x1588>
8000226e:	0112a0b3          	slt	ra,t0,a7
80002272:	001b02b3          	add	t0,s6,ra
80002276:	01029f93          	slli	t6,t0,0x10
8000227a:	410fd513          	srai	a0,t6,0x10
8000227e:	0705                	addi	a4,a4,1
80002280:	0791                	addi	a5,a5,4
80002282:	4390                	lw	a2,0(a5)
80002284:	01051813          	slli	a6,a0,0x10
80002288:	01085e93          	srli	t4,a6,0x10
8000228c:	95b2                	add	a1,a1,a2
8000228e:	0ebcc9e3          	blt	s9,a1,80002b80 <matrix_test+0x1564>
80002292:	00c8a8b3          	slt	a7,a7,a2
80002296:	011e8db3          	add	s11,t4,a7
8000229a:	010d9f13          	slli	t5,s11,0x10
8000229e:	410f5513          	srai	a0,t5,0x10
800022a2:	0705                	addi	a4,a4,1
800022a4:	0791                	addi	a5,a5,4
800022a6:	88b2                	mv	a7,a2
800022a8:	0007ae03          	lw	t3,0(a5)
800022ac:	01051a13          	slli	s4,a0,0x10
800022b0:	010a5313          	srli	t1,s4,0x10
800022b4:	95f2                	add	a1,a1,t3
800022b6:	08bcc9e3          	blt	s9,a1,80002b48 <matrix_test+0x152c>
800022ba:	01c8a933          	slt	s2,a7,t3
800022be:	01230b33          	add	s6,t1,s2
800022c2:	010b1093          	slli	ra,s6,0x10
800022c6:	4100d513          	srai	a0,ra,0x10
800022ca:	0705                	addi	a4,a4,1
800022cc:	0791                	addi	a5,a5,4
800022ce:	88f2                	mv	a7,t3
800022d0:	4394                	lw	a3,0(a5)
800022d2:	0542                	slli	a0,a0,0x10
800022d4:	01055613          	srli	a2,a0,0x10
800022d8:	95b6                	add	a1,a1,a3
800022da:	02bccbe3          	blt	s9,a1,80002b10 <matrix_test+0x14f4>
800022de:	00d8a833          	slt	a6,a7,a3
800022e2:	01060eb3          	add	t4,a2,a6
800022e6:	010e9893          	slli	a7,t4,0x10
800022ea:	4108d513          	srai	a0,a7,0x10
800022ee:	0705                	addi	a4,a4,1
800022f0:	0791                	addi	a5,a5,4
800022f2:	88b6                	mv	a7,a3
800022f4:	0007aa83          	lw	s5,0(a5)
800022f8:	01051e13          	slli	t3,a0,0x10
800022fc:	010e5a13          	srli	s4,t3,0x10
80002300:	95d6                	add	a1,a1,s5
80002302:	7ebccd63          	blt	s9,a1,80002afc <matrix_test+0x14e0>
80002306:	0158a333          	slt	t1,a7,s5
8000230a:	006a0933          	add	s2,s4,t1
8000230e:	01091b13          	slli	s6,s2,0x10
80002312:	410b5513          	srai	a0,s6,0x10
80002316:	0705                	addi	a4,a4,1
80002318:	0791                	addi	a5,a5,4
8000231a:	88d6                	mv	a7,s5
8000231c:	0007a283          	lw	t0,0(a5)
80002320:	01051f93          	slli	t6,a0,0x10
80002324:	010fd693          	srli	a3,t6,0x10
80002328:	9596                	add	a1,a1,t0
8000232a:	78bccf63          	blt	s9,a1,80002ac8 <matrix_test+0x14ac>
8000232e:	0058a533          	slt	a0,a7,t0
80002332:	00a68633          	add	a2,a3,a0
80002336:	01061813          	slli	a6,a2,0x10
8000233a:	41085513          	srai	a0,a6,0x10
8000233e:	0705                	addi	a4,a4,1
80002340:	0791                	addi	a5,a5,4
80002342:	8896                	mv	a7,t0
80002344:	0007ad83          	lw	s11,0(a5)
80002348:	01051f13          	slli	t5,a0,0x10
8000234c:	010f5a93          	srli	s5,t5,0x10
80002350:	95ee                	add	a1,a1,s11
80002352:	76bcc363          	blt	s9,a1,80002ab8 <matrix_test+0x149c>
80002356:	01b8ae33          	slt	t3,a7,s11
8000235a:	01ca8a33          	add	s4,s5,t3
8000235e:	010a1313          	slli	t1,s4,0x10
80002362:	41035513          	srai	a0,t1,0x10
80002366:	0705                	addi	a4,a4,1
80002368:	0791                	addi	a5,a5,4
8000236a:	88ee                	mv	a7,s11
8000236c:	5e976d63          	bltu	a4,s1,80002966 <matrix_test+0x134a>
80002370:	0c05                	addi	s8,s8,1
80002372:	93de                	add	t2,t2,s7
80002374:	e89c68e3          	bltu	s8,s1,80002204 <matrix_test+0xbe8>
80002378:	45b2                	lw	a1,12(sp)
8000237a:	4d81                	li	s11,0
8000237c:	081010ef          	jal	ra,80003bfc <crc16>
80002380:	85aa                	mv	a1,a0
80002382:	4612                	lw	a2,4(sp)
80002384:	4502                	lw	a0,0(sp)
80002386:	4f22                	lw	t5,8(sp)
80002388:	8e7a                	mv	t3,t5
8000238a:	892a                	mv	s2,a0
8000238c:	4e81                	li	t4,0
8000238e:	0001                	nop
80002390:	00061383          	lh	t2,0(a2)
80002394:	000e1c03          	lh	s8,0(t3)
80002398:	fff48813          	addi	a6,s1,-1
8000239c:	4305                	li	t1,1
8000239e:	03838ab3          	mul	s5,t2,s8
800023a2:	00387a13          	andi	s4,a6,3
800023a6:	00260393          	addi	t2,a2,2
800023aa:	008e08b3          	add	a7,t3,s0
800023ae:	402adb13          	srai	s6,s5,0x2
800023b2:	405ad093          	srai	ra,s5,0x5
800023b6:	00fb7293          	andi	t0,s6,15
800023ba:	07f0ff93          	andi	t6,ra,127
800023be:	03f287b3          	mul	a5,t0,t6
800023c2:	12937a63          	bgeu	t1,s1,800024f6 <matrix_test+0xeda>
800023c6:	080a0663          	beqz	s4,80002452 <matrix_test+0xe36>
800023ca:	046a0e63          	beq	s4,t1,80002426 <matrix_test+0xe0a>
800023ce:	4689                	li	a3,2
800023d0:	02da0763          	beq	s4,a3,800023fe <matrix_test+0xde2>
800023d4:	00039703          	lh	a4,0(t2)
800023d8:	00089c03          	lh	s8,0(a7)
800023dc:	4309                	li	t1,2
800023de:	00460393          	addi	t2,a2,4
800023e2:	03870833          	mul	a6,a4,s8
800023e6:	98a2                	add	a7,a7,s0
800023e8:	40285a93          	srai	s5,a6,0x2
800023ec:	40585a13          	srai	s4,a6,0x5
800023f0:	00fafb13          	andi	s6,s5,15
800023f4:	07fa7093          	andi	ra,s4,127
800023f8:	021b02b3          	mul	t0,s6,ra
800023fc:	9796                	add	a5,a5,t0
800023fe:	00039f83          	lh	t6,0(t2)
80002402:	00089683          	lh	a3,0(a7)
80002406:	0305                	addi	t1,t1,1
80002408:	0389                	addi	t2,t2,2
8000240a:	02df8733          	mul	a4,t6,a3
8000240e:	98a2                	add	a7,a7,s0
80002410:	40275c13          	srai	s8,a4,0x2
80002414:	40575813          	srai	a6,a4,0x5
80002418:	00fc7a93          	andi	s5,s8,15
8000241c:	07f87a13          	andi	s4,a6,127
80002420:	034a8b33          	mul	s6,s5,s4
80002424:	97da                	add	a5,a5,s6
80002426:	00039083          	lh	ra,0(t2)
8000242a:	00089283          	lh	t0,0(a7)
8000242e:	0305                	addi	t1,t1,1
80002430:	0389                	addi	t2,t2,2
80002432:	02508fb3          	mul	t6,ra,t0
80002436:	98a2                	add	a7,a7,s0
80002438:	402fd693          	srai	a3,t6,0x2
8000243c:	405fd713          	srai	a4,t6,0x5
80002440:	00f6fc13          	andi	s8,a3,15
80002444:	07f77813          	andi	a6,a4,127
80002448:	030c0ab3          	mul	s5,s8,a6
8000244c:	97d6                	add	a5,a5,s5
8000244e:	0a937463          	bgeu	t1,s1,800024f6 <matrix_test+0xeda>
80002452:	00888a33          	add	s4,a7,s0
80002456:	00039283          	lh	t0,0(t2)
8000245a:	00089f83          	lh	t6,0(a7)
8000245e:	00239683          	lh	a3,2(t2)
80002462:	008a00b3          	add	ra,s4,s0
80002466:	000a1b03          	lh	s6,0(s4)
8000246a:	00439a83          	lh	s5,4(t2)
8000246e:	008088b3          	add	a7,ra,s0
80002472:	00009083          	lh	ra,0(ra)
80002476:	03f28733          	mul	a4,t0,t6
8000247a:	00089803          	lh	a6,0(a7)
8000247e:	00639c03          	lh	s8,6(t2)
80002482:	0311                	addi	t1,t1,4
80002484:	03a1                	addi	t2,t2,8
80002486:	98a2                	add	a7,a7,s0
80002488:	03668a33          	mul	s4,a3,s6
8000248c:	40275293          	srai	t0,a4,0x2
80002490:	40575f93          	srai	t6,a4,0x5
80002494:	00f2fb13          	andi	s6,t0,15
80002498:	07fff713          	andi	a4,t6,127
8000249c:	021a80b3          	mul	ra,s5,ra
800024a0:	405a5693          	srai	a3,s4,0x5
800024a4:	402a5a93          	srai	s5,s4,0x2
800024a8:	07f6ff93          	andi	t6,a3,127
800024ac:	00faf293          	andi	t0,s5,15
800024b0:	030c0c33          	mul	s8,s8,a6
800024b4:	4020d813          	srai	a6,ra,0x2
800024b8:	4050d093          	srai	ra,ra,0x5
800024bc:	00f87a13          	andi	s4,a6,15
800024c0:	07f0fa93          	andi	s5,ra,127
800024c4:	02eb0733          	mul	a4,s6,a4
800024c8:	405c5693          	srai	a3,s8,0x5
800024cc:	402c5b13          	srai	s6,s8,0x2
800024d0:	00fb7c13          	andi	s8,s6,15
800024d4:	07f6f813          	andi	a6,a3,127
800024d8:	03f282b3          	mul	t0,t0,t6
800024dc:	97ba                	add	a5,a5,a4
800024de:	035a0fb3          	mul	t6,s4,s5
800024e2:	005780b3          	add	ra,a5,t0
800024e6:	030c0a33          	mul	s4,s8,a6
800024ea:	01f08ab3          	add	s5,ra,t6
800024ee:	014a87b3          	add	a5,s5,s4
800024f2:	f69360e3          	bltu	t1,s1,80002452 <matrix_test+0xe36>
800024f6:	00f92023          	sw	a5,0(s2)
800024fa:	0e85                	addi	t4,t4,1
800024fc:	0911                	addi	s2,s2,4
800024fe:	0e09                	addi	t3,t3,2
80002500:	e89ee8e3          	bltu	t4,s1,80002390 <matrix_test+0xd74>
80002504:	0d85                	addi	s11,s11,1
80002506:	9622                	add	a2,a2,s0
80002508:	955e                	add	a0,a0,s7
8000250a:	e69defe3          	bltu	s11,s1,80002388 <matrix_test+0xd6c>
8000250e:	4f42                	lw	t5,16(sp)
80002510:	4501                	li	a0,0
80002512:	4681                	li	a3,0
80002514:	4b01                	li	s6,0
80002516:	4d81                	li	s11,0
80002518:	000f2e03          	lw	t3,0(t5)
8000251c:	fff48913          	addi	s2,s1,-1
80002520:	0542                	slli	a0,a0,0x10
80002522:	9b72                	add	s6,s6,t3
80002524:	00397393          	andi	t2,s2,3
80002528:	01055e93          	srli	t4,a0,0x10
8000252c:	556cd863          	bge	s9,s6,80002a7c <matrix_test+0x1460>
80002530:	00ae8613          	addi	a2,t4,10
80002534:	01061b13          	slli	s6,a2,0x10
80002538:	410b5513          	srai	a0,s6,0x10
8000253c:	4b01                	li	s6,0
8000253e:	4305                	li	t1,1
80002540:	004f0893          	addi	a7,t5,4
80002544:	86f2                	mv	a3,t3
80002546:	1a937763          	bgeu	t1,s1,800026f4 <matrix_test+0x10d8>
8000254a:	10038963          	beqz	t2,8000265c <matrix_test+0x1040>
8000254e:	04638d63          	beq	t2,t1,800025a8 <matrix_test+0xf8c>
80002552:	4c09                	li	s8,2
80002554:	03838663          	beq	t2,s8,80002580 <matrix_test+0xf64>
80002558:	0008a803          	lw	a6,0(a7)
8000255c:	01051693          	slli	a3,a0,0x10
80002560:	0106d293          	srli	t0,a3,0x10
80002564:	9b42                	add	s6,s6,a6
80002566:	616cc563          	blt	s9,s6,80002b70 <matrix_test+0x1554>
8000256a:	010e27b3          	slt	a5,t3,a6
8000256e:	00f28fb3          	add	t6,t0,a5
80002572:	010f9093          	slli	ra,t6,0x10
80002576:	4100d513          	srai	a0,ra,0x10
8000257a:	0305                	addi	t1,t1,1
8000257c:	0891                	addi	a7,a7,4
8000257e:	86c2                	mv	a3,a6
80002580:	0008ae03          	lw	t3,0(a7)
80002584:	01051913          	slli	s2,a0,0x10
80002588:	01095393          	srli	t2,s2,0x10
8000258c:	9b72                	add	s6,s6,t3
8000258e:	596ccb63          	blt	s9,s6,80002b24 <matrix_test+0x1508>
80002592:	01c6a533          	slt	a0,a3,t3
80002596:	00a38eb3          	add	t4,t2,a0
8000259a:	010e9713          	slli	a4,t4,0x10
8000259e:	41075513          	srai	a0,a4,0x10
800025a2:	0305                	addi	t1,t1,1
800025a4:	0891                	addi	a7,a7,4
800025a6:	86f2                	mv	a3,t3
800025a8:	0008ac03          	lw	s8,0(a7)
800025ac:	01051813          	slli	a6,a0,0x10
800025b0:	01085293          	srli	t0,a6,0x10
800025b4:	9b62                	add	s6,s6,s8
800025b6:	536cc163          	blt	s9,s6,80002ad8 <matrix_test+0x14bc>
800025ba:	0186a6b3          	slt	a3,a3,s8
800025be:	00d287b3          	add	a5,t0,a3
800025c2:	01079f93          	slli	t6,a5,0x10
800025c6:	410fd513          	srai	a0,t6,0x10
800025ca:	0305                	addi	t1,t1,1
800025cc:	0891                	addi	a7,a7,4
800025ce:	86e2                	mv	a3,s8
800025d0:	08936663          	bltu	t1,s1,8000265c <matrix_test+0x1040>
800025d4:	a205                	j	800026f4 <matrix_test+0x10d8>
800025d6:	0001                	nop
800025d8:	00a90613          	addi	a2,s2,10
800025dc:	0048a283          	lw	t0,4(a7)
800025e0:	01061c13          	slli	s8,a2,0x10
800025e4:	410c5b13          	srai	s6,s8,0x10
800025e8:	4381                	li	t2,0
800025ea:	010b1813          	slli	a6,s6,0x10
800025ee:	00538933          	add	s2,t2,t0
800025f2:	0305                	addi	t1,t1,1
800025f4:	0891                	addi	a7,a7,4
800025f6:	01085693          	srli	a3,a6,0x10
800025fa:	092cdf63          	bge	s9,s2,80002698 <matrix_test+0x107c>
800025fe:	00a68a13          	addi	s4,a3,10
80002602:	0048a383          	lw	t2,4(a7)
80002606:	010a1a93          	slli	s5,s4,0x10
8000260a:	410ade13          	srai	t3,s5,0x10
8000260e:	4901                	li	s2,0
80002610:	010e1513          	slli	a0,t3,0x10
80002614:	007907b3          	add	a5,s2,t2
80002618:	01055e93          	srli	t4,a0,0x10
8000261c:	0afcc063          	blt	s9,a5,800026bc <matrix_test+0x10a0>
80002620:	0072a733          	slt	a4,t0,t2
80002624:	00ee8b33          	add	s6,t4,a4
80002628:	0088a683          	lw	a3,8(a7)
8000262c:	010b1c13          	slli	s8,s6,0x10
80002630:	410c5813          	srai	a6,s8,0x10
80002634:	01081f93          	slli	t6,a6,0x10
80002638:	00d78b33          	add	s6,a5,a3
8000263c:	010fd093          	srli	ra,t6,0x10
80002640:	096ccf63          	blt	s9,s6,800026de <matrix_test+0x10c2>
80002644:	00d3aa33          	slt	s4,t2,a3
80002648:	01408ab3          	add	s5,ra,s4
8000264c:	010a9e13          	slli	t3,s5,0x10
80002650:	030d                	addi	t1,t1,3
80002652:	410e5513          	srai	a0,t3,0x10
80002656:	08b1                	addi	a7,a7,12
80002658:	08937e63          	bgeu	t1,s1,800026f4 <matrix_test+0x10d8>
8000265c:	0008aa83          	lw	s5,0(a7)
80002660:	01051e13          	slli	t3,a0,0x10
80002664:	010e5913          	srli	s2,t3,0x10
80002668:	015b03b3          	add	t2,s6,s5
8000266c:	f67cc6e3          	blt	s9,t2,800025d8 <matrix_test+0xfbc>
80002670:	0156a533          	slt	a0,a3,s5
80002674:	00a90eb3          	add	t4,s2,a0
80002678:	0048a283          	lw	t0,4(a7)
8000267c:	010e9713          	slli	a4,t4,0x10
80002680:	41075b13          	srai	s6,a4,0x10
80002684:	010b1813          	slli	a6,s6,0x10
80002688:	00538933          	add	s2,t2,t0
8000268c:	0305                	addi	t1,t1,1
8000268e:	0891                	addi	a7,a7,4
80002690:	01085693          	srli	a3,a6,0x10
80002694:	f72cc5e3          	blt	s9,s2,800025fe <matrix_test+0xfe2>
80002698:	005aa7b3          	slt	a5,s5,t0
8000269c:	00f68fb3          	add	t6,a3,a5
800026a0:	0048a383          	lw	t2,4(a7)
800026a4:	010f9093          	slli	ra,t6,0x10
800026a8:	4100de13          	srai	t3,ra,0x10
800026ac:	010e1513          	slli	a0,t3,0x10
800026b0:	007907b3          	add	a5,s2,t2
800026b4:	01055e93          	srli	t4,a0,0x10
800026b8:	f6fcd4e3          	bge	s9,a5,80002620 <matrix_test+0x1004>
800026bc:	00ae8613          	addi	a2,t4,10
800026c0:	0088a683          	lw	a3,8(a7)
800026c4:	01061293          	slli	t0,a2,0x10
800026c8:	4102d813          	srai	a6,t0,0x10
800026cc:	4781                	li	a5,0
800026ce:	01081f93          	slli	t6,a6,0x10
800026d2:	00d78b33          	add	s6,a5,a3
800026d6:	010fd093          	srli	ra,t6,0x10
800026da:	f76cd5e3          	bge	s9,s6,80002644 <matrix_test+0x1028>
800026de:	00a08913          	addi	s2,ra,10
800026e2:	01091393          	slli	t2,s2,0x10
800026e6:	030d                	addi	t1,t1,3
800026e8:	4103d513          	srai	a0,t2,0x10
800026ec:	4b01                	li	s6,0
800026ee:	08b1                	addi	a7,a7,12
800026f0:	f69366e3          	bltu	t1,s1,8000265c <matrix_test+0x1040>
800026f4:	0d85                	addi	s11,s11,1
800026f6:	9f5e                	add	t5,t5,s7
800026f8:	e29de0e3          	bltu	s11,s1,80002518 <matrix_test+0xefc>
800026fc:	500010ef          	jal	ra,80003bfc <crc16>
80002700:	4b81                	li	s7,0
80002702:	0001                	nop
80002704:	000d5c83          	lhu	s9,0(s10)
80002708:	fff48593          	addi	a1,s1,-1
8000270c:	4705                	li	a4,1
8000270e:	413c8db3          	sub	s11,s9,s3
80002712:	01bd1023          	sh	s11,0(s10)
80002716:	0075ff13          	andi	t5,a1,7
8000271a:	002d0793          	addi	a5,s10,2
8000271e:	10977463          	bgeu	a4,s1,80002826 <matrix_test+0x120a>
80002722:	080f0e63          	beqz	t5,800027be <matrix_test+0x11a2>
80002726:	08ef0263          	beq	t5,a4,800027aa <matrix_test+0x118e>
8000272a:	4e89                	li	t4,2
8000272c:	07df0763          	beq	t5,t4,8000279a <matrix_test+0x117e>
80002730:	4c0d                	li	s8,3
80002732:	058f0c63          	beq	t5,s8,8000278a <matrix_test+0x116e>
80002736:	4611                	li	a2,4
80002738:	04cf0163          	beq	t5,a2,8000277a <matrix_test+0x115e>
8000273c:	4295                	li	t0,5
8000273e:	025f0663          	beq	t5,t0,8000276a <matrix_test+0x114e>
80002742:	4819                	li	a6,6
80002744:	010f0b63          	beq	t5,a6,8000275a <matrix_test+0x113e>
80002748:	0007d683          	lhu	a3,0(a5)
8000274c:	4709                	li	a4,2
8000274e:	41368fb3          	sub	t6,a3,s3
80002752:	01f79023          	sh	t6,0(a5)
80002756:	004d0793          	addi	a5,s10,4
8000275a:	0007d083          	lhu	ra,0(a5)
8000275e:	0705                	addi	a4,a4,1
80002760:	0789                	addi	a5,a5,2
80002762:	41308a33          	sub	s4,ra,s3
80002766:	ff479f23          	sh	s4,-2(a5)
8000276a:	0007da83          	lhu	s5,0(a5)
8000276e:	0705                	addi	a4,a4,1
80002770:	0789                	addi	a5,a5,2
80002772:	413a8e33          	sub	t3,s5,s3
80002776:	ffc79f23          	sh	t3,-2(a5)
8000277a:	0007d903          	lhu	s2,0(a5)
8000277e:	0705                	addi	a4,a4,1
80002780:	0789                	addi	a5,a5,2
80002782:	413903b3          	sub	t2,s2,s3
80002786:	fe779f23          	sh	t2,-2(a5)
8000278a:	0007db03          	lhu	s6,0(a5)
8000278e:	0705                	addi	a4,a4,1
80002790:	0789                	addi	a5,a5,2
80002792:	413b0333          	sub	t1,s6,s3
80002796:	fe679f23          	sh	t1,-2(a5)
8000279a:	0007d883          	lhu	a7,0(a5)
8000279e:	0705                	addi	a4,a4,1
800027a0:	0789                	addi	a5,a5,2
800027a2:	41388cb3          	sub	s9,a7,s3
800027a6:	ff979f23          	sh	s9,-2(a5)
800027aa:	0007d583          	lhu	a1,0(a5)
800027ae:	0789                	addi	a5,a5,2
800027b0:	0705                	addi	a4,a4,1
800027b2:	41358db3          	sub	s11,a1,s3
800027b6:	ffb79f23          	sh	s11,-2(a5)
800027ba:	06977663          	bgeu	a4,s1,80002826 <matrix_test+0x120a>
800027be:	0007df03          	lhu	t5,0(a5)
800027c2:	0027de83          	lhu	t4,2(a5)
800027c6:	0047dc03          	lhu	s8,4(a5)
800027ca:	0067d283          	lhu	t0,6(a5)
800027ce:	0087d803          	lhu	a6,8(a5)
800027d2:	00a7df83          	lhu	t6,10(a5)
800027d6:	00c7d603          	lhu	a2,12(a5)
800027da:	00e7d683          	lhu	a3,14(a5)
800027de:	413f00b3          	sub	ra,t5,s3
800027e2:	413e8a33          	sub	s4,t4,s3
800027e6:	413c0ab3          	sub	s5,s8,s3
800027ea:	41328e33          	sub	t3,t0,s3
800027ee:	41380933          	sub	s2,a6,s3
800027f2:	413f83b3          	sub	t2,t6,s3
800027f6:	41360b33          	sub	s6,a2,s3
800027fa:	41368333          	sub	t1,a3,s3
800027fe:	00179023          	sh	ra,0(a5)
80002802:	01479123          	sh	s4,2(a5)
80002806:	01579223          	sh	s5,4(a5)
8000280a:	01c79323          	sh	t3,6(a5)
8000280e:	01279423          	sh	s2,8(a5)
80002812:	00779523          	sh	t2,10(a5)
80002816:	01679623          	sh	s6,12(a5)
8000281a:	00679723          	sh	t1,14(a5)
8000281e:	0721                	addi	a4,a4,8
80002820:	07c1                	addi	a5,a5,16
80002822:	f8976ee3          	bltu	a4,s1,800027be <matrix_test+0x11a2>
80002826:	0b85                	addi	s7,s7,1
80002828:	9d22                	add	s10,s10,s0
8000282a:	ec9bede3          	bltu	s7,s1,80002704 <matrix_test+0x10e8>
8000282e:	01051413          	slli	s0,a0,0x10
80002832:	41045513          	srai	a0,s0,0x10
80002836:	40f6                	lw	ra,92(sp)
80002838:	4466                	lw	s0,88(sp)
8000283a:	44d6                	lw	s1,84(sp)
8000283c:	4946                	lw	s2,80(sp)
8000283e:	49b6                	lw	s3,76(sp)
80002840:	4a26                	lw	s4,72(sp)
80002842:	4a96                	lw	s5,68(sp)
80002844:	4b06                	lw	s6,64(sp)
80002846:	5bf2                	lw	s7,60(sp)
80002848:	5c62                	lw	s8,56(sp)
8000284a:	5cd2                	lw	s9,52(sp)
8000284c:	5d42                	lw	s10,48(sp)
8000284e:	5db2                	lw	s11,44(sp)
80002850:	6125                	addi	sp,sp,96
80002852:	8082                	ret
80002854:	0047ad83          	lw	s11,4(a5)
80002858:	00af8e93          	addi	t4,t6,10
8000285c:	010e9893          	slli	a7,t4,0x10
80002860:	4108d813          	srai	a6,a7,0x10
80002864:	4581                	li	a1,0
80002866:	01081f13          	slli	t5,a6,0x10
8000286a:	01b582b3          	add	t0,a1,s11
8000286e:	0705                	addi	a4,a4,1
80002870:	0791                	addi	a5,a5,4
80002872:	010f5a93          	srli	s5,t5,0x10
80002876:	125cd563          	bge	s9,t0,800029a0 <matrix_test+0x1384>
8000287a:	00aa8913          	addi	s2,s5,10
8000287e:	0047af83          	lw	t6,4(a5)
80002882:	01091b13          	slli	s6,s2,0x10
80002886:	410b5093          	srai	ra,s6,0x10
8000288a:	4281                	li	t0,0
8000288c:	01009593          	slli	a1,ra,0x10
80002890:	01f28f33          	add	t5,t0,t6
80002894:	0105d693          	srli	a3,a1,0x10
80002898:	13ecc663          	blt	s9,t5,800029c4 <matrix_test+0x13a8>
8000289c:	01fda533          	slt	a0,s11,t6
800028a0:	00a68633          	add	a2,a3,a0
800028a4:	0087aa83          	lw	s5,8(a5)
800028a8:	01061813          	slli	a6,a2,0x10
800028ac:	41085d93          	srai	s11,a6,0x10
800028b0:	010d9e13          	slli	t3,s11,0x10
800028b4:	015f05b3          	add	a1,t5,s5
800028b8:	010e5a13          	srli	s4,t3,0x10
800028bc:	12bcc563          	blt	s9,a1,800029e6 <matrix_test+0x13ca>
800028c0:	015fa333          	slt	t1,t6,s5
800028c4:	006a0933          	add	s2,s4,t1
800028c8:	47d4                	lw	a3,12(a5)
800028ca:	01091b13          	slli	s6,s2,0x10
800028ce:	410b5f93          	srai	t6,s6,0x10
800028d2:	010f9513          	slli	a0,t6,0x10
800028d6:	00d58e33          	add	t3,a1,a3
800028da:	01055613          	srli	a2,a0,0x10
800028de:	13ccc463          	blt	s9,t3,80002a06 <matrix_test+0x13ea>
800028e2:	00daa833          	slt	a6,s5,a3
800028e6:	01060eb3          	add	t4,a2,a6
800028ea:	0107aa03          	lw	s4,16(a5)
800028ee:	010e9893          	slli	a7,t4,0x10
800028f2:	4108da93          	srai	s5,a7,0x10
800028f6:	010a9313          	slli	t1,s5,0x10
800028fa:	014e0633          	add	a2,t3,s4
800028fe:	01035913          	srli	s2,t1,0x10
80002902:	12ccc363          	blt	s9,a2,80002a28 <matrix_test+0x140c>
80002906:	0146ab33          	slt	s6,a3,s4
8000290a:	016900b3          	add	ra,s2,s6
8000290e:	0147a803          	lw	a6,20(a5)
80002912:	01009293          	slli	t0,ra,0x10
80002916:	4102d693          	srai	a3,t0,0x10
8000291a:	01069513          	slli	a0,a3,0x10
8000291e:	01060333          	add	t1,a2,a6
80002922:	01055e93          	srli	t4,a0,0x10
80002926:	126cc263          	blt	s9,t1,80002a4a <matrix_test+0x142e>
8000292a:	010a28b3          	slt	a7,s4,a6
8000292e:	011e8db3          	add	s11,t4,a7
80002932:	0187a883          	lw	a7,24(a5)
80002936:	010d9f13          	slli	t5,s11,0x10
8000293a:	410f5a13          	srai	s4,t5,0x10
8000293e:	010a1913          	slli	s2,s4,0x10
80002942:	011305b3          	add	a1,t1,a7
80002946:	01095b13          	srli	s6,s2,0x10
8000294a:	12bcc163          	blt	s9,a1,80002a6c <matrix_test+0x1450>
8000294e:	011820b3          	slt	ra,a6,a7
80002952:	001b02b3          	add	t0,s6,ra
80002956:	01029f93          	slli	t6,t0,0x10
8000295a:	410fd513          	srai	a0,t6,0x10
8000295e:	071d                	addi	a4,a4,7
80002960:	07f1                	addi	a5,a5,28
80002962:	a09777e3          	bgeu	a4,s1,80002370 <matrix_test+0xd54>
80002966:	0007a083          	lw	ra,0(a5)
8000296a:	01051293          	slli	t0,a0,0x10
8000296e:	0102df93          	srli	t6,t0,0x10
80002972:	9586                	add	a1,a1,ra
80002974:	eebcc0e3          	blt	s9,a1,80002854 <matrix_test+0x1238>
80002978:	0018a6b3          	slt	a3,a7,ra
8000297c:	0047ad83          	lw	s11,4(a5)
80002980:	00df8533          	add	a0,t6,a3
80002984:	01051613          	slli	a2,a0,0x10
80002988:	41065813          	srai	a6,a2,0x10
8000298c:	01081f13          	slli	t5,a6,0x10
80002990:	01b582b3          	add	t0,a1,s11
80002994:	0705                	addi	a4,a4,1
80002996:	0791                	addi	a5,a5,4
80002998:	010f5a93          	srli	s5,t5,0x10
8000299c:	ec5ccfe3          	blt	s9,t0,8000287a <matrix_test+0x125e>
800029a0:	01b0ae33          	slt	t3,ra,s11
800029a4:	01ca8a33          	add	s4,s5,t3
800029a8:	0047af83          	lw	t6,4(a5)
800029ac:	010a1313          	slli	t1,s4,0x10
800029b0:	41035093          	srai	ra,t1,0x10
800029b4:	01009593          	slli	a1,ra,0x10
800029b8:	01f28f33          	add	t5,t0,t6
800029bc:	0105d693          	srli	a3,a1,0x10
800029c0:	edecdee3          	bge	s9,t5,8000289c <matrix_test+0x1280>
800029c4:	00a68e93          	addi	t4,a3,10
800029c8:	0087aa83          	lw	s5,8(a5)
800029cc:	010e9893          	slli	a7,t4,0x10
800029d0:	4108dd93          	srai	s11,a7,0x10
800029d4:	4f01                	li	t5,0
800029d6:	010d9e13          	slli	t3,s11,0x10
800029da:	015f05b3          	add	a1,t5,s5
800029de:	010e5a13          	srli	s4,t3,0x10
800029e2:	ecbcdfe3          	bge	s9,a1,800028c0 <matrix_test+0x12a4>
800029e6:	00aa0093          	addi	ra,s4,10
800029ea:	47d4                	lw	a3,12(a5)
800029ec:	01009293          	slli	t0,ra,0x10
800029f0:	4102df93          	srai	t6,t0,0x10
800029f4:	4581                	li	a1,0
800029f6:	010f9513          	slli	a0,t6,0x10
800029fa:	00d58e33          	add	t3,a1,a3
800029fe:	01055613          	srli	a2,a0,0x10
80002a02:	efccd0e3          	bge	s9,t3,800028e2 <matrix_test+0x12c6>
80002a06:	00a60d93          	addi	s11,a2,10
80002a0a:	0107aa03          	lw	s4,16(a5)
80002a0e:	010d9f13          	slli	t5,s11,0x10
80002a12:	410f5a93          	srai	s5,t5,0x10
80002a16:	4e01                	li	t3,0
80002a18:	010a9313          	slli	t1,s5,0x10
80002a1c:	014e0633          	add	a2,t3,s4
80002a20:	01035913          	srli	s2,t1,0x10
80002a24:	eeccd1e3          	bge	s9,a2,80002906 <matrix_test+0x12ea>
80002a28:	00a90f93          	addi	t6,s2,10
80002a2c:	0147a803          	lw	a6,20(a5)
80002a30:	010f9593          	slli	a1,t6,0x10
80002a34:	4105d693          	srai	a3,a1,0x10
80002a38:	4601                	li	a2,0
80002a3a:	01069513          	slli	a0,a3,0x10
80002a3e:	01060333          	add	t1,a2,a6
80002a42:	01055e93          	srli	t4,a0,0x10
80002a46:	ee6cd2e3          	bge	s9,t1,8000292a <matrix_test+0x130e>
80002a4a:	00ae8a93          	addi	s5,t4,10
80002a4e:	0187a883          	lw	a7,24(a5)
80002a52:	010a9e13          	slli	t3,s5,0x10
80002a56:	410e5a13          	srai	s4,t3,0x10
80002a5a:	4301                	li	t1,0
80002a5c:	010a1913          	slli	s2,s4,0x10
80002a60:	011305b3          	add	a1,t1,a7
80002a64:	01095b13          	srli	s6,s2,0x10
80002a68:	eebcd3e3          	bge	s9,a1,8000294e <matrix_test+0x1332>
80002a6c:	00ab0593          	addi	a1,s6,10
80002a70:	01059693          	slli	a3,a1,0x10
80002a74:	4106d513          	srai	a0,a3,0x10
80002a78:	4581                	li	a1,0
80002a7a:	b5d5                	j	8000295e <matrix_test+0x1342>
80002a7c:	01c6a333          	slt	t1,a3,t3
80002a80:	006e88b3          	add	a7,t4,t1
80002a84:	01089713          	slli	a4,a7,0x10
80002a88:	41075513          	srai	a0,a4,0x10
80002a8c:	bc4d                	j	8000253e <matrix_test+0xf22>
80002a8e:	0001                	nop
80002a90:	0058a833          	slt	a6,a7,t0
80002a94:	01060eb3          	add	t4,a2,a6
80002a98:	010e9793          	slli	a5,t4,0x10
80002a9c:	4107d513          	srai	a0,a5,0x10
80002aa0:	f8aff06f          	j	8000222a <matrix_test+0xc0e>
80002aa4:	00caa6b3          	slt	a3,s5,a2
80002aa8:	00df8533          	add	a0,t6,a3
80002aac:	01051e93          	slli	t4,a0,0x10
80002ab0:	410ed513          	srai	a0,t4,0x10
80002ab4:	bc6ff06f          	j	80001e7a <matrix_test+0x85e>
80002ab8:	00aa8913          	addi	s2,s5,10
80002abc:	01091b13          	slli	s6,s2,0x10
80002ac0:	410b5513          	srai	a0,s6,0x10
80002ac4:	4581                	li	a1,0
80002ac6:	b045                	j	80002366 <matrix_test+0xd4a>
80002ac8:	00a68e93          	addi	t4,a3,10
80002acc:	010e9893          	slli	a7,t4,0x10
80002ad0:	4108d513          	srai	a0,a7,0x10
80002ad4:	4581                	li	a1,0
80002ad6:	b0a5                	j	8000233e <matrix_test+0xd22>
80002ad8:	00a28093          	addi	ra,t0,10
80002adc:	01009a13          	slli	s4,ra,0x10
80002ae0:	410a5513          	srai	a0,s4,0x10
80002ae4:	4b01                	li	s6,0
80002ae6:	b4d5                	j	800025ca <matrix_test+0xfae>
80002ae8:	00ac0a13          	addi	s4,s8,10
80002aec:	010a1093          	slli	ra,s4,0x10
80002af0:	4100d513          	srai	a0,ra,0x10
80002af4:	4581                	li	a1,0
80002af6:	c0eff06f          	j	80001f04 <matrix_test+0x8e8>
80002afa:	0001                	nop
80002afc:	00aa0593          	addi	a1,s4,10
80002b00:	01059093          	slli	ra,a1,0x10
80002b04:	4100d513          	srai	a0,ra,0x10
80002b08:	4581                	li	a1,0
80002b0a:	80dff06f          	j	80002316 <matrix_test+0xcfa>
80002b0e:	0001                	nop
80002b10:	00a60d93          	addi	s11,a2,10
80002b14:	010d9f13          	slli	t5,s11,0x10
80002b18:	410f5513          	srai	a0,t5,0x10
80002b1c:	4581                	li	a1,0
80002b1e:	fd0ff06f          	j	800022ee <matrix_test+0xcd2>
80002b22:	0001                	nop
80002b24:	00a38613          	addi	a2,t2,10
80002b28:	01061b13          	slli	s6,a2,0x10
80002b2c:	410b5513          	srai	a0,s6,0x10
80002b30:	4b01                	li	s6,0
80002b32:	bc85                	j	800025a2 <matrix_test+0xf86>
80002b34:	00a28e93          	addi	t4,t0,10
80002b38:	010e9593          	slli	a1,t4,0x10
80002b3c:	4105d513          	srai	a0,a1,0x10
80002b40:	4581                	li	a1,0
80002b42:	b9aff06f          	j	80001edc <matrix_test+0x8c0>
80002b46:	0001                	nop
80002b48:	00a30293          	addi	t0,t1,10
80002b4c:	01029f93          	slli	t6,t0,0x10
80002b50:	410fd513          	srai	a0,t6,0x10
80002b54:	4581                	li	a1,0
80002b56:	f74ff06f          	j	800022ca <matrix_test+0xcae>
80002b5a:	0001                	nop
80002b5c:	00ab0093          	addi	ra,s6,10
80002b60:	01009f13          	slli	t5,ra,0x10
80002b64:	410f5513          	srai	a0,t5,0x10
80002b68:	4581                	li	a1,0
80002b6a:	b4cff06f          	j	80001eb6 <matrix_test+0x89a>
80002b6e:	0001                	nop
80002b70:	00a28a13          	addi	s4,t0,10
80002b74:	010a1a93          	slli	s5,s4,0x10
80002b78:	410ad513          	srai	a0,s5,0x10
80002b7c:	4b01                	li	s6,0
80002b7e:	baf5                	j	8000257a <matrix_test+0xf5e>
80002b80:	00ae8593          	addi	a1,t4,10
80002b84:	01059a93          	slli	s5,a1,0x10
80002b88:	410ad513          	srai	a0,s5,0x10
80002b8c:	4581                	li	a1,0
80002b8e:	f14ff06f          	j	800022a2 <matrix_test+0xc86>
80002b92:	00a70513          	addi	a0,a4,10
80002b96:	01051f93          	slli	t6,a0,0x10
80002b9a:	410fd793          	srai	a5,t6,0x10
80002b9e:	4501                	li	a0,0
80002ba0:	db3fe06f          	j	80001952 <matrix_test+0x336>
80002ba4:	00ab0693          	addi	a3,s6,10
80002ba8:	01069513          	slli	a0,a3,0x10
80002bac:	8541                	srai	a0,a0,0x10
80002bae:	4581                	li	a1,0
80002bb0:	eceff06f          	j	8000227e <matrix_test+0xc62>
80002bb4:	4581                	li	a1,0
80002bb6:	046010ef          	jal	ra,80003bfc <crc16>
80002bba:	85aa                	mv	a1,a0
80002bbc:	4501                	li	a0,0
80002bbe:	03e010ef          	jal	ra,80003bfc <crc16>
80002bc2:	85aa                	mv	a1,a0
80002bc4:	4501                	li	a0,0
80002bc6:	036010ef          	jal	ra,80003bfc <crc16>
80002bca:	85aa                	mv	a1,a0
80002bcc:	4501                	li	a0,0
80002bce:	02e010ef          	jal	ra,80003bfc <crc16>
80002bd2:	b9b1                	j	8000282e <matrix_test+0x1212>

80002bd4 <core_bench_matrix>:
80002bd4:	1141                	addi	sp,sp,-16
80002bd6:	c422                	sw	s0,8(sp)
80002bd8:	872e                	mv	a4,a1
80002bda:	8432                	mv	s0,a2
80002bdc:	454c                	lw	a1,12(a0)
80002bde:	4514                	lw	a3,8(a0)
80002be0:	4150                	lw	a2,4(a0)
80002be2:	4108                	lw	a0,0(a0)
80002be4:	c606                	sw	ra,12(sp)
80002be6:	a37fe0ef          	jal	ra,8000161c <matrix_test>
80002bea:	85a2                	mv	a1,s0
80002bec:	4422                	lw	s0,8(sp)
80002bee:	40b2                	lw	ra,12(sp)
80002bf0:	0141                	addi	sp,sp,16
80002bf2:	00a0106f          	j	80003bfc <crc16>
	...

80002bf8 <core_init_matrix>:
80002bf8:	7179                	addi	sp,sp,-48
80002bfa:	d622                	sw	s0,44(sp)
80002bfc:	d426                	sw	s1,40(sp)
80002bfe:	d24a                	sw	s2,36(sp)
80002c00:	d04e                	sw	s3,32(sp)
80002c02:	ce52                	sw	s4,28(sp)
80002c04:	cc56                	sw	s5,24(sp)
80002c06:	ca5a                	sw	s6,20(sp)
80002c08:	c85e                	sw	s7,16(sp)
80002c0a:	c662                	sw	s8,12(sp)
80002c0c:	c466                	sw	s9,8(sp)
80002c0e:	882a                	mv	a6,a0
80002c10:	e211                	bnez	a2,80002c14 <core_init_matrix+0x1c>
80002c12:	4605                	li	a2,1
80002c14:	058d                	addi	a1,a1,3
80002c16:	ffc5f913          	andi	s2,a1,-4
80002c1a:	4501                	li	a0,0
80002c1c:	00081563          	bnez	a6,80002c26 <core_init_matrix+0x2e>
80002c20:	ac45                	j	80002ed0 <core_init_matrix+0x2d8>
80002c22:	0001                	nop
80002c24:	853a                	mv	a0,a4
80002c26:	00150713          	addi	a4,a0,1
80002c2a:	02e707b3          	mul	a5,a4,a4
80002c2e:	00379293          	slli	t0,a5,0x3
80002c32:	ff02e9e3          	bltu	t0,a6,80002c24 <core_init_matrix+0x2c>
80002c36:	02a50333          	mul	t1,a0,a0
80002c3a:	8a2a                	mv	s4,a0
80002c3c:	00131413          	slli	s0,t1,0x1
80002c40:	008909b3          	add	s3,s2,s0
80002c44:	24050d63          	beqz	a0,80002e9e <core_init_matrix+0x2a6>
80002c48:	6ec1                	lui	t4,0x10
80002c4a:	00151493          	slli	s1,a0,0x1
80002c4e:	8fce                	mv	t6,s3
80002c50:	4381                	li	t2,0
80002c52:	4805                	li	a6,1
80002c54:	41390f33          	sub	t5,s2,s3
80002c58:	1efd                	addi	t4,t4,-1
80002c5a:	0001                	nop
80002c5c:	03060633          	mul	a2,a2,a6
80002c60:	01081893          	slli	a7,a6,0x10
80002c64:	0108da93          	srli	s5,a7,0x10
80002c68:	fff50b93          	addi	s7,a0,-1
80002c6c:	003bfc13          	andi	s8,s7,3
80002c70:	01ff0b33          	add	s6,t5,t6
80002c74:	4e05                	li	t3,1
80002c76:	002f8593          	addi	a1,t6,2
80002c7a:	0805                	addi	a6,a6,1
80002c7c:	41f65c93          	srai	s9,a2,0x1f
80002c80:	010cd713          	srli	a4,s9,0x10
80002c84:	00e607b3          	add	a5,a2,a4
80002c88:	01d7f2b3          	and	t0,a5,t4
80002c8c:	40e28633          	sub	a2,t0,a4
80002c90:	00ca8333          	add	t1,s5,a2
80002c94:	01031893          	slli	a7,t1,0x10
80002c98:	0108db93          	srli	s7,a7,0x10
80002c9c:	9ade                	add	s5,s5,s7
80002c9e:	017f9023          	sh	s7,0(t6)
80002ca2:	0ffafc93          	andi	s9,s5,255
80002ca6:	019b1023          	sh	s9,0(s6)
80002caa:	1eae7663          	bgeu	t3,a0,80002e96 <core_init_matrix+0x29e>
80002cae:	0e0c0363          	beqz	s8,80002d94 <core_init_matrix+0x19c>
80002cb2:	09cc0c63          	beq	s8,t3,80002d4a <core_init_matrix+0x152>
80002cb6:	4b09                	li	s6,2
80002cb8:	056c0663          	beq	s8,s6,80002d04 <core_init_matrix+0x10c>
80002cbc:	03060633          	mul	a2,a2,a6
80002cc0:	01081e13          	slli	t3,a6,0x10
80002cc4:	010e5c13          	srli	s8,t3,0x10
80002cc8:	00bf02b3          	add	t0,t5,a1
80002ccc:	4e09                	li	t3,2
80002cce:	0805                	addi	a6,a6,1
80002cd0:	41f65713          	srai	a4,a2,0x1f
80002cd4:	01075793          	srli	a5,a4,0x10
80002cd8:	00f60333          	add	t1,a2,a5
80002cdc:	01d378b3          	and	a7,t1,t4
80002ce0:	40f88633          	sub	a2,a7,a5
80002ce4:	00cc0bb3          	add	s7,s8,a2
80002ce8:	010b9a93          	slli	s5,s7,0x10
80002cec:	010adc93          	srli	s9,s5,0x10
80002cf0:	018c8b33          	add	s6,s9,s8
80002cf4:	01959023          	sh	s9,0(a1)
80002cf8:	0ffb7593          	andi	a1,s6,255
80002cfc:	00b29023          	sh	a1,0(t0)
80002d00:	004f8593          	addi	a1,t6,4
80002d04:	03060633          	mul	a2,a2,a6
80002d08:	01081c13          	slli	s8,a6,0x10
80002d0c:	010c5293          	srli	t0,s8,0x10
80002d10:	00bf0333          	add	t1,t5,a1
80002d14:	0e05                	addi	t3,t3,1
80002d16:	0805                	addi	a6,a6,1
80002d18:	0589                	addi	a1,a1,2
80002d1a:	41f65713          	srai	a4,a2,0x1f
80002d1e:	01075793          	srli	a5,a4,0x10
80002d22:	00f608b3          	add	a7,a2,a5
80002d26:	01d8fbb3          	and	s7,a7,t4
80002d2a:	40fb8633          	sub	a2,s7,a5
80002d2e:	00c28ab3          	add	s5,t0,a2
80002d32:	010a9c93          	slli	s9,s5,0x10
80002d36:	010cdb13          	srli	s6,s9,0x10
80002d3a:	005b0c33          	add	s8,s6,t0
80002d3e:	ff659f23          	sh	s6,-2(a1)
80002d42:	0ffc7293          	andi	t0,s8,255
80002d46:	00531023          	sh	t0,0(t1)
80002d4a:	03060633          	mul	a2,a2,a6
80002d4e:	01081313          	slli	t1,a6,0x10
80002d52:	01035793          	srli	a5,t1,0x10
80002d56:	00bf08b3          	add	a7,t5,a1
80002d5a:	0589                	addi	a1,a1,2
80002d5c:	0e05                	addi	t3,t3,1
80002d5e:	0805                	addi	a6,a6,1
80002d60:	41f65713          	srai	a4,a2,0x1f
80002d64:	01075b93          	srli	s7,a4,0x10
80002d68:	01760ab3          	add	s5,a2,s7
80002d6c:	01dafcb3          	and	s9,s5,t4
80002d70:	417c8633          	sub	a2,s9,s7
80002d74:	00c78b33          	add	s6,a5,a2
80002d78:	010b1c13          	slli	s8,s6,0x10
80002d7c:	010c5293          	srli	t0,s8,0x10
80002d80:	00f28333          	add	t1,t0,a5
80002d84:	fe559f23          	sh	t0,-2(a1)
80002d88:	0ff37793          	andi	a5,t1,255
80002d8c:	00f89023          	sh	a5,0(a7)
80002d90:	10ae7363          	bgeu	t3,a0,80002e96 <core_init_matrix+0x29e>
80002d94:	03060633          	mul	a2,a2,a6
80002d98:	00280713          	addi	a4,a6,2
80002d9c:	01071c93          	slli	s9,a4,0x10
80002da0:	010cd313          	srli	t1,s9,0x10
80002da4:	00180793          	addi	a5,a6,1
80002da8:	01079b93          	slli	s7,a5,0x10
80002dac:	01081893          	slli	a7,a6,0x10
80002db0:	0108d293          	srli	t0,a7,0x10
80002db4:	00bf0c33          	add	s8,t5,a1
80002db8:	010bdb13          	srli	s6,s7,0x10
80002dbc:	41f65c93          	srai	s9,a2,0x1f
80002dc0:	010cdc93          	srli	s9,s9,0x10
80002dc4:	9666                	add	a2,a2,s9
80002dc6:	01d67633          	and	a2,a2,t4
80002dca:	41960cb3          	sub	s9,a2,s9
80002dce:	02fc87b3          	mul	a5,s9,a5
80002dd2:	01928633          	add	a2,t0,s9
80002dd6:	01061c93          	slli	s9,a2,0x10
80002dda:	010cd613          	srli	a2,s9,0x10
80002dde:	92b2                	add	t0,t0,a2
80002de0:	00c59023          	sh	a2,0(a1)
80002de4:	0ff2fc93          	andi	s9,t0,255
80002de8:	019c1023          	sh	s9,0(s8)
80002dec:	8be2                	mv	s7,s8
80002dee:	8662                	mv	a2,s8
80002df0:	82e2                	mv	t0,s8
80002df2:	41f7dc13          	srai	s8,a5,0x1f
80002df6:	010c5c93          	srli	s9,s8,0x10
80002dfa:	97e6                	add	a5,a5,s9
80002dfc:	01d7fc33          	and	s8,a5,t4
80002e00:	419c0cb3          	sub	s9,s8,s9
80002e04:	02ec8733          	mul	a4,s9,a4
80002e08:	019b07b3          	add	a5,s6,s9
80002e0c:	01079c13          	slli	s8,a5,0x10
80002e10:	010c5c93          	srli	s9,s8,0x10
80002e14:	9b66                	add	s6,s6,s9
80002e16:	01959123          	sh	s9,2(a1)
80002e1a:	0ffb7793          	andi	a5,s6,255
80002e1e:	00fb9123          	sh	a5,2(s7)
80002e22:	00380a93          	addi	s5,a6,3
80002e26:	010a9893          	slli	a7,s5,0x10
80002e2a:	41f75b93          	srai	s7,a4,0x1f
80002e2e:	010bdc13          	srli	s8,s7,0x10
80002e32:	9762                	add	a4,a4,s8
80002e34:	01d77cb3          	and	s9,a4,t4
80002e38:	418c8b33          	sub	s6,s9,s8
80002e3c:	035b0ab3          	mul	s5,s6,s5
80002e40:	016307b3          	add	a5,t1,s6
80002e44:	01079b93          	slli	s7,a5,0x10
80002e48:	010bdc13          	srli	s8,s7,0x10
80002e4c:	9362                	add	t1,t1,s8
80002e4e:	05a1                	addi	a1,a1,8
80002e50:	ff859e23          	sh	s8,-4(a1)
80002e54:	0ff37713          	andi	a4,t1,255
80002e58:	00e61223          	sh	a4,4(a2)
80002e5c:	0108d893          	srli	a7,a7,0x10
80002e60:	41fad613          	srai	a2,s5,0x1f
80002e64:	01065c93          	srli	s9,a2,0x10
80002e68:	019a8b33          	add	s6,s5,s9
80002e6c:	01db7ab3          	and	s5,s6,t4
80002e70:	419a8633          	sub	a2,s5,s9
80002e74:	00c887b3          	add	a5,a7,a2
80002e78:	01079b93          	slli	s7,a5,0x10
80002e7c:	010bdc13          	srli	s8,s7,0x10
80002e80:	98e2                	add	a7,a7,s8
80002e82:	ff859f23          	sh	s8,-2(a1)
80002e86:	0ff8f313          	andi	t1,a7,255
80002e8a:	0e11                	addi	t3,t3,4
80002e8c:	00629323          	sh	t1,6(t0)
80002e90:	0811                	addi	a6,a6,4
80002e92:	f0ae61e3          	bltu	t3,a0,80002d94 <core_init_matrix+0x19c>
80002e96:	0385                	addi	t2,t2,1
80002e98:	9fa6                	add	t6,t6,s1
80002e9a:	dca3e1e3          	bltu	t2,a0,80002c5c <core_init_matrix+0x64>
80002e9e:	944e                	add	s0,s0,s3
80002ea0:	00340493          	addi	s1,s0,3
80002ea4:	5432                	lw	s0,44(sp)
80002ea6:	ffc4ff93          	andi	t6,s1,-4
80002eaa:	0126a223          	sw	s2,4(a3)
80002eae:	0136a423          	sw	s3,8(a3)
80002eb2:	0146a023          	sw	s4,0(a3)
80002eb6:	01f6a623          	sw	t6,12(a3)
80002eba:	54a2                	lw	s1,40(sp)
80002ebc:	5912                	lw	s2,36(sp)
80002ebe:	5982                	lw	s3,32(sp)
80002ec0:	4a72                	lw	s4,28(sp)
80002ec2:	4ae2                	lw	s5,24(sp)
80002ec4:	4b52                	lw	s6,20(sp)
80002ec6:	4bc2                	lw	s7,16(sp)
80002ec8:	4c32                	lw	s8,12(sp)
80002eca:	4ca2                	lw	s9,8(sp)
80002ecc:	6145                	addi	sp,sp,48
80002ece:	8082                	ret
80002ed0:	00290993          	addi	s3,s2,2
80002ed4:	5a7d                	li	s4,-1
80002ed6:	557d                	li	a0,-1
80002ed8:	4409                	li	s0,2
80002eda:	b3bd                	j	80002c48 <core_init_matrix+0x50>
80002edc:	0000                	unimp
	...

80002ee0 <core_init_state>:
80002ee0:	4781                	li	a5,0
80002ee2:	4681                	li	a3,0
80002ee4:	1141                	addi	sp,sp,-16
80002ee6:	0585                	addi	a1,a1,1
80002ee8:	00f68733          	add	a4,a3,a5
80002eec:	01059293          	slli	t0,a1,0x10
80002ef0:	c622                	sw	s0,12(sp)
80002ef2:	c426                	sw	s1,8(sp)
80002ef4:	90000fb7          	lui	t6,0x90000
80002ef8:	90000337          	lui	t1,0x90000
80002efc:	90000f37          	lui	t5,0x90000
80002f00:	90000eb7          	lui	t4,0x90000
80002f04:	90000e37          	lui	t3,0x90000
80002f08:	c24a                	sw	s2,4(sp)
80002f0a:	fff50893          	addi	a7,a0,-1
80002f0e:	00170493          	addi	s1,a4,1
80002f12:	0102d593          	srli	a1,t0,0x10
80002f16:	4401                	li	s0,0
80002f18:	4811                	li	a6,4
80002f1a:	02c00293          	li	t0,44
80002f1e:	43a1                	li	t2,8
80002f20:	4c8f8f93          	addi	t6,t6,1224 # 900004c8 <_sp+0xffff04c8>
80002f24:	49430313          	addi	t1,t1,1172 # 90000494 <_sp+0xffff0494>
80002f28:	4a8f0f13          	addi	t5,t5,1192 # 900004a8 <_sp+0xffff04a8>
80002f2c:	4d8e8e93          	addi	t4,t4,1240 # 900004d8 <_sp+0xffff04d8>
80002f30:	4b8e0e13          	addi	t3,t3,1208 # 900004b8 <_sp+0xffff04b8>
80002f34:	0514f963          	bgeu	s1,a7,80002f86 <core_init_state+0xa6>
80002f38:	efe5                	bnez	a5,80003030 <core_init_state+0x150>
80002f3a:	0075f493          	andi	s1,a1,7
80002f3e:	ffd48793          	addi	a5,s1,-3
80002f42:	01079413          	slli	s0,a5,0x10
80002f46:	0035d913          	srli	s2,a1,0x3
80002f4a:	01045493          	srli	s1,s0,0x10
80002f4e:	00397713          	andi	a4,s2,3
80002f52:	14986663          	bltu	a6,s1,8000309e <core_init_state+0x1be>
80002f56:	00249793          	slli	a5,s1,0x2
80002f5a:	00678933          	add	s2,a5,t1
80002f5e:	00092403          	lw	s0,0(s2)
80002f62:	00271493          	slli	s1,a4,0x2
80002f66:	8402                	jr	s0
80002f68:	009e0733          	add	a4,t3,s1
80002f6c:	4300                	lw	s0,0(a4)
80002f6e:	47a1                	li	a5,8
80002f70:	0585                	addi	a1,a1,1
80002f72:	00f68733          	add	a4,a3,a5
80002f76:	01059913          	slli	s2,a1,0x10
80002f7a:	00170493          	addi	s1,a4,1
80002f7e:	01095593          	srli	a1,s2,0x10
80002f82:	fb14ebe3          	bltu	s1,a7,80002f38 <core_init_state+0x58>
80002f86:	00d607b3          	add	a5,a2,a3
80002f8a:	962a                	add	a2,a2,a0
80002f8c:	08a6f063          	bgeu	a3,a0,8000300c <core_init_state+0x12c>
80002f90:	40f603b3          	sub	t2,a2,a5
80002f94:	0073f413          	andi	s0,t2,7
80002f98:	c439                	beqz	s0,80002fe6 <core_init_state+0x106>
80002f9a:	4685                	li	a3,1
80002f9c:	04d40063          	beq	s0,a3,80002fdc <core_init_state+0xfc>
80002fa0:	4509                	li	a0,2
80002fa2:	02a40a63          	beq	s0,a0,80002fd6 <core_init_state+0xf6>
80002fa6:	480d                	li	a6,3
80002fa8:	03040463          	beq	s0,a6,80002fd0 <core_init_state+0xf0>
80002fac:	4891                	li	a7,4
80002fae:	01140e63          	beq	s0,a7,80002fca <core_init_state+0xea>
80002fb2:	4915                	li	s2,5
80002fb4:	01240863          	beq	s0,s2,80002fc4 <core_init_state+0xe4>
80002fb8:	4599                	li	a1,6
80002fba:	0eb41963          	bne	s0,a1,800030ac <core_init_state+0x1cc>
80002fbe:	00078023          	sb	zero,0(a5)
80002fc2:	0785                	addi	a5,a5,1
80002fc4:	00078023          	sb	zero,0(a5)
80002fc8:	0785                	addi	a5,a5,1
80002fca:	00078023          	sb	zero,0(a5)
80002fce:	0785                	addi	a5,a5,1
80002fd0:	00078023          	sb	zero,0(a5)
80002fd4:	0785                	addi	a5,a5,1
80002fd6:	00078023          	sb	zero,0(a5)
80002fda:	0785                	addi	a5,a5,1
80002fdc:	00078023          	sb	zero,0(a5)
80002fe0:	0785                	addi	a5,a5,1
80002fe2:	02c78563          	beq	a5,a2,8000300c <core_init_state+0x12c>
80002fe6:	00078023          	sb	zero,0(a5)
80002fea:	000780a3          	sb	zero,1(a5)
80002fee:	00078123          	sb	zero,2(a5)
80002ff2:	000781a3          	sb	zero,3(a5)
80002ff6:	00078223          	sb	zero,4(a5)
80002ffa:	000782a3          	sb	zero,5(a5)
80002ffe:	00078323          	sb	zero,6(a5)
80003002:	000783a3          	sb	zero,7(a5)
80003006:	07a1                	addi	a5,a5,8
80003008:	fcc79fe3          	bne	a5,a2,80002fe6 <core_init_state+0x106>
8000300c:	4432                	lw	s0,12(sp)
8000300e:	44a2                	lw	s1,8(sp)
80003010:	4912                	lw	s2,4(sp)
80003012:	0141                	addi	sp,sp,16
80003014:	8082                	ret
80003016:	0001                	nop
80003018:	009e87b3          	add	a5,t4,s1
8000301c:	4380                	lw	s0,0(a5)
8000301e:	47a1                	li	a5,8
80003020:	bf81                	j	80002f70 <core_init_state+0x90>
80003022:	0001                	nop
80003024:	009f0933          	add	s2,t5,s1
80003028:	00092403          	lw	s0,0(s2)
8000302c:	47a1                	li	a5,8
8000302e:	b789                	j	80002f70 <core_init_state+0x90>
80003030:	00044903          	lbu	s2,0(s0)
80003034:	96b2                	add	a3,a3,a2
80003036:	01268023          	sb	s2,0(a3)
8000303a:	00144903          	lbu	s2,1(s0)
8000303e:	012680a3          	sb	s2,1(a3)
80003042:	00244903          	lbu	s2,2(s0)
80003046:	01268123          	sb	s2,2(a3)
8000304a:	00344903          	lbu	s2,3(s0)
8000304e:	012681a3          	sb	s2,3(a3)
80003052:	03078463          	beq	a5,a6,8000307a <core_init_state+0x19a>
80003056:	00444903          	lbu	s2,4(s0)
8000305a:	01268223          	sb	s2,4(a3)
8000305e:	00544903          	lbu	s2,5(s0)
80003062:	012682a3          	sb	s2,5(a3)
80003066:	00644903          	lbu	s2,6(s0)
8000306a:	01268323          	sb	s2,6(a3)
8000306e:	00779663          	bne	a5,t2,8000307a <core_init_state+0x19a>
80003072:	00744403          	lbu	s0,7(s0)
80003076:	008683a3          	sb	s0,7(a3)
8000307a:	86a6                	mv	a3,s1
8000307c:	0075f493          	andi	s1,a1,7
80003080:	ffd48793          	addi	a5,s1,-3
80003084:	9732                	add	a4,a4,a2
80003086:	01079413          	slli	s0,a5,0x10
8000308a:	00570023          	sb	t0,0(a4)
8000308e:	0035d913          	srli	s2,a1,0x3
80003092:	01045493          	srli	s1,s0,0x10
80003096:	00397713          	andi	a4,s2,3
8000309a:	ea987ee3          	bgeu	a6,s1,80002f56 <core_init_state+0x76>
8000309e:	00271493          	slli	s1,a4,0x2
800030a2:	009f8733          	add	a4,t6,s1
800030a6:	4300                	lw	s0,0(a4)
800030a8:	4791                	li	a5,4
800030aa:	b5d9                	j	80002f70 <core_init_state+0x90>
800030ac:	00078023          	sb	zero,0(a5)
800030b0:	0785                	addi	a5,a5,1
800030b2:	b731                	j	80002fbe <core_init_state+0xde>

800030b4 <core_state_transition>:
800030b4:	411c                	lw	a5,0(a0)
800030b6:	0007c683          	lbu	a3,0(a5)
800030ba:	26068c63          	beqz	a3,80003332 <core_state_transition+0x27e>
800030be:	02c00813          	li	a6,44
800030c2:	00178713          	addi	a4,a5,1
800030c6:	25068c63          	beq	a3,a6,8000331e <core_state_transition+0x26a>
800030ca:	0005a883          	lw	a7,0(a1)
800030ce:	fd068613          	addi	a2,a3,-48
800030d2:	0ff67293          	andi	t0,a2,255
800030d6:	4325                	li	t1,9
800030d8:	00188393          	addi	t2,a7,1
800030dc:	0a536263          	bltu	t1,t0,80003180 <core_state_transition+0xcc>
800030e0:	0075a023          	sw	t2,0(a1)
800030e4:	0017c303          	lbu	t1,1(a5)
800030e8:	12030963          	beqz	t1,8000321a <core_state_transition+0x166>
800030ec:	00278e13          	addi	t3,a5,2
800030f0:	13030463          	beq	t1,a6,80003218 <core_state_transition+0x164>
800030f4:	fd030613          	addi	a2,t1,-48
800030f8:	02e00f13          	li	t5,46
800030fc:	4fa5                	li	t6,9
800030fe:	02c00893          	li	a7,44
80003102:	0ff67813          	andi	a6,a2,255
80003106:	03e30463          	beq	t1,t5,8000312e <core_state_transition+0x7a>
8000310a:	0b0fe363          	bltu	t6,a6,800031b0 <core_state_transition+0xfc>
8000310e:	00174303          	lbu	t1,1(a4)
80003112:	001e0393          	addi	t2,t3,1
80003116:	8772                	mv	a4,t3
80003118:	10030063          	beqz	t1,80003218 <core_state_transition+0x164>
8000311c:	23130663          	beq	t1,a7,80003348 <core_state_transition+0x294>
80003120:	fd030613          	addi	a2,t1,-48
80003124:	8e1e                	mv	t3,t2
80003126:	0ff67813          	andi	a6,a2,255
8000312a:	ffe310e3          	bne	t1,t5,8000310a <core_state_transition+0x56>
8000312e:	499c                	lw	a5,16(a1)
80003130:	00178e93          	addi	t4,a5,1
80003134:	01d5a823          	sw	t4,16(a1)
80003138:	00174383          	lbu	t2,1(a4)
8000313c:	20038363          	beqz	t2,80003342 <core_state_transition+0x28e>
80003140:	02c00713          	li	a4,44
80003144:	001e0e93          	addi	t4,t3,1
80003148:	1ce38863          	beq	t2,a4,80003318 <core_state_transition+0x264>
8000314c:	04500f13          	li	t5,69
80003150:	4fa5                	li	t6,9
80003152:	02c00893          	li	a7,44
80003156:	fd038813          	addi	a6,t2,-48
8000315a:	0df3f693          	andi	a3,t2,223
8000315e:	0ff87293          	andi	t0,a6,255
80003162:	0be68f63          	beq	a3,t5,80003220 <core_state_transition+0x16c>
80003166:	165ff563          	bgeu	t6,t0,800032d0 <core_state_transition+0x21c>
8000316a:	0145a303          	lw	t1,20(a1)
8000316e:	8776                	mv	a4,t4
80003170:	4385                	li	t2,1
80003172:	00130613          	addi	a2,t1,1
80003176:	c9d0                	sw	a2,20(a1)
80003178:	c118                	sw	a4,0(a0)
8000317a:	851e                	mv	a0,t2
8000317c:	8082                	ret
8000317e:	0001                	nop
80003180:	02b00e13          	li	t3,43
80003184:	05c68063          	beq	a3,t3,800031c4 <core_state_transition+0x110>
80003188:	02d00e93          	li	t4,45
8000318c:	03d68c63          	beq	a3,t4,800031c4 <core_state_transition+0x110>
80003190:	02e00f13          	li	t5,46
80003194:	15e68963          	beq	a3,t5,800032e6 <core_state_transition+0x232>
80003198:	0045af83          	lw	t6,4(a1)
8000319c:	0075a023          	sw	t2,0(a1)
800031a0:	4385                	li	t2,1
800031a2:	001f8693          	addi	a3,t6,1
800031a6:	c1d4                	sw	a3,4(a1)
800031a8:	c118                	sw	a4,0(a0)
800031aa:	851e                	mv	a0,t2
800031ac:	8082                	ret
800031ae:	0001                	nop
800031b0:	4994                	lw	a3,16(a1)
800031b2:	8772                	mv	a4,t3
800031b4:	4385                	li	t2,1
800031b6:	00168293          	addi	t0,a3,1
800031ba:	0055a823          	sw	t0,16(a1)
800031be:	c118                	sw	a4,0(a0)
800031c0:	851e                	mv	a0,t2
800031c2:	8082                	ret
800031c4:	0075a023          	sw	t2,0(a1)
800031c8:	0017c883          	lbu	a7,1(a5)
800031cc:	16088663          	beqz	a7,80003338 <core_state_transition+0x284>
800031d0:	00278713          	addi	a4,a5,2
800031d4:	17088263          	beq	a7,a6,80003338 <core_state_transition+0x284>
800031d8:	4590                	lw	a2,8(a1)
800031da:	fd088813          	addi	a6,a7,-48
800031de:	0ff87293          	andi	t0,a6,255
800031e2:	4325                	li	t1,9
800031e4:	00160393          	addi	t2,a2,1
800031e8:	00537c63          	bgeu	t1,t0,80003200 <core_state_transition+0x14c>
800031ec:	02e00e13          	li	t3,46
800031f0:	11c88863          	beq	a7,t3,80003300 <core_state_transition+0x24c>
800031f4:	0075a423          	sw	t2,8(a1)
800031f8:	4385                	li	t2,1
800031fa:	c118                	sw	a4,0(a0)
800031fc:	851e                	mv	a0,t2
800031fe:	8082                	ret
80003200:	0075a423          	sw	t2,8(a1)
80003204:	0027c303          	lbu	t1,2(a5)
80003208:	00030963          	beqz	t1,8000321a <core_state_transition+0x166>
8000320c:	02c00e93          	li	t4,44
80003210:	00170e13          	addi	t3,a4,1
80003214:	efd310e3          	bne	t1,t4,800030f4 <core_state_transition+0x40>
80003218:	8772                	mv	a4,t3
8000321a:	4391                	li	t2,4
8000321c:	b74d                	j	800031be <core_state_transition+0x10a>
8000321e:	0001                	nop
80003220:	49dc                	lw	a5,20(a1)
80003222:	00178713          	addi	a4,a5,1
80003226:	c9d8                	sw	a4,20(a1)
80003228:	001e4e03          	lbu	t3,1(t3)
8000322c:	100e0063          	beqz	t3,8000332c <core_state_transition+0x278>
80003230:	02c00f13          	li	t5,44
80003234:	001e8713          	addi	a4,t4,1
80003238:	0fee0b63          	beq	t3,t5,8000332e <core_state_transition+0x27a>
8000323c:	00c5af83          	lw	t6,12(a1)
80003240:	fd5e0893          	addi	a7,t3,-43
80003244:	0fd8f813          	andi	a6,a7,253
80003248:	001f8693          	addi	a3,t6,1
8000324c:	c5d4                	sw	a3,12(a1)
8000324e:	00080763          	beqz	a6,8000325c <core_state_transition+0x1a8>
80003252:	4385                	li	t2,1
80003254:	c118                	sw	a4,0(a0)
80003256:	851e                	mv	a0,t2
80003258:	8082                	ret
8000325a:	0001                	nop
8000325c:	001ec283          	lbu	t0,1(t4)
80003260:	0c028463          	beqz	t0,80003328 <core_state_transition+0x274>
80003264:	002e8713          	addi	a4,t4,2
80003268:	0de28063          	beq	t0,t5,80003328 <core_state_transition+0x274>
8000326c:	0185a303          	lw	t1,24(a1)
80003270:	fd028613          	addi	a2,t0,-48
80003274:	0ff67393          	andi	t2,a2,255
80003278:	00130e13          	addi	t3,t1,1
8000327c:	47a5                	li	a5,9
8000327e:	01c5ac23          	sw	t3,24(a1)
80003282:	fc77e8e3          	bltu	a5,t2,80003252 <core_state_transition+0x19e>
80003286:	002ec283          	lbu	t0,2(t4)
8000328a:	08028d63          	beqz	t0,80003324 <core_state_transition+0x270>
8000328e:	003e8613          	addi	a2,t4,3
80003292:	09e28863          	beq	t0,t5,80003322 <core_state_transition+0x26e>
80003296:	4ea5                	li	t4,9
80003298:	02c00f13          	li	t5,44
8000329c:	fd028f93          	addi	t6,t0,-48
800032a0:	0ffff893          	andi	a7,t6,255
800032a4:	011efa63          	bgeu	t4,a7,800032b8 <core_state_transition+0x204>
800032a8:	0045a803          	lw	a6,4(a1)
800032ac:	8732                	mv	a4,a2
800032ae:	4385                	li	t2,1
800032b0:	00180693          	addi	a3,a6,1
800032b4:	c1d4                	sw	a3,4(a1)
800032b6:	b721                	j	800031be <core_state_transition+0x10a>
800032b8:	00174283          	lbu	t0,1(a4)
800032bc:	00160313          	addi	t1,a2,1
800032c0:	8732                	mv	a4,a2
800032c2:	06028063          	beqz	t0,80003322 <core_state_transition+0x26e>
800032c6:	07e28b63          	beq	t0,t5,8000333c <core_state_transition+0x288>
800032ca:	861a                	mv	a2,t1
800032cc:	bfc1                	j	8000329c <core_state_transition+0x1e8>
800032ce:	0001                	nop
800032d0:	001e4383          	lbu	t2,1(t3)
800032d4:	001e8713          	addi	a4,t4,1
800032d8:	8e76                	mv	t3,t4
800032da:	02038f63          	beqz	t2,80003318 <core_state_transition+0x264>
800032de:	03138e63          	beq	t2,a7,8000331a <core_state_transition+0x266>
800032e2:	8eba                	mv	t4,a4
800032e4:	bd8d                	j	80003156 <core_state_transition+0xa2>
800032e6:	0075a023          	sw	t2,0(a1)
800032ea:	0017c383          	lbu	t2,1(a5)
800032ee:	02038663          	beqz	t2,8000331a <core_state_transition+0x266>
800032f2:	00278e93          	addi	t4,a5,2
800032f6:	03038163          	beq	t2,a6,80003318 <core_state_transition+0x264>
800032fa:	8e3a                	mv	t3,a4
800032fc:	bd81                	j	8000314c <core_state_transition+0x98>
800032fe:	0001                	nop
80003300:	0075a423          	sw	t2,8(a1)
80003304:	0027c383          	lbu	t2,2(a5)
80003308:	00038963          	beqz	t2,8000331a <core_state_transition+0x266>
8000330c:	02c00793          	li	a5,44
80003310:	00170e93          	addi	t4,a4,1
80003314:	fef393e3          	bne	t2,a5,800032fa <core_state_transition+0x246>
80003318:	8776                	mv	a4,t4
8000331a:	4395                	li	t2,5
8000331c:	b54d                	j	800031be <core_state_transition+0x10a>
8000331e:	4381                	li	t2,0
80003320:	bd79                	j	800031be <core_state_transition+0x10a>
80003322:	8732                	mv	a4,a2
80003324:	439d                	li	t2,7
80003326:	bd61                	j	800031be <core_state_transition+0x10a>
80003328:	4399                	li	t2,6
8000332a:	bd51                	j	800031be <core_state_transition+0x10a>
8000332c:	8776                	mv	a4,t4
8000332e:	438d                	li	t2,3
80003330:	b579                	j	800031be <core_state_transition+0x10a>
80003332:	873e                	mv	a4,a5
80003334:	4381                	li	t2,0
80003336:	b561                	j	800031be <core_state_transition+0x10a>
80003338:	4389                	li	t2,2
8000333a:	b551                	j	800031be <core_state_transition+0x10a>
8000333c:	871a                	mv	a4,t1
8000333e:	439d                	li	t2,7
80003340:	bdbd                	j	800031be <core_state_transition+0x10a>
80003342:	8772                	mv	a4,t3
80003344:	4395                	li	t2,5
80003346:	bda5                	j	800031be <core_state_transition+0x10a>
80003348:	871e                	mv	a4,t2
8000334a:	4391                	li	t2,4
8000334c:	bd8d                	j	800031be <core_state_transition+0x10a>
	...

80003350 <core_bench_state>:
80003350:	7119                	addi	sp,sp,-128
80003352:	dca2                	sw	s0,120(sp)
80003354:	d8ca                	sw	s2,112(sp)
80003356:	d6ce                	sw	s3,108(sp)
80003358:	d4d2                	sw	s4,104(sp)
8000335a:	d0da                	sw	s6,96(sp)
8000335c:	cede                	sw	s7,92(sp)
8000335e:	de86                	sw	ra,124(sp)
80003360:	daa6                	sw	s1,116(sp)
80003362:	d2d6                	sw	s5,100(sp)
80003364:	842e                	mv	s0,a1
80003366:	0005c583          	lbu	a1,0(a1)
8000336a:	c622                	sw	s0,12(sp)
8000336c:	d802                	sw	zero,48(sp)
8000336e:	c802                	sw	zero,16(sp)
80003370:	da02                	sw	zero,52(sp)
80003372:	ca02                	sw	zero,20(sp)
80003374:	dc02                	sw	zero,56(sp)
80003376:	cc02                	sw	zero,24(sp)
80003378:	de02                	sw	zero,60(sp)
8000337a:	ce02                	sw	zero,28(sp)
8000337c:	c082                	sw	zero,64(sp)
8000337e:	d002                	sw	zero,32(sp)
80003380:	c282                	sw	zero,68(sp)
80003382:	d202                	sw	zero,36(sp)
80003384:	c482                	sw	zero,72(sp)
80003386:	d402                	sw	zero,40(sp)
80003388:	c682                	sw	zero,76(sp)
8000338a:	d602                	sw	zero,44(sp)
8000338c:	8baa                	mv	s7,a0
8000338e:	8b32                	mv	s6,a2
80003390:	8a36                	mv	s4,a3
80003392:	893a                	mv	s2,a4
80003394:	89be                	mv	s3,a5
80003396:	0e058763          	beqz	a1,80003484 <core_bench_state+0x134>
8000339a:	1804                	addi	s1,sp,48
8000339c:	00c10a93          	addi	s5,sp,12
800033a0:	85a6                	mv	a1,s1
800033a2:	8556                	mv	a0,s5
800033a4:	3b01                	jal	800030b4 <core_state_transition>
800033a6:	050a                	slli	a0,a0,0x2
800033a8:	089c                	addi	a5,sp,80
800033aa:	00a782b3          	add	t0,a5,a0
800033ae:	4732                	lw	a4,12(sp)
800033b0:	fc02a303          	lw	t1,-64(t0)
800033b4:	00074383          	lbu	t2,0(a4)
800033b8:	00130613          	addi	a2,t1,1
800033bc:	fcc2a023          	sw	a2,-64(t0)
800033c0:	fe0390e3          	bnez	t2,800033a0 <core_bench_state+0x50>
800033c4:	c622                	sw	s0,12(sp)
800033c6:	9ba2                	add	s7,s7,s0
800033c8:	00044583          	lbu	a1,0(s0)
800033cc:	0d747263          	bgeu	s0,s7,80003490 <core_bench_state+0x140>
800033d0:	88a2                	mv	a7,s0
800033d2:	02c00693          	li	a3,44
800033d6:	a019                	j	800033dc <core_bench_state+0x8c>
800033d8:	0008c583          	lbu	a1,0(a7)
800033dc:	0165c0b3          	xor	ra,a1,s6
800033e0:	00d58463          	beq	a1,a3,800033e8 <core_bench_state+0x98>
800033e4:	00188023          	sb	ra,0(a7)
800033e8:	4832                	lw	a6,12(sp)
800033ea:	012808b3          	add	a7,a6,s2
800033ee:	c646                	sw	a7,12(sp)
800033f0:	ff78e4e3          	bltu	a7,s7,800033d8 <core_bench_state+0x88>
800033f4:	00044e03          	lbu	t3,0(s0)
800033f8:	c622                	sw	s0,12(sp)
800033fa:	00c10a93          	addi	s5,sp,12
800033fe:	020e0963          	beqz	t3,80003430 <core_bench_state+0xe0>
80003402:	0001                	nop
80003404:	85a6                	mv	a1,s1
80003406:	8556                	mv	a0,s5
80003408:	3175                	jal	800030b4 <core_state_transition>
8000340a:	00251e93          	slli	t4,a0,0x2
8000340e:	05010f13          	addi	t5,sp,80
80003412:	01df0fb3          	add	t6,t5,t4
80003416:	4b32                	lw	s6,12(sp)
80003418:	fc0fa583          	lw	a1,-64(t6)
8000341c:	000b4503          	lbu	a0,0(s6)
80003420:	00158793          	addi	a5,a1,1
80003424:	fcffa023          	sw	a5,-64(t6)
80003428:	fd71                	bnez	a0,80003404 <core_bench_state+0xb4>
8000342a:	c622                	sw	s0,12(sp)
8000342c:	03747163          	bgeu	s0,s7,8000344e <core_bench_state+0xfe>
80003430:	02c00a93          	li	s5,44
80003434:	00044283          	lbu	t0,0(s0)
80003438:	0142c333          	xor	t1,t0,s4
8000343c:	01528463          	beq	t0,s5,80003444 <core_bench_state+0xf4>
80003440:	00640023          	sb	t1,0(s0)
80003444:	4432                	lw	s0,12(sp)
80003446:	944a                	add	s0,s0,s2
80003448:	c622                	sw	s0,12(sp)
8000344a:	ff7465e3          	bltu	s0,s7,80003434 <core_bench_state+0xe4>
8000344e:	01010b93          	addi	s7,sp,16
80003452:	8b26                	mv	s6,s1
80003454:	000ba503          	lw	a0,0(s7)
80003458:	85ce                	mv	a1,s3
8000345a:	0b91                	addi	s7,s7,4
8000345c:	24e5                	jal	80003744 <crcu32>
8000345e:	85aa                	mv	a1,a0
80003460:	000b2503          	lw	a0,0(s6)
80003464:	0b11                	addi	s6,s6,4
80003466:	2cf9                	jal	80003744 <crcu32>
80003468:	89aa                	mv	s3,a0
8000346a:	fe9b95e3          	bne	s7,s1,80003454 <core_bench_state+0x104>
8000346e:	50f6                	lw	ra,124(sp)
80003470:	5466                	lw	s0,120(sp)
80003472:	54d6                	lw	s1,116(sp)
80003474:	5946                	lw	s2,112(sp)
80003476:	59b6                	lw	s3,108(sp)
80003478:	5a26                	lw	s4,104(sp)
8000347a:	5a96                	lw	s5,100(sp)
8000347c:	5b06                	lw	s6,96(sp)
8000347e:	4bf6                	lw	s7,92(sp)
80003480:	6109                	addi	sp,sp,128
80003482:	8082                	ret
80003484:	00a40bb3          	add	s7,s0,a0
80003488:	1804                	addi	s1,sp,48
8000348a:	f57463e3          	bltu	s0,s7,800033d0 <core_bench_state+0x80>
8000348e:	b7c1                	j	8000344e <core_bench_state+0xfe>
80003490:	f9b5                	bnez	a1,80003404 <core_bench_state+0xb4>
80003492:	bf75                	j	8000344e <core_bench_state+0xfe>
80003494:	0000                	unimp
	...

80003498 <get_seed_32>:
80003498:	4795                	li	a5,5
8000349a:	04a7e563          	bltu	a5,a0,800034e4 <get_seed_32+0x4c>
8000349e:	900002b7          	lui	t0,0x90000
800034a2:	050a                	slli	a0,a0,0x2
800034a4:	59828313          	addi	t1,t0,1432 # 90000598 <_sp+0xffff0598>
800034a8:	006503b3          	add	t2,a0,t1
800034ac:	0003a583          	lw	a1,0(t2)
800034b0:	8582                	jr	a1
800034b2:	0001                	nop
800034b4:	8181a503          	lw	a0,-2024(gp) # 90000c68 <seed5_volatile>
800034b8:	8082                	ret
800034ba:	0001                	nop
800034bc:	8101a503          	lw	a0,-2032(gp) # 90000c60 <seed1_volatile>
800034c0:	8082                	ret
800034c2:	0001                	nop
800034c4:	8141a503          	lw	a0,-2028(gp) # 90000c64 <seed2_volatile>
800034c8:	8082                	ret
800034ca:	0001                	nop
800034cc:	90001737          	lui	a4,0x90001
800034d0:	c5072503          	lw	a0,-944(a4) # 90000c50 <_sp+0xffff0c50>
800034d4:	8082                	ret
800034d6:	0001                	nop
800034d8:	900016b7          	lui	a3,0x90001
800034dc:	c546a503          	lw	a0,-940(a3) # 90000c54 <_sp+0xffff0c54>
800034e0:	8082                	ret
800034e2:	0001                	nop
800034e4:	4501                	li	a0,0
800034e6:	8082                	ret
800034e8:	0000                	unimp
	...

800034ec <crcu16>:
800034ec:	00a5c633          	xor	a2,a1,a0
800034f0:	0ff57693          	andi	a3,a0,255
800034f4:	00167293          	andi	t0,a2,1
800034f8:	0016d713          	srli	a4,a3,0x1
800034fc:	0015d813          	srli	a6,a1,0x1
80003500:	00028b63          	beqz	t0,80003516 <crcu16+0x2a>
80003504:	7369                	lui	t1,0xffffa
80003506:	00130393          	addi	t2,t1,1 # ffffa001 <_sp+0x6ffea001>
8000350a:	007847b3          	xor	a5,a6,t2
8000350e:	01079593          	slli	a1,a5,0x10
80003512:	0105d813          	srli	a6,a1,0x10
80003516:	00e848b3          	xor	a7,a6,a4
8000351a:	0018fe13          	andi	t3,a7,1
8000351e:	0026de93          	srli	t4,a3,0x2
80003522:	00185313          	srli	t1,a6,0x1
80003526:	000e0b63          	beqz	t3,8000353c <crcu16+0x50>
8000352a:	7f69                	lui	t5,0xffffa
8000352c:	001f0f93          	addi	t6,t5,1 # ffffa001 <_sp+0x6ffea001>
80003530:	01f34633          	xor	a2,t1,t6
80003534:	01061293          	slli	t0,a2,0x10
80003538:	0102d313          	srli	t1,t0,0x10
8000353c:	01d34733          	xor	a4,t1,t4
80003540:	00177393          	andi	t2,a4,1
80003544:	0036d593          	srli	a1,a3,0x3
80003548:	00135e93          	srli	t4,t1,0x1
8000354c:	00038b63          	beqz	t2,80003562 <crcu16+0x76>
80003550:	7869                	lui	a6,0xffffa
80003552:	00180893          	addi	a7,a6,1 # ffffa001 <_sp+0x6ffea001>
80003556:	011ec7b3          	xor	a5,t4,a7
8000355a:	01079e13          	slli	t3,a5,0x10
8000355e:	010e5e93          	srli	t4,t3,0x10
80003562:	00becf33          	xor	t5,t4,a1
80003566:	001f7f93          	andi	t6,t5,1
8000356a:	0046d293          	srli	t0,a3,0x4
8000356e:	001ed593          	srli	a1,t4,0x1
80003572:	000f8b63          	beqz	t6,80003588 <crcu16+0x9c>
80003576:	7669                	lui	a2,0xffffa
80003578:	00160313          	addi	t1,a2,1 # ffffa001 <_sp+0x6ffea001>
8000357c:	0065c733          	xor	a4,a1,t1
80003580:	01071393          	slli	t2,a4,0x10
80003584:	0103d593          	srli	a1,t2,0x10
80003588:	0055c833          	xor	a6,a1,t0
8000358c:	00187893          	andi	a7,a6,1
80003590:	0056de13          	srli	t3,a3,0x5
80003594:	0015d293          	srli	t0,a1,0x1
80003598:	00088b63          	beqz	a7,800035ae <crcu16+0xc2>
8000359c:	7ee9                	lui	t4,0xffffa
8000359e:	001e8f13          	addi	t5,t4,1 # ffffa001 <_sp+0x6ffea001>
800035a2:	01e2c7b3          	xor	a5,t0,t5
800035a6:	01079f93          	slli	t6,a5,0x10
800035aa:	010fd293          	srli	t0,t6,0x10
800035ae:	01c2c633          	xor	a2,t0,t3
800035b2:	00167313          	andi	t1,a2,1
800035b6:	0066d713          	srli	a4,a3,0x6
800035ba:	0012de13          	srli	t3,t0,0x1
800035be:	00030b63          	beqz	t1,800035d4 <crcu16+0xe8>
800035c2:	73e9                	lui	t2,0xffffa
800035c4:	00138593          	addi	a1,t2,1 # ffffa001 <_sp+0x6ffea001>
800035c8:	00be4833          	xor	a6,t3,a1
800035cc:	01081893          	slli	a7,a6,0x10
800035d0:	0108de13          	srli	t3,a7,0x10
800035d4:	00ee4eb3          	xor	t4,t3,a4
800035d8:	001eff13          	andi	t5,t4,1
800035dc:	829d                	srli	a3,a3,0x7
800035de:	001e5313          	srli	t1,t3,0x1
800035e2:	000f0b63          	beqz	t5,800035f8 <crcu16+0x10c>
800035e6:	7fe9                	lui	t6,0xffffa
800035e8:	001f8293          	addi	t0,t6,1 # ffffa001 <_sp+0x6ffea001>
800035ec:	005347b3          	xor	a5,t1,t0
800035f0:	01079613          	slli	a2,a5,0x10
800035f4:	01065313          	srli	t1,a2,0x10
800035f8:	00137713          	andi	a4,t1,1
800035fc:	00135e13          	srli	t3,t1,0x1
80003600:	00d70b63          	beq	a4,a3,80003616 <crcu16+0x12a>
80003604:	73e9                	lui	t2,0xffffa
80003606:	00138593          	addi	a1,t2,1 # ffffa001 <_sp+0x6ffea001>
8000360a:	00be4833          	xor	a6,t3,a1
8000360e:	01081893          	slli	a7,a6,0x10
80003612:	0108de13          	srli	t3,a7,0x10
80003616:	8121                	srli	a0,a0,0x8
80003618:	01c54eb3          	xor	t4,a0,t3
8000361c:	0ff57f13          	andi	t5,a0,255
80003620:	001eff93          	andi	t6,t4,1
80003624:	001f5693          	srli	a3,t5,0x1
80003628:	001e5713          	srli	a4,t3,0x1
8000362c:	000f8b63          	beqz	t6,80003642 <crcu16+0x156>
80003630:	72e9                	lui	t0,0xffffa
80003632:	00128793          	addi	a5,t0,1 # ffffa001 <_sp+0x6ffea001>
80003636:	00f74633          	xor	a2,a4,a5
8000363a:	01061313          	slli	t1,a2,0x10
8000363e:	01035713          	srli	a4,t1,0x10
80003642:	00e6c3b3          	xor	t2,a3,a4
80003646:	0013f593          	andi	a1,t2,1
8000364a:	002f5813          	srli	a6,t5,0x2
8000364e:	00175f93          	srli	t6,a4,0x1
80003652:	c991                	beqz	a1,80003666 <crcu16+0x17a>
80003654:	78e9                	lui	a7,0xffffa
80003656:	00188e13          	addi	t3,a7,1 # ffffa001 <_sp+0x6ffea001>
8000365a:	01cfc533          	xor	a0,t6,t3
8000365e:	01051e93          	slli	t4,a0,0x10
80003662:	010edf93          	srli	t6,t4,0x10
80003666:	010fc6b3          	xor	a3,t6,a6
8000366a:	0016f293          	andi	t0,a3,1
8000366e:	003f5613          	srli	a2,t5,0x3
80003672:	001fd593          	srli	a1,t6,0x1
80003676:	00028b63          	beqz	t0,8000368c <crcu16+0x1a0>
8000367a:	77e9                	lui	a5,0xffffa
8000367c:	00178313          	addi	t1,a5,1 # ffffa001 <_sp+0x6ffea001>
80003680:	0065c733          	xor	a4,a1,t1
80003684:	01071393          	slli	t2,a4,0x10
80003688:	0103d593          	srli	a1,t2,0x10
8000368c:	00c5c833          	xor	a6,a1,a2
80003690:	00187893          	andi	a7,a6,1
80003694:	004f5e13          	srli	t3,t5,0x4
80003698:	0015d293          	srli	t0,a1,0x1
8000369c:	00088b63          	beqz	a7,800036b2 <crcu16+0x1c6>
800036a0:	7ee9                	lui	t4,0xffffa
800036a2:	001e8f93          	addi	t6,t4,1 # ffffa001 <_sp+0x6ffea001>
800036a6:	01f2c533          	xor	a0,t0,t6
800036aa:	01051693          	slli	a3,a0,0x10
800036ae:	0106d293          	srli	t0,a3,0x10
800036b2:	01c2c633          	xor	a2,t0,t3
800036b6:	00167793          	andi	a5,a2,1
800036ba:	005f5313          	srli	t1,t5,0x5
800036be:	0012d893          	srli	a7,t0,0x1
800036c2:	cb91                	beqz	a5,800036d6 <crcu16+0x1ea>
800036c4:	7769                	lui	a4,0xffffa
800036c6:	00170393          	addi	t2,a4,1 # ffffa001 <_sp+0x6ffea001>
800036ca:	0078c5b3          	xor	a1,a7,t2
800036ce:	01059813          	slli	a6,a1,0x10
800036d2:	01085893          	srli	a7,a6,0x10
800036d6:	0068ce33          	xor	t3,a7,t1
800036da:	001e7e93          	andi	t4,t3,1
800036de:	006f5f93          	srli	t6,t5,0x6
800036e2:	0018d313          	srli	t1,a7,0x1
800036e6:	000e8b63          	beqz	t4,800036fc <crcu16+0x210>
800036ea:	76e9                	lui	a3,0xffffa
800036ec:	00168293          	addi	t0,a3,1 # ffffa001 <_sp+0x6ffea001>
800036f0:	00534533          	xor	a0,t1,t0
800036f4:	01051613          	slli	a2,a0,0x10
800036f8:	01065313          	srli	t1,a2,0x10
800036fc:	01f347b3          	xor	a5,t1,t6
80003700:	0017f393          	andi	t2,a5,1
80003704:	007f5f13          	srli	t5,t5,0x7
80003708:	00135e13          	srli	t3,t1,0x1
8000370c:	00038b63          	beqz	t2,80003722 <crcu16+0x236>
80003710:	7769                	lui	a4,0xffffa
80003712:	00170593          	addi	a1,a4,1 # ffffa001 <_sp+0x6ffea001>
80003716:	00be4833          	xor	a6,t3,a1
8000371a:	01081893          	slli	a7,a6,0x10
8000371e:	0108de13          	srli	t3,a7,0x10
80003722:	001e7e93          	andi	t4,t3,1
80003726:	001e5513          	srli	a0,t3,0x1
8000372a:	01ee8a63          	beq	t4,t5,8000373e <crcu16+0x252>
8000372e:	7fe9                	lui	t6,0xffffa
80003730:	001f8693          	addi	a3,t6,1 # ffffa001 <_sp+0x6ffea001>
80003734:	00d542b3          	xor	t0,a0,a3
80003738:	01029513          	slli	a0,t0,0x10
8000373c:	8141                	srli	a0,a0,0x10
8000373e:	8082                	ret
80003740:	0000                	unimp
	...

80003744 <crcu32>:
80003744:	00a5c833          	xor	a6,a1,a0
80003748:	0ff57693          	andi	a3,a0,255
8000374c:	01051713          	slli	a4,a0,0x10
80003750:	00187293          	andi	t0,a6,1
80003754:	01075313          	srli	t1,a4,0x10
80003758:	0016d613          	srli	a2,a3,0x1
8000375c:	0015de13          	srli	t3,a1,0x1
80003760:	00028b63          	beqz	t0,80003776 <crcu32+0x32>
80003764:	75e9                	lui	a1,0xffffa
80003766:	00158393          	addi	t2,a1,1 # ffffa001 <_sp+0x6ffea001>
8000376a:	007e47b3          	xor	a5,t3,t2
8000376e:	01079893          	slli	a7,a5,0x10
80003772:	0108de13          	srli	t3,a7,0x10
80003776:	00ce4eb3          	xor	t4,t3,a2
8000377a:	001eff13          	andi	t5,t4,1
8000377e:	0026df93          	srli	t6,a3,0x2
80003782:	001e5393          	srli	t2,t3,0x1
80003786:	000f0b63          	beqz	t5,8000379c <crcu32+0x58>
8000378a:	7869                	lui	a6,0xffffa
8000378c:	00180293          	addi	t0,a6,1 # ffffa001 <_sp+0x6ffea001>
80003790:	0053c733          	xor	a4,t2,t0
80003794:	01071613          	slli	a2,a4,0x10
80003798:	01065393          	srli	t2,a2,0x10
8000379c:	01f3c5b3          	xor	a1,t2,t6
800037a0:	0015f893          	andi	a7,a1,1
800037a4:	0036de13          	srli	t3,a3,0x3
800037a8:	0013d813          	srli	a6,t2,0x1
800037ac:	00088b63          	beqz	a7,800037c2 <crcu32+0x7e>
800037b0:	7ee9                	lui	t4,0xffffa
800037b2:	001e8f13          	addi	t5,t4,1 # ffffa001 <_sp+0x6ffea001>
800037b6:	01e847b3          	xor	a5,a6,t5
800037ba:	01079f93          	slli	t6,a5,0x10
800037be:	010fd813          	srli	a6,t6,0x10
800037c2:	01c842b3          	xor	t0,a6,t3
800037c6:	0012f713          	andi	a4,t0,1
800037ca:	0046d613          	srli	a2,a3,0x4
800037ce:	00185e93          	srli	t4,a6,0x1
800037d2:	cb11                	beqz	a4,800037e6 <crcu32+0xa2>
800037d4:	73e9                	lui	t2,0xffffa
800037d6:	00138593          	addi	a1,t2,1 # ffffa001 <_sp+0x6ffea001>
800037da:	00bec8b3          	xor	a7,t4,a1
800037de:	01089e13          	slli	t3,a7,0x10
800037e2:	010e5e93          	srli	t4,t3,0x10
800037e6:	00cecf33          	xor	t5,t4,a2
800037ea:	001f7f93          	andi	t6,t5,1
800037ee:	0056d813          	srli	a6,a3,0x5
800037f2:	001ed393          	srli	t2,t4,0x1
800037f6:	000f8b63          	beqz	t6,8000380c <crcu32+0xc8>
800037fa:	72e9                	lui	t0,0xffffa
800037fc:	00128713          	addi	a4,t0,1 # ffffa001 <_sp+0x6ffea001>
80003800:	00e3c7b3          	xor	a5,t2,a4
80003804:	01079613          	slli	a2,a5,0x10
80003808:	01065393          	srli	t2,a2,0x10
8000380c:	0103c5b3          	xor	a1,t2,a6
80003810:	0015f893          	andi	a7,a1,1
80003814:	0066de13          	srli	t3,a3,0x6
80003818:	0013d293          	srli	t0,t2,0x1
8000381c:	00088b63          	beqz	a7,80003832 <crcu32+0xee>
80003820:	7ee9                	lui	t4,0xffffa
80003822:	001e8f13          	addi	t5,t4,1 # ffffa001 <_sp+0x6ffea001>
80003826:	01e2cfb3          	xor	t6,t0,t5
8000382a:	010f9813          	slli	a6,t6,0x10
8000382e:	01085293          	srli	t0,a6,0x10
80003832:	01c2c733          	xor	a4,t0,t3
80003836:	00177613          	andi	a2,a4,1
8000383a:	829d                	srli	a3,a3,0x7
8000383c:	0012de13          	srli	t3,t0,0x1
80003840:	ca11                	beqz	a2,80003854 <crcu32+0x110>
80003842:	73e9                	lui	t2,0xffffa
80003844:	00138593          	addi	a1,t2,1 # ffffa001 <_sp+0x6ffea001>
80003848:	00be47b3          	xor	a5,t3,a1
8000384c:	01079893          	slli	a7,a5,0x10
80003850:	0108de13          	srli	t3,a7,0x10
80003854:	001e7e93          	andi	t4,t3,1
80003858:	001e5393          	srli	t2,t3,0x1
8000385c:	00de8b63          	beq	t4,a3,80003872 <crcu32+0x12e>
80003860:	7f69                	lui	t5,0xffffa
80003862:	001f0f93          	addi	t6,t5,1 # ffffa001 <_sp+0x6ffea001>
80003866:	01f3c833          	xor	a6,t2,t6
8000386a:	01081293          	slli	t0,a6,0x10
8000386e:	0102d393          	srli	t2,t0,0x10
80003872:	00835313          	srli	t1,t1,0x8
80003876:	0063c633          	xor	a2,t2,t1
8000387a:	0ff37713          	andi	a4,t1,255
8000387e:	00167693          	andi	a3,a2,1
80003882:	00175593          	srli	a1,a4,0x1
80003886:	0013df13          	srli	t5,t2,0x1
8000388a:	ca91                	beqz	a3,8000389e <crcu32+0x15a>
8000388c:	78e9                	lui	a7,0xffffa
8000388e:	00188e13          	addi	t3,a7,1 # ffffa001 <_sp+0x6ffea001>
80003892:	01cf47b3          	xor	a5,t5,t3
80003896:	01079e93          	slli	t4,a5,0x10
8000389a:	010edf13          	srli	t5,t4,0x10
8000389e:	00bf4fb3          	xor	t6,t5,a1
800038a2:	001ff813          	andi	a6,t6,1
800038a6:	00275293          	srli	t0,a4,0x2
800038aa:	001f5593          	srli	a1,t5,0x1
800038ae:	00080b63          	beqz	a6,800038c4 <crcu32+0x180>
800038b2:	73e9                	lui	t2,0xffffa
800038b4:	00138313          	addi	t1,t2,1 # ffffa001 <_sp+0x6ffea001>
800038b8:	0065c633          	xor	a2,a1,t1
800038bc:	01061693          	slli	a3,a2,0x10
800038c0:	0106d593          	srli	a1,a3,0x10
800038c4:	0055c8b3          	xor	a7,a1,t0
800038c8:	0018fe13          	andi	t3,a7,1
800038cc:	00375e93          	srli	t4,a4,0x3
800038d0:	0015d293          	srli	t0,a1,0x1
800038d4:	000e0b63          	beqz	t3,800038ea <crcu32+0x1a6>
800038d8:	7f69                	lui	t5,0xffffa
800038da:	001f0f93          	addi	t6,t5,1 # ffffa001 <_sp+0x6ffea001>
800038de:	01f2c7b3          	xor	a5,t0,t6
800038e2:	01079813          	slli	a6,a5,0x10
800038e6:	01085293          	srli	t0,a6,0x10
800038ea:	01d2c3b3          	xor	t2,t0,t4
800038ee:	0013f313          	andi	t1,t2,1
800038f2:	00475693          	srli	a3,a4,0x4
800038f6:	0012de93          	srli	t4,t0,0x1
800038fa:	00030b63          	beqz	t1,80003910 <crcu32+0x1cc>
800038fe:	7669                	lui	a2,0xffffa
80003900:	00160593          	addi	a1,a2,1 # ffffa001 <_sp+0x6ffea001>
80003904:	00bec8b3          	xor	a7,t4,a1
80003908:	01089e13          	slli	t3,a7,0x10
8000390c:	010e5e93          	srli	t4,t3,0x10
80003910:	00decf33          	xor	t5,t4,a3
80003914:	001f7f93          	andi	t6,t5,1
80003918:	00575813          	srli	a6,a4,0x5
8000391c:	001ed593          	srli	a1,t4,0x1
80003920:	000f8b63          	beqz	t6,80003936 <crcu32+0x1f2>
80003924:	72e9                	lui	t0,0xffffa
80003926:	00128393          	addi	t2,t0,1 # ffffa001 <_sp+0x6ffea001>
8000392a:	0075c7b3          	xor	a5,a1,t2
8000392e:	01079313          	slli	t1,a5,0x10
80003932:	01035593          	srli	a1,t1,0x10
80003936:	0105c6b3          	xor	a3,a1,a6
8000393a:	0016f613          	andi	a2,a3,1
8000393e:	00675893          	srli	a7,a4,0x6
80003942:	0015d813          	srli	a6,a1,0x1
80003946:	ca11                	beqz	a2,8000395a <crcu32+0x216>
80003948:	7e69                	lui	t3,0xffffa
8000394a:	001e0e93          	addi	t4,t3,1 # ffffa001 <_sp+0x6ffea001>
8000394e:	01d84f33          	xor	t5,a6,t4
80003952:	010f1f93          	slli	t6,t5,0x10
80003956:	010fd813          	srli	a6,t6,0x10
8000395a:	011842b3          	xor	t0,a6,a7
8000395e:	0012f393          	andi	t2,t0,1
80003962:	831d                	srli	a4,a4,0x7
80003964:	00185613          	srli	a2,a6,0x1
80003968:	00038b63          	beqz	t2,8000397e <crcu32+0x23a>
8000396c:	7369                	lui	t1,0xffffa
8000396e:	00130593          	addi	a1,t1,1 # ffffa001 <_sp+0x6ffea001>
80003972:	00b647b3          	xor	a5,a2,a1
80003976:	01079693          	slli	a3,a5,0x10
8000397a:	0106d613          	srli	a2,a3,0x10
8000397e:	00167893          	andi	a7,a2,1
80003982:	00165813          	srli	a6,a2,0x1
80003986:	00e88b63          	beq	a7,a4,8000399c <crcu32+0x258>
8000398a:	7e69                	lui	t3,0xffffa
8000398c:	001e0e93          	addi	t4,t3,1 # ffffa001 <_sp+0x6ffea001>
80003990:	01d84f33          	xor	t5,a6,t4
80003994:	010f1f93          	slli	t6,t5,0x10
80003998:	010fd813          	srli	a6,t6,0x10
8000399c:	8141                	srli	a0,a0,0x10
8000399e:	00a842b3          	xor	t0,a6,a0
800039a2:	0ff57393          	andi	t2,a0,255
800039a6:	01051313          	slli	t1,a0,0x10
800039aa:	0012f713          	andi	a4,t0,1
800039ae:	01035593          	srli	a1,t1,0x10
800039b2:	0013d693          	srli	a3,t2,0x1
800039b6:	00185e93          	srli	t4,a6,0x1
800039ba:	cb11                	beqz	a4,800039ce <crcu32+0x28a>
800039bc:	77e9                	lui	a5,0xffffa
800039be:	00178613          	addi	a2,a5,1 # ffffa001 <_sp+0x6ffea001>
800039c2:	00cec8b3          	xor	a7,t4,a2
800039c6:	01089e13          	slli	t3,a7,0x10
800039ca:	010e5e93          	srli	t4,t3,0x10
800039ce:	00decf33          	xor	t5,t4,a3
800039d2:	001f7f93          	andi	t6,t5,1
800039d6:	0023d813          	srli	a6,t2,0x2
800039da:	001ed693          	srli	a3,t4,0x1
800039de:	000f8b63          	beqz	t6,800039f4 <crcu32+0x2b0>
800039e2:	72e9                	lui	t0,0xffffa
800039e4:	00128713          	addi	a4,t0,1 # ffffa001 <_sp+0x6ffea001>
800039e8:	00e6c533          	xor	a0,a3,a4
800039ec:	01051313          	slli	t1,a0,0x10
800039f0:	01035693          	srli	a3,t1,0x10
800039f4:	0106c7b3          	xor	a5,a3,a6
800039f8:	0017f893          	andi	a7,a5,1
800039fc:	0033d613          	srli	a2,t2,0x3
80003a00:	0016d813          	srli	a6,a3,0x1
80003a04:	00088b63          	beqz	a7,80003a1a <crcu32+0x2d6>
80003a08:	7e69                	lui	t3,0xffffa
80003a0a:	001e0e93          	addi	t4,t3,1 # ffffa001 <_sp+0x6ffea001>
80003a0e:	01d84f33          	xor	t5,a6,t4
80003a12:	010f1f93          	slli	t6,t5,0x10
80003a16:	010fd813          	srli	a6,t6,0x10
80003a1a:	00c842b3          	xor	t0,a6,a2
80003a1e:	0012f713          	andi	a4,t0,1
80003a22:	0043d313          	srli	t1,t2,0x4
80003a26:	00185e13          	srli	t3,a6,0x1
80003a2a:	cb11                	beqz	a4,80003a3e <crcu32+0x2fa>
80003a2c:	76e9                	lui	a3,0xffffa
80003a2e:	00168793          	addi	a5,a3,1 # ffffa001 <_sp+0x6ffea001>
80003a32:	00fe4533          	xor	a0,t3,a5
80003a36:	01051893          	slli	a7,a0,0x10
80003a3a:	0108de13          	srli	t3,a7,0x10
80003a3e:	006e4633          	xor	a2,t3,t1
80003a42:	00167e93          	andi	t4,a2,1
80003a46:	0053df13          	srli	t5,t2,0x5
80003a4a:	001e5313          	srli	t1,t3,0x1
80003a4e:	000e8b63          	beqz	t4,80003a64 <crcu32+0x320>
80003a52:	7fe9                	lui	t6,0xffffa
80003a54:	001f8813          	addi	a6,t6,1 # ffffa001 <_sp+0x6ffea001>
80003a58:	010342b3          	xor	t0,t1,a6
80003a5c:	01029713          	slli	a4,t0,0x10
80003a60:	01075313          	srli	t1,a4,0x10
80003a64:	01e346b3          	xor	a3,t1,t5
80003a68:	0016f893          	andi	a7,a3,1
80003a6c:	0063d793          	srli	a5,t2,0x6
80003a70:	00135f13          	srli	t5,t1,0x1
80003a74:	00088b63          	beqz	a7,80003a8a <crcu32+0x346>
80003a78:	7e69                	lui	t3,0xffffa
80003a7a:	001e0613          	addi	a2,t3,1 # ffffa001 <_sp+0x6ffea001>
80003a7e:	00cf4533          	xor	a0,t5,a2
80003a82:	01051e93          	slli	t4,a0,0x10
80003a86:	010edf13          	srli	t5,t4,0x10
80003a8a:	00ff4fb3          	xor	t6,t5,a5
80003a8e:	001ff813          	andi	a6,t6,1
80003a92:	0073d393          	srli	t2,t2,0x7
80003a96:	001f5893          	srli	a7,t5,0x1
80003a9a:	00080b63          	beqz	a6,80003ab0 <crcu32+0x36c>
80003a9e:	72e9                	lui	t0,0xffffa
80003aa0:	00128713          	addi	a4,t0,1 # ffffa001 <_sp+0x6ffea001>
80003aa4:	00e8c333          	xor	t1,a7,a4
80003aa8:	01031693          	slli	a3,t1,0x10
80003aac:	0106d893          	srli	a7,a3,0x10
80003ab0:	0018f793          	andi	a5,a7,1
80003ab4:	0018df13          	srli	t5,a7,0x1
80003ab8:	00778b63          	beq	a5,t2,80003ace <crcu32+0x38a>
80003abc:	7e69                	lui	t3,0xffffa
80003abe:	001e0613          	addi	a2,t3,1 # ffffa001 <_sp+0x6ffea001>
80003ac2:	00cf4533          	xor	a0,t5,a2
80003ac6:	01051e93          	slli	t4,a0,0x10
80003aca:	010edf13          	srli	t5,t4,0x10
80003ace:	81a1                	srli	a1,a1,0x8
80003ad0:	01e5cfb3          	xor	t6,a1,t5
80003ad4:	0ff5f813          	andi	a6,a1,255
80003ad8:	001ff393          	andi	t2,t6,1
80003adc:	00185293          	srli	t0,a6,0x1
80003ae0:	001f5793          	srli	a5,t5,0x1
80003ae4:	00038b63          	beqz	t2,80003afa <crcu32+0x3b6>
80003ae8:	7769                	lui	a4,0xffffa
80003aea:	00170313          	addi	t1,a4,1 # ffffa001 <_sp+0x6ffea001>
80003aee:	0067c6b3          	xor	a3,a5,t1
80003af2:	01069893          	slli	a7,a3,0x10
80003af6:	0108d793          	srli	a5,a7,0x10
80003afa:	00f2ce33          	xor	t3,t0,a5
80003afe:	001e7613          	andi	a2,t3,1
80003b02:	00285e93          	srli	t4,a6,0x2
80003b06:	0017d393          	srli	t2,a5,0x1
80003b0a:	ca11                	beqz	a2,80003b1e <crcu32+0x3da>
80003b0c:	7f69                	lui	t5,0xffffa
80003b0e:	001f0593          	addi	a1,t5,1 # ffffa001 <_sp+0x6ffea001>
80003b12:	00b3c533          	xor	a0,t2,a1
80003b16:	01051f93          	slli	t6,a0,0x10
80003b1a:	010fd393          	srli	t2,t6,0x10
80003b1e:	007ec2b3          	xor	t0,t4,t2
80003b22:	0012f713          	andi	a4,t0,1
80003b26:	00385313          	srli	t1,a6,0x3
80003b2a:	0013d613          	srli	a2,t2,0x1
80003b2e:	cb11                	beqz	a4,80003b42 <crcu32+0x3fe>
80003b30:	76e9                	lui	a3,0xffffa
80003b32:	00168893          	addi	a7,a3,1 # ffffa001 <_sp+0x6ffea001>
80003b36:	011647b3          	xor	a5,a2,a7
80003b3a:	01079e13          	slli	t3,a5,0x10
80003b3e:	010e5613          	srli	a2,t3,0x10
80003b42:	00664eb3          	xor	t4,a2,t1
80003b46:	001eff13          	andi	t5,t4,1
80003b4a:	00485593          	srli	a1,a6,0x4
80003b4e:	00165313          	srli	t1,a2,0x1
80003b52:	000f0b63          	beqz	t5,80003b68 <crcu32+0x424>
80003b56:	7fe9                	lui	t6,0xffffa
80003b58:	001f8393          	addi	t2,t6,1 # ffffa001 <_sp+0x6ffea001>
80003b5c:	00734533          	xor	a0,t1,t2
80003b60:	01051293          	slli	t0,a0,0x10
80003b64:	0102d313          	srli	t1,t0,0x10
80003b68:	00b34733          	xor	a4,t1,a1
80003b6c:	00177893          	andi	a7,a4,1
80003b70:	00585693          	srli	a3,a6,0x5
80003b74:	00135f13          	srli	t5,t1,0x1
80003b78:	00088b63          	beqz	a7,80003b8e <crcu32+0x44a>
80003b7c:	77e9                	lui	a5,0xffffa
80003b7e:	00178e13          	addi	t3,a5,1 # ffffa001 <_sp+0x6ffea001>
80003b82:	01cf4633          	xor	a2,t5,t3
80003b86:	01061e93          	slli	t4,a2,0x10
80003b8a:	010edf13          	srli	t5,t4,0x10
80003b8e:	00df45b3          	xor	a1,t5,a3
80003b92:	0015ff93          	andi	t6,a1,1
80003b96:	00685393          	srli	t2,a6,0x6
80003b9a:	001f5893          	srli	a7,t5,0x1
80003b9e:	000f8b63          	beqz	t6,80003bb4 <crcu32+0x470>
80003ba2:	72e9                	lui	t0,0xffffa
80003ba4:	00128313          	addi	t1,t0,1 # ffffa001 <_sp+0x6ffea001>
80003ba8:	0068c533          	xor	a0,a7,t1
80003bac:	01051713          	slli	a4,a0,0x10
80003bb0:	01075893          	srli	a7,a4,0x10
80003bb4:	0078c6b3          	xor	a3,a7,t2
80003bb8:	0016fe13          	andi	t3,a3,1
80003bbc:	00785813          	srli	a6,a6,0x7
80003bc0:	0018d593          	srli	a1,a7,0x1
80003bc4:	000e0b63          	beqz	t3,80003bda <crcu32+0x496>
80003bc8:	77e9                	lui	a5,0xffffa
80003bca:	00178613          	addi	a2,a5,1 # ffffa001 <_sp+0x6ffea001>
80003bce:	00c5ceb3          	xor	t4,a1,a2
80003bd2:	010e9f13          	slli	t5,t4,0x10
80003bd6:	010f5593          	srli	a1,t5,0x10
80003bda:	0015ff93          	andi	t6,a1,1
80003bde:	0015d513          	srli	a0,a1,0x1
80003be2:	010f8a63          	beq	t6,a6,80003bf6 <crcu32+0x4b2>
80003be6:	73e9                	lui	t2,0xffffa
80003be8:	00138293          	addi	t0,t2,1 # ffffa001 <_sp+0x6ffea001>
80003bec:	00554333          	xor	t1,a0,t0
80003bf0:	01031513          	slli	a0,t1,0x10
80003bf4:	8141                	srli	a0,a0,0x10
80003bf6:	8082                	ret
80003bf8:	0000                	unimp
	...

80003bfc <crc16>:
80003bfc:	00a5c633          	xor	a2,a1,a0
80003c00:	0ff57713          	andi	a4,a0,255
80003c04:	01051793          	slli	a5,a0,0x10
80003c08:	00167293          	andi	t0,a2,1
80003c0c:	0107d313          	srli	t1,a5,0x10
80003c10:	00175693          	srli	a3,a4,0x1
80003c14:	0015d893          	srli	a7,a1,0x1
80003c18:	00028b63          	beqz	t0,80003c2e <crc16+0x32>
80003c1c:	75e9                	lui	a1,0xffffa
80003c1e:	00158393          	addi	t2,a1,1 # ffffa001 <_sp+0x6ffea001>
80003c22:	0078c533          	xor	a0,a7,t2
80003c26:	01051813          	slli	a6,a0,0x10
80003c2a:	01085893          	srli	a7,a6,0x10
80003c2e:	00d8ce33          	xor	t3,a7,a3
80003c32:	001e7e93          	andi	t4,t3,1
80003c36:	00275f13          	srli	t5,a4,0x2
80003c3a:	0018d593          	srli	a1,a7,0x1
80003c3e:	000e8b63          	beqz	t4,80003c54 <crc16+0x58>
80003c42:	7fe9                	lui	t6,0xffffa
80003c44:	001f8613          	addi	a2,t6,1 # ffffa001 <_sp+0x6ffea001>
80003c48:	00c5c2b3          	xor	t0,a1,a2
80003c4c:	01029793          	slli	a5,t0,0x10
80003c50:	0107d593          	srli	a1,a5,0x10
80003c54:	01e5c6b3          	xor	a3,a1,t5
80003c58:	0016f393          	andi	t2,a3,1
80003c5c:	00375813          	srli	a6,a4,0x3
80003c60:	0015df13          	srli	t5,a1,0x1
80003c64:	00038b63          	beqz	t2,80003c7a <crc16+0x7e>
80003c68:	78e9                	lui	a7,0xffffa
80003c6a:	00188e13          	addi	t3,a7,1 # ffffa001 <_sp+0x6ffea001>
80003c6e:	01cf4533          	xor	a0,t5,t3
80003c72:	01051e93          	slli	t4,a0,0x10
80003c76:	010edf13          	srli	t5,t4,0x10
80003c7a:	010f4fb3          	xor	t6,t5,a6
80003c7e:	001ff613          	andi	a2,t6,1
80003c82:	00475293          	srli	t0,a4,0x4
80003c86:	001f5813          	srli	a6,t5,0x1
80003c8a:	ca11                	beqz	a2,80003c9e <crc16+0xa2>
80003c8c:	77e9                	lui	a5,0xffffa
80003c8e:	00178593          	addi	a1,a5,1 # ffffa001 <_sp+0x6ffea001>
80003c92:	00b846b3          	xor	a3,a6,a1
80003c96:	01069393          	slli	t2,a3,0x10
80003c9a:	0103d813          	srli	a6,t2,0x10
80003c9e:	005848b3          	xor	a7,a6,t0
80003ca2:	0018fe13          	andi	t3,a7,1
80003ca6:	00575e93          	srli	t4,a4,0x5
80003caa:	00185293          	srli	t0,a6,0x1
80003cae:	000e0b63          	beqz	t3,80003cc4 <crc16+0xc8>
80003cb2:	7f69                	lui	t5,0xffffa
80003cb4:	001f0f93          	addi	t6,t5,1 # ffffa001 <_sp+0x6ffea001>
80003cb8:	01f2c533          	xor	a0,t0,t6
80003cbc:	01051613          	slli	a2,a0,0x10
80003cc0:	01065293          	srli	t0,a2,0x10
80003cc4:	01d2c7b3          	xor	a5,t0,t4
80003cc8:	0017f593          	andi	a1,a5,1
80003ccc:	00675693          	srli	a3,a4,0x6
80003cd0:	0012de93          	srli	t4,t0,0x1
80003cd4:	c991                	beqz	a1,80003ce8 <crc16+0xec>
80003cd6:	73e9                	lui	t2,0xffffa
80003cd8:	00138813          	addi	a6,t2,1 # ffffa001 <_sp+0x6ffea001>
80003cdc:	010ec8b3          	xor	a7,t4,a6
80003ce0:	01089e13          	slli	t3,a7,0x10
80003ce4:	010e5e93          	srli	t4,t3,0x10
80003ce8:	00decf33          	xor	t5,t4,a3
80003cec:	001f7f93          	andi	t6,t5,1
80003cf0:	831d                	srli	a4,a4,0x7
80003cf2:	001ed593          	srli	a1,t4,0x1
80003cf6:	000f8b63          	beqz	t6,80003d0c <crc16+0x110>
80003cfa:	7669                	lui	a2,0xffffa
80003cfc:	00160293          	addi	t0,a2,1 # ffffa001 <_sp+0x6ffea001>
80003d00:	0055c533          	xor	a0,a1,t0
80003d04:	01051793          	slli	a5,a0,0x10
80003d08:	0107d593          	srli	a1,a5,0x10
80003d0c:	0015f693          	andi	a3,a1,1
80003d10:	0015de93          	srli	t4,a1,0x1
80003d14:	00e68b63          	beq	a3,a4,80003d2a <crc16+0x12e>
80003d18:	73e9                	lui	t2,0xffffa
80003d1a:	00138813          	addi	a6,t2,1 # ffffa001 <_sp+0x6ffea001>
80003d1e:	010ec8b3          	xor	a7,t4,a6
80003d22:	01089e13          	slli	t3,a7,0x10
80003d26:	010e5e93          	srli	t4,t3,0x10
80003d2a:	00835313          	srli	t1,t1,0x8
80003d2e:	01d34f33          	xor	t5,t1,t4
80003d32:	0ff37f93          	andi	t6,t1,255
80003d36:	001f7713          	andi	a4,t5,1
80003d3a:	001fd613          	srli	a2,t6,0x1
80003d3e:	001ed393          	srli	t2,t4,0x1
80003d42:	cb11                	beqz	a4,80003d56 <crc16+0x15a>
80003d44:	72e9                	lui	t0,0xffffa
80003d46:	00128793          	addi	a5,t0,1 # ffffa001 <_sp+0x6ffea001>
80003d4a:	00f3c533          	xor	a0,t2,a5
80003d4e:	01051593          	slli	a1,a0,0x10
80003d52:	0105d393          	srli	t2,a1,0x10
80003d56:	007646b3          	xor	a3,a2,t2
80003d5a:	0016f813          	andi	a6,a3,1
80003d5e:	002fd893          	srli	a7,t6,0x2
80003d62:	0013d613          	srli	a2,t2,0x1
80003d66:	00080b63          	beqz	a6,80003d7c <crc16+0x180>
80003d6a:	7e69                	lui	t3,0xffffa
80003d6c:	001e0e93          	addi	t4,t3,1 # ffffa001 <_sp+0x6ffea001>
80003d70:	01d64333          	xor	t1,a2,t4
80003d74:	01031f13          	slli	t5,t1,0x10
80003d78:	010f5613          	srli	a2,t5,0x10
80003d7c:	01164733          	xor	a4,a2,a7
80003d80:	00177293          	andi	t0,a4,1
80003d84:	003fd793          	srli	a5,t6,0x3
80003d88:	00165813          	srli	a6,a2,0x1
80003d8c:	00028b63          	beqz	t0,80003da2 <crc16+0x1a6>
80003d90:	75e9                	lui	a1,0xffffa
80003d92:	00158393          	addi	t2,a1,1 # ffffa001 <_sp+0x6ffea001>
80003d96:	00784533          	xor	a0,a6,t2
80003d9a:	01051693          	slli	a3,a0,0x10
80003d9e:	0106d813          	srli	a6,a3,0x10
80003da2:	00f848b3          	xor	a7,a6,a5
80003da6:	0018fe13          	andi	t3,a7,1
80003daa:	004fde93          	srli	t4,t6,0x4
80003dae:	00185293          	srli	t0,a6,0x1
80003db2:	000e0b63          	beqz	t3,80003dc8 <crc16+0x1cc>
80003db6:	7369                	lui	t1,0xffffa
80003db8:	00130f13          	addi	t5,t1,1 # ffffa001 <_sp+0x6ffea001>
80003dbc:	01e2c633          	xor	a2,t0,t5
80003dc0:	01061713          	slli	a4,a2,0x10
80003dc4:	01075293          	srli	t0,a4,0x10
80003dc8:	01d2c7b3          	xor	a5,t0,t4
80003dcc:	0017f593          	andi	a1,a5,1
80003dd0:	005fd393          	srli	t2,t6,0x5
80003dd4:	0012de13          	srli	t3,t0,0x1
80003dd8:	c991                	beqz	a1,80003dec <crc16+0x1f0>
80003dda:	76e9                	lui	a3,0xffffa
80003ddc:	00168813          	addi	a6,a3,1 # ffffa001 <_sp+0x6ffea001>
80003de0:	010e4533          	xor	a0,t3,a6
80003de4:	01051893          	slli	a7,a0,0x10
80003de8:	0108de13          	srli	t3,a7,0x10
80003dec:	007e4eb3          	xor	t4,t3,t2
80003df0:	001ef313          	andi	t1,t4,1
80003df4:	006fdf13          	srli	t5,t6,0x6
80003df8:	001e5593          	srli	a1,t3,0x1
80003dfc:	00030b63          	beqz	t1,80003e12 <crc16+0x216>
80003e00:	7669                	lui	a2,0xffffa
80003e02:	00160713          	addi	a4,a2,1 # ffffa001 <_sp+0x6ffea001>
80003e06:	00e5c2b3          	xor	t0,a1,a4
80003e0a:	01029793          	slli	a5,t0,0x10
80003e0e:	0107d593          	srli	a1,a5,0x10
80003e12:	01e5c3b3          	xor	t2,a1,t5
80003e16:	0013f693          	andi	a3,t2,1
80003e1a:	007fdf93          	srli	t6,t6,0x7
80003e1e:	0015de93          	srli	t4,a1,0x1
80003e22:	ca91                	beqz	a3,80003e36 <crc16+0x23a>
80003e24:	7869                	lui	a6,0xffffa
80003e26:	00180893          	addi	a7,a6,1 # ffffa001 <_sp+0x6ffea001>
80003e2a:	011ec533          	xor	a0,t4,a7
80003e2e:	01051e13          	slli	t3,a0,0x10
80003e32:	010e5e93          	srli	t4,t3,0x10
80003e36:	001ef313          	andi	t1,t4,1
80003e3a:	001ed513          	srli	a0,t4,0x1
80003e3e:	01f30b63          	beq	t1,t6,80003e54 <crc16+0x258>
80003e42:	7f69                	lui	t5,0xffffa
80003e44:	001f0613          	addi	a2,t5,1 # ffffa001 <_sp+0x6ffea001>
80003e48:	00c54733          	xor	a4,a0,a2
80003e4c:	01071293          	slli	t0,a4,0x10
80003e50:	0102d513          	srli	a0,t0,0x10
80003e54:	8082                	ret
	...

80003e58 <check_data_types>:
80003e58:	4501                	li	a0,0
80003e5a:	8082                	ret
80003e5c:	0000                	unimp
	...

80003e60 <start_time>:
80003e60:	1141                	addi	sp,sp,-16
80003e62:	c606                	sw	ra,12(sp)
80003e64:	20e5                	jal	80003f4c <get_cycle_value>
80003e66:	40b2                	lw	ra,12(sp)
80003e68:	82a1a023          	sw	a0,-2016(gp) # 90000c70 <t0>
80003e6c:	82b1a223          	sw	a1,-2012(gp) # 90000c74 <t0+0x4>
80003e70:	0141                	addi	sp,sp,16
80003e72:	8082                	ret

80003e74 <stop_time>:
80003e74:	1141                	addi	sp,sp,-16
80003e76:	c606                	sw	ra,12(sp)
80003e78:	28d1                	jal	80003f4c <get_cycle_value>
80003e7a:	40b2                	lw	ra,12(sp)
80003e7c:	82a1a423          	sw	a0,-2008(gp) # 90000c78 <t1>
80003e80:	82b1a623          	sw	a1,-2004(gp) # 90000c7c <t1+0x4>
80003e84:	0141                	addi	sp,sp,16
80003e86:	8082                	ret

80003e88 <get_time>:
80003e88:	82818293          	addi	t0,gp,-2008 # 90000c78 <t1>
80003e8c:	82018313          	addi	t1,gp,-2016 # 90000c70 <t0>
80003e90:	0002a583          	lw	a1,0(t0)
80003e94:	00032503          	lw	a0,0(t1)
80003e98:	0042a383          	lw	t2,4(t0)
80003e9c:	00432603          	lw	a2,4(t1)
80003ea0:	40a58533          	sub	a0,a1,a0
80003ea4:	00a5b6b3          	sltu	a3,a1,a0
80003ea8:	40c38833          	sub	a6,t2,a2
80003eac:	40d805b3          	sub	a1,a6,a3
80003eb0:	8082                	ret
	...

80003eb4 <time_in_secs>:
80003eb4:	1141                	addi	sp,sp,-16
80003eb6:	c606                	sw	ra,12(sp)
80003eb8:	c422                	sw	s0,8(sp)
80003eba:	c226                	sw	s1,4(sp)
80003ebc:	c04a                	sw	s2,0(sp)
80003ebe:	84ae                	mv	s1,a1
80003ec0:	842a                	mv	s0,a0
80003ec2:	2049                	jal	80003f44 <get_timer_freq>
80003ec4:	00845293          	srli	t0,s0,0x8
80003ec8:	892a                	mv	s2,a0
80003eca:	01849513          	slli	a0,s1,0x18
80003ece:	00556533          	or	a0,a0,t0
80003ed2:	2a5000ef          	jal	ra,80004976 <__floatunsidf>
80003ed6:	842a                	mv	s0,a0
80003ed8:	00895513          	srli	a0,s2,0x8
80003edc:	84ae                	mv	s1,a1
80003ede:	299000ef          	jal	ra,80004976 <__floatunsidf>
80003ee2:	862a                	mv	a2,a0
80003ee4:	86ae                	mv	a3,a1
80003ee6:	8522                	mv	a0,s0
80003ee8:	85a6                	mv	a1,s1
80003eea:	2e1d                	jal	80004220 <__divdf3>
80003eec:	40b2                	lw	ra,12(sp)
80003eee:	4422                	lw	s0,8(sp)
80003ef0:	4492                	lw	s1,4(sp)
80003ef2:	4902                	lw	s2,0(sp)
80003ef4:	0141                	addi	sp,sp,16
80003ef6:	8082                	ret
80003ef8:	0000                	unimp
	...

80003efc <measure_cpu_freq>:
80003efc:	0200c7b7          	lui	a5,0x200c
80003f00:	ff87a683          	lw	a3,-8(a5) # 200bff8 <__stack_size+0x200b7f8>
80003f04:	ff87a703          	lw	a4,-8(a5)
80003f08:	fee68ee3          	beq	a3,a4,80003f04 <measure_cpu_freq+0x8>
80003f0c:	b0002673          	csrr	a2,mcycle
80003f10:	0200c2b7          	lui	t0,0x200c
80003f14:	ff82a303          	lw	t1,-8(t0) # 200bff8 <__stack_size+0x200b7f8>
80003f18:	40e303b3          	sub	t2,t1,a4
80003f1c:	fea3ece3          	bltu	t2,a0,80003f14 <measure_cpu_freq+0x18>
80003f20:	b0002573          	csrr	a0,mcycle
80003f24:	40c505b3          	sub	a1,a0,a2
80003f28:	0275f833          	remu	a6,a1,t2
80003f2c:	0275d8b3          	divu	a7,a1,t2
80003f30:	00f81e13          	slli	t3,a6,0xf
80003f34:	027e5eb3          	divu	t4,t3,t2
80003f38:	00f89f13          	slli	t5,a7,0xf
80003f3c:	01ee8533          	add	a0,t4,t5
80003f40:	8082                	ret
	...

80003f44 <get_timer_freq>:
80003f44:	6521                	lui	a0,0x8
80003f46:	8082                	ret
80003f48:	0000                	unimp
	...

80003f4c <get_cycle_value>:
80003f4c:	b80025f3          	csrr	a1,mcycleh
80003f50:	b0002573          	csrr	a0,mcycle
80003f54:	b80027f3          	csrr	a5,mcycleh
80003f58:	fef59ae3          	bne	a1,a5,80003f4c <get_cycle_value>
80003f5c:	8082                	ret
	...

80003f60 <handle_m_ext_interrupt>:
80003f60:	8082                	ret
	...

80003f64 <handle_m_time_interrupt>:
80003f64:	8082                	ret
	...

80003f68 <handle_trap>:
80003f68:	1141                	addi	sp,sp,-16
80003f6a:	c422                	sw	s0,8(sp)
80003f6c:	c606                	sw	ra,12(sp)
80003f6e:	c226                	sw	s1,4(sp)
80003f70:	842a                	mv	s0,a0
80003f72:	00054d63          	bltz	a0,80003f8c <handle_trap+0x24>
80003f76:	900005b7          	lui	a1,0x90000
80003f7a:	4615                	li	a2,5
80003f7c:	5c458593          	addi	a1,a1,1476 # 900005c4 <_sp+0xffff05c4>
80003f80:	4505                	li	a0,1
80003f82:	6fa010ef          	jal	ra,8000567c <write>
80003f86:	00140513          	addi	a0,s0,1
80003f8a:	20c9                	jal	8000404c <_exit>
80003f8c:	00151793          	slli	a5,a0,0x1
80003f90:	0017d093          	srli	ra,a5,0x1
80003f94:	472d                	li	a4,11
80003f96:	84ae                	mv	s1,a1
80003f98:	00e08c63          	beq	ra,a4,80003fb0 <handle_trap+0x48>
80003f9c:	429d                	li	t0,7
80003f9e:	fc509ce3          	bne	ra,t0,80003f76 <handle_trap+0xe>
80003fa2:	37c9                	jal	80003f64 <handle_m_time_interrupt>
80003fa4:	40b2                	lw	ra,12(sp)
80003fa6:	4422                	lw	s0,8(sp)
80003fa8:	8526                	mv	a0,s1
80003faa:	4492                	lw	s1,4(sp)
80003fac:	0141                	addi	sp,sp,16
80003fae:	8082                	ret
80003fb0:	3f45                	jal	80003f60 <handle_m_ext_interrupt>
80003fb2:	bfcd                	j	80003fa4 <handle_trap+0x3c>

80003fb4 <_init>:
80003fb4:	100127b7          	lui	a5,0x10012
80003fb8:	5fd8                	lw	a4,60(a5)
80003fba:	1141                	addi	sp,sp,-16
80003fbc:	fffd06b7          	lui	a3,0xfffd0
80003fc0:	c606                	sw	ra,12(sp)
80003fc2:	fff68093          	addi	ra,a3,-1 # fffcffff <_sp+0x6ffbffff>
80003fc6:	001772b3          	and	t0,a4,ra
80003fca:	0257ae23          	sw	t0,60(a5) # 1001203c <__stack_size+0x1001183c>
80003fce:	0387a303          	lw	t1,56(a5)
80003fd2:	000303b7          	lui	t2,0x30
80003fd6:	4505                	li	a0,1
80003fd8:	007365b3          	or	a1,t1,t2
80003fdc:	df8c                	sw	a1,56(a5)
80003fde:	3f39                	jal	80003efc <measure_cpu_freq>
80003fe0:	06400513          	li	a0,100
80003fe4:	3f21                	jal	80003efc <measure_cpu_freq>
80003fe6:	6671                	lui	a2,0x1c
80003fe8:	20060813          	addi	a6,a2,512 # 1c200 <__stack_size+0x1ba00>
80003fec:	030558b3          	divu	a7,a0,a6
80003ff0:	10013e37          	lui	t3,0x10013
80003ff4:	4505                	li	a0,1
80003ff6:	fff88e93          	addi	t4,a7,-1
80003ffa:	01de2c23          	sw	t4,24(t3) # 10013018 <__stack_size+0x10012818>
80003ffe:	008e2f03          	lw	t5,8(t3)
80004002:	001f6f93          	ori	t6,t5,1
80004006:	01fe2423          	sw	t6,8(t3)
8000400a:	00ce2783          	lw	a5,12(t3)
8000400e:	0017e713          	ori	a4,a5,1
80004012:	00ee2623          	sw	a4,12(t3)
80004016:	35dd                	jal	80003efc <measure_cpu_freq>
80004018:	06400513          	li	a0,100
8000401c:	35c5                	jal	80003efc <measure_cpu_freq>
8000401e:	85aa                	mv	a1,a0
80004020:	90000537          	lui	a0,0x90000
80004024:	5b050513          	addi	a0,a0,1456 # 900005b0 <_sp+0xffff05b0>
80004028:	4e8010ef          	jal	ra,80005510 <iprintf>
8000402c:	800016b7          	lui	a3,0x80001
80004030:	8e468293          	addi	t0,a3,-1820 # 800008e4 <_sp+0xefff08e4>
80004034:	30529073          	csrw	mtvec,t0
80004038:	40b2                	lw	ra,12(sp)
8000403a:	0141                	addi	sp,sp,16
8000403c:	8082                	ret
	...

80004040 <_fini>:
80004040:	8082                	ret
	...

80004044 <_close>:
80004044:	557d                	li	a0,-1
80004046:	8082                	ret
80004048:	0000                	unimp
	...

8000404c <_exit>:
8000404c:	7179                	addi	sp,sp,-48
8000404e:	900007b7          	lui	a5,0x90000
80004052:	d606                	sw	ra,44(sp)
80004054:	5cc78093          	addi	ra,a5,1484 # 900005cc <_sp+0xffff05cc>
80004058:	0000af03          	lw	t5,0(ra)
8000405c:	0040ae83          	lw	t4,4(ra)
80004060:	0080ae03          	lw	t3,8(ra)
80004064:	00c0a303          	lw	t1,12(ra)
80004068:	0100a883          	lw	a7,16(ra)
8000406c:	0140a803          	lw	a6,20(ra)
80004070:	0180a683          	lw	a3,24(ra)
80004074:	01c0d703          	lhu	a4,28(ra)
80004078:	01e0c283          	lbu	t0,30(ra)
8000407c:	4679                	li	a2,30
8000407e:	d422                	sw	s0,40(sp)
80004080:	858a                	mv	a1,sp
80004082:	842a                	mv	s0,a0
80004084:	4509                	li	a0,2
80004086:	c07a                	sw	t5,0(sp)
80004088:	c276                	sw	t4,4(sp)
8000408a:	c472                	sw	t3,8(sp)
8000408c:	c61a                	sw	t1,12(sp)
8000408e:	c846                	sw	a7,16(sp)
80004090:	ca42                	sw	a6,20(sp)
80004092:	cc36                	sw	a3,24(sp)
80004094:	00e11e23          	sh	a4,28(sp)
80004098:	00510f23          	sb	t0,30(sp)
8000409c:	5e0010ef          	jal	ra,8000567c <write>
800040a0:	85a2                	mv	a1,s0
800040a2:	4509                	li	a0,2
800040a4:	2811                	jal	800040b8 <write_hex>
800040a6:	900005b7          	lui	a1,0x90000
800040aa:	4605                	li	a2,1
800040ac:	5c858593          	addi	a1,a1,1480 # 900005c8 <_sp+0xffff05c8>
800040b0:	4509                	li	a0,2
800040b2:	5ca010ef          	jal	ra,8000567c <write>
800040b6:	a001                	j	800040b6 <_exit+0x6a>

800040b8 <write_hex>:
800040b8:	7179                	addi	sp,sp,-48
800040ba:	ca56                	sw	s5,20(sp)
800040bc:	8aae                	mv	s5,a1
800040be:	900005b7          	lui	a1,0x90000
800040c2:	4609                	li	a2,2
800040c4:	5ec58593          	addi	a1,a1,1516 # 900005ec <_sp+0xffff05ec>
800040c8:	d422                	sw	s0,40(sp)
800040ca:	d226                	sw	s1,36(sp)
800040cc:	d04a                	sw	s2,32(sp)
800040ce:	ce4e                	sw	s3,28(sp)
800040d0:	cc52                	sw	s4,24(sp)
800040d2:	d606                	sw	ra,44(sp)
800040d4:	8a2a                	mv	s4,a0
800040d6:	4471                	li	s0,28
800040d8:	5a4010ef          	jal	ra,8000567c <write>
800040dc:	49bd                	li	s3,15
800040de:	4925                	li	s2,9
800040e0:	54f1                	li	s1,-4
800040e2:	a831                	j	800040fe <write_hex+0x46>
800040e4:	0ff6f393          	andi	t2,a3,255
800040e8:	1471                	addi	s0,s0,-4
800040ea:	4605                	li	a2,1
800040ec:	00f10593          	addi	a1,sp,15
800040f0:	8552                	mv	a0,s4
800040f2:	007107a3          	sb	t2,15(sp)
800040f6:	586010ef          	jal	ra,8000567c <write>
800040fa:	02940d63          	beq	s0,s1,80004134 <write_hex+0x7c>
800040fe:	008997b3          	sll	a5,s3,s0
80004102:	0157f0b3          	and	ra,a5,s5
80004106:	0080d2b3          	srl	t0,ra,s0
8000410a:	0ff2f313          	andi	t1,t0,255
8000410e:	03030693          	addi	a3,t1,48
80004112:	03730713          	addi	a4,t1,55
80004116:	fc6977e3          	bgeu	s2,t1,800040e4 <write_hex+0x2c>
8000411a:	0ff77393          	andi	t2,a4,255
8000411e:	1471                	addi	s0,s0,-4
80004120:	4605                	li	a2,1
80004122:	00f10593          	addi	a1,sp,15
80004126:	8552                	mv	a0,s4
80004128:	007107a3          	sb	t2,15(sp)
8000412c:	550010ef          	jal	ra,8000567c <write>
80004130:	fc9417e3          	bne	s0,s1,800040fe <write_hex+0x46>
80004134:	50b2                	lw	ra,44(sp)
80004136:	5422                	lw	s0,40(sp)
80004138:	5492                	lw	s1,36(sp)
8000413a:	5902                	lw	s2,32(sp)
8000413c:	49f2                	lw	s3,28(sp)
8000413e:	4a62                	lw	s4,24(sp)
80004140:	4ad2                	lw	s5,20(sp)
80004142:	6145                	addi	sp,sp,48
80004144:	8082                	ret
	...

80004148 <_fstat>:
80004148:	1141                	addi	sp,sp,-16
8000414a:	c422                	sw	s0,8(sp)
8000414c:	c606                	sw	ra,12(sp)
8000414e:	842e                	mv	s0,a1
80004150:	528010ef          	jal	ra,80005678 <isatty>
80004154:	c901                	beqz	a0,80004164 <_fstat+0x1c>
80004156:	6789                	lui	a5,0x2
80004158:	c05c                	sw	a5,4(s0)
8000415a:	4501                	li	a0,0
8000415c:	40b2                	lw	ra,12(sp)
8000415e:	4422                	lw	s0,8(sp)
80004160:	0141                	addi	sp,sp,16
80004162:	8082                	ret
80004164:	557d                	li	a0,-1
80004166:	bfdd                	j	8000415c <_fstat+0x14>

80004168 <_isatty>:
80004168:	157d                	addi	a0,a0,-1
8000416a:	00253513          	sltiu	a0,a0,2
8000416e:	8082                	ret
80004170:	0000                	unimp
	...

80004174 <_lseek>:
80004174:	1141                	addi	sp,sp,-16
80004176:	c606                	sw	ra,12(sp)
80004178:	500010ef          	jal	ra,80005678 <isatty>
8000417c:	40b2                	lw	ra,12(sp)
8000417e:	00153513          	seqz	a0,a0
80004182:	40a00533          	neg	a0,a0
80004186:	0141                	addi	sp,sp,16
80004188:	8082                	ret
	...

8000418c <_read>:
8000418c:	557d                	li	a0,-1
8000418e:	8082                	ret
80004190:	0000                	unimp
	...

80004194 <_sbrk>:
80004194:	80818293          	addi	t0,gp,-2040 # 90000c58 <curbrk.1546>
80004198:	0002a683          	lw	a3,0(t0)
8000419c:	8d018313          	addi	t1,gp,-1840 # 90000d20 <_end>
800041a0:	9536                	add	a0,a0,a3
800041a2:	00656d63          	bltu	a0,t1,800041bc <_sbrk+0x28>
800041a6:	900103b7          	lui	t2,0x90010
800041aa:	80038593          	addi	a1,t2,-2048 # 9000f800 <_sp+0xfffff800>
800041ae:	00a5e763          	bltu	a1,a0,800041bc <_sbrk+0x28>
800041b2:	00a2a023          	sw	a0,0(t0)
800041b6:	8536                	mv	a0,a3
800041b8:	8082                	ret
800041ba:	0001                	nop
800041bc:	56fd                	li	a3,-1
800041be:	8536                	mv	a0,a3
800041c0:	8082                	ret
	...

800041c4 <_write>:
800041c4:	1141                	addi	sp,sp,-16
800041c6:	c422                	sw	s0,8(sp)
800041c8:	c226                	sw	s1,4(sp)
800041ca:	c606                	sw	ra,12(sp)
800041cc:	842e                	mv	s0,a1
800041ce:	84b2                	mv	s1,a2
800041d0:	4a8010ef          	jal	ra,80005678 <isatty>
800041d4:	c521                	beqz	a0,8000421c <_write+0x58>
800041d6:	c49d                	beqz	s1,80004204 <_write+0x40>
800041d8:	85a2                	mv	a1,s0
800041da:	00940833          	add	a6,s0,s1
800041de:	10013737          	lui	a4,0x10013
800041e2:	46a9                	li	a3,10
800041e4:	4635                	li	a2,13
800041e6:	0001                	nop
800041e8:	431c                	lw	a5,0(a4)
800041ea:	fe07cfe3          	bltz	a5,800041e8 <_write+0x24>
800041ee:	0005c083          	lbu	ra,0(a1)
800041f2:	00172023          	sw	ra,0(a4) # 10013000 <__stack_size+0x10012800>
800041f6:	0005c283          	lbu	t0,0(a1)
800041fa:	00d28b63          	beq	t0,a3,80004210 <_write+0x4c>
800041fe:	0585                	addi	a1,a1,1
80004200:	ff0594e3          	bne	a1,a6,800041e8 <_write+0x24>
80004204:	8526                	mv	a0,s1
80004206:	40b2                	lw	ra,12(sp)
80004208:	4422                	lw	s0,8(sp)
8000420a:	4492                	lw	s1,4(sp)
8000420c:	0141                	addi	sp,sp,16
8000420e:	8082                	ret
80004210:	00072303          	lw	t1,0(a4)
80004214:	fe034ee3          	bltz	t1,80004210 <_write+0x4c>
80004218:	c310                	sw	a2,0(a4)
8000421a:	b7d5                	j	800041fe <_write+0x3a>
8000421c:	557d                	li	a0,-1
8000421e:	b7e5                	j	80004206 <_write+0x42>

80004220 <__divdf3>:
80004220:	7139                	addi	sp,sp,-64
80004222:	0145d793          	srli	a5,a1,0x14
80004226:	dc22                	sw	s0,56(sp)
80004228:	da26                	sw	s1,52(sp)
8000422a:	d64e                	sw	s3,44(sp)
8000422c:	84aa                	mv	s1,a0
8000422e:	00c59413          	slli	s0,a1,0xc
80004232:	de06                	sw	ra,60(sp)
80004234:	d84a                	sw	s2,48(sp)
80004236:	d452                	sw	s4,40(sp)
80004238:	d256                	sw	s5,36(sp)
8000423a:	d05a                	sw	s6,32(sp)
8000423c:	ce5e                	sw	s7,28(sp)
8000423e:	7ff7f513          	andi	a0,a5,2047
80004242:	8031                	srli	s0,s0,0xc
80004244:	01f5d993          	srli	s3,a1,0x1f
80004248:	10050663          	beqz	a0,80004354 <__divdf3+0x134>
8000424c:	7ff00793          	li	a5,2047
80004250:	14f50563          	beq	a0,a5,8000439a <__divdf3+0x17a>
80004254:	01d4da93          	srli	s5,s1,0x1d
80004258:	040e                	slli	s0,s0,0x3
8000425a:	008ae433          	or	s0,s5,s0
8000425e:	00800ab7          	lui	s5,0x800
80004262:	00349b13          	slli	s6,s1,0x3
80004266:	01546ab3          	or	s5,s0,s5
8000426a:	c0150913          	addi	s2,a0,-1023
8000426e:	4481                	li	s1,0
80004270:	4b81                	li	s7,0
80004272:	0146d713          	srli	a4,a3,0x14
80004276:	00c69413          	slli	s0,a3,0xc
8000427a:	7ff77713          	andi	a4,a4,2047
8000427e:	8031                	srli	s0,s0,0xc
80004280:	01f6da13          	srli	s4,a3,0x1f
80004284:	cb59                	beqz	a4,8000431a <__divdf3+0xfa>
80004286:	7ff00793          	li	a5,2047
8000428a:	02f70f63          	beq	a4,a5,800042c8 <__divdf3+0xa8>
8000428e:	00341793          	slli	a5,s0,0x3
80004292:	01d65413          	srli	s0,a2,0x1d
80004296:	8fc1                	or	a5,a5,s0
80004298:	c0170713          	addi	a4,a4,-1023
8000429c:	00800437          	lui	s0,0x800
800042a0:	8c5d                	or	s0,s0,a5
800042a2:	00361813          	slli	a6,a2,0x3
800042a6:	40e90933          	sub	s2,s2,a4
800042aa:	4681                	li	a3,0
800042ac:	47bd                	li	a5,15
800042ae:	0149c5b3          	xor	a1,s3,s4
800042b2:	1a97e163          	bltu	a5,s1,80004454 <__divdf3+0x234>
800042b6:	0fffc717          	auipc	a4,0xfffc
800042ba:	33a70713          	addi	a4,a4,826 # 900005f0 <scipat+0x118>
800042be:	048a                	slli	s1,s1,0x2
800042c0:	94ba                	add	s1,s1,a4
800042c2:	409c                	lw	a5,0(s1)
800042c4:	97ba                	add	a5,a5,a4
800042c6:	8782                	jr	a5
800042c8:	00c46833          	or	a6,s0,a2
800042cc:	80190913          	addi	s2,s2,-2047
800042d0:	10081063          	bnez	a6,800043d0 <__divdf3+0x1b0>
800042d4:	0024e493          	ori	s1,s1,2
800042d8:	4401                	li	s0,0
800042da:	4689                	li	a3,2
800042dc:	bfc1                	j	800042ac <__divdf3+0x8c>
800042de:	7ff00713          	li	a4,2047
800042e2:	4781                	li	a5,0
800042e4:	4401                	li	s0,0
800042e6:	07b2                	slli	a5,a5,0xc
800042e8:	8522                	mv	a0,s0
800042ea:	50f2                	lw	ra,60(sp)
800042ec:	5462                	lw	s0,56(sp)
800042ee:	0752                	slli	a4,a4,0x14
800042f0:	83b1                	srli	a5,a5,0xc
800042f2:	05fe                	slli	a1,a1,0x1f
800042f4:	8fd9                	or	a5,a5,a4
800042f6:	8fcd                	or	a5,a5,a1
800042f8:	54d2                	lw	s1,52(sp)
800042fa:	5942                	lw	s2,48(sp)
800042fc:	59b2                	lw	s3,44(sp)
800042fe:	5a22                	lw	s4,40(sp)
80004300:	5a92                	lw	s5,36(sp)
80004302:	5b02                	lw	s6,32(sp)
80004304:	4bf2                	lw	s7,28(sp)
80004306:	85be                	mv	a1,a5
80004308:	6121                	addi	sp,sp,64
8000430a:	8082                	ret
8000430c:	4581                	li	a1,0
8000430e:	7ff00713          	li	a4,2047
80004312:	000807b7          	lui	a5,0x80
80004316:	4401                	li	s0,0
80004318:	b7f9                	j	800042e6 <__divdf3+0xc6>
8000431a:	00c46833          	or	a6,s0,a2
8000431e:	0a080463          	beqz	a6,800043c6 <__divdf3+0x1a6>
80004322:	30040663          	beqz	s0,8000462e <__divdf3+0x40e>
80004326:	8522                	mv	a0,s0
80004328:	c432                	sw	a2,8(sp)
8000432a:	254d                	jal	800049cc <__clzsi2>
8000432c:	4622                	lw	a2,8(sp)
8000432e:	ff550593          	addi	a1,a0,-11
80004332:	46f5                	li	a3,29
80004334:	ff850713          	addi	a4,a0,-8
80004338:	8e8d                	sub	a3,a3,a1
8000433a:	00e417b3          	sll	a5,s0,a4
8000433e:	00d656b3          	srl	a3,a2,a3
80004342:	00f6e433          	or	s0,a3,a5
80004346:	00e61833          	sll	a6,a2,a4
8000434a:	954a                	add	a0,a0,s2
8000434c:	3f350913          	addi	s2,a0,1011
80004350:	4681                	li	a3,0
80004352:	bfa9                	j	800042ac <__divdf3+0x8c>
80004354:	00946ab3          	or	s5,s0,s1
80004358:	060a8263          	beqz	s5,800043bc <__divdf3+0x19c>
8000435c:	c636                	sw	a3,12(sp)
8000435e:	c432                	sw	a2,8(sp)
80004360:	2a040663          	beqz	s0,8000460c <__divdf3+0x3ec>
80004364:	8522                	mv	a0,s0
80004366:	259d                	jal	800049cc <__clzsi2>
80004368:	4622                	lw	a2,8(sp)
8000436a:	46b2                	lw	a3,12(sp)
8000436c:	892a                	mv	s2,a0
8000436e:	ff550713          	addi	a4,a0,-11
80004372:	4af5                	li	s5,29
80004374:	ff890b13          	addi	s6,s2,-8
80004378:	40ea8ab3          	sub	s5,s5,a4
8000437c:	01641433          	sll	s0,s0,s6
80004380:	0154dab3          	srl	s5,s1,s5
80004384:	008aeab3          	or	s5,s5,s0
80004388:	01649b33          	sll	s6,s1,s6
8000438c:	c0d00513          	li	a0,-1011
80004390:	41250933          	sub	s2,a0,s2
80004394:	4481                	li	s1,0
80004396:	4b81                	li	s7,0
80004398:	bde9                	j	80004272 <__divdf3+0x52>
8000439a:	00946ab3          	or	s5,s0,s1
8000439e:	000a9863          	bnez	s5,800043ae <__divdf3+0x18e>
800043a2:	4b01                	li	s6,0
800043a4:	44a1                	li	s1,8
800043a6:	7ff00913          	li	s2,2047
800043aa:	4b89                	li	s7,2
800043ac:	b5d9                	j	80004272 <__divdf3+0x52>
800043ae:	8b26                	mv	s6,s1
800043b0:	8aa2                	mv	s5,s0
800043b2:	44b1                	li	s1,12
800043b4:	7ff00913          	li	s2,2047
800043b8:	4b8d                	li	s7,3
800043ba:	bd65                	j	80004272 <__divdf3+0x52>
800043bc:	4b01                	li	s6,0
800043be:	4491                	li	s1,4
800043c0:	4901                	li	s2,0
800043c2:	4b85                	li	s7,1
800043c4:	b57d                	j	80004272 <__divdf3+0x52>
800043c6:	0014e493          	ori	s1,s1,1
800043ca:	4401                	li	s0,0
800043cc:	4685                	li	a3,1
800043ce:	bdf9                	j	800042ac <__divdf3+0x8c>
800043d0:	0034e493          	ori	s1,s1,3
800043d4:	8832                	mv	a6,a2
800043d6:	468d                	li	a3,3
800043d8:	bdd1                	j	800042ac <__divdf3+0x8c>
800043da:	2e070963          	beqz	a4,800046cc <__divdf3+0x4ac>
800043de:	4785                	li	a5,1
800043e0:	8f99                	sub	a5,a5,a4
800043e2:	03800693          	li	a3,56
800043e6:	32f6dc63          	bge	a3,a5,8000471e <__divdf3+0x4fe>
800043ea:	4701                	li	a4,0
800043ec:	4781                	li	a5,0
800043ee:	4401                	li	s0,0
800043f0:	bddd                	j	800042e6 <__divdf3+0xc6>
800043f2:	85d2                	mv	a1,s4
800043f4:	4789                	li	a5,2
800043f6:	eef684e3          	beq	a3,a5,800042de <__divdf3+0xbe>
800043fa:	478d                	li	a5,3
800043fc:	f0f688e3          	beq	a3,a5,8000430c <__divdf3+0xec>
80004400:	4785                	li	a5,1
80004402:	fef684e3          	beq	a3,a5,800043ea <__divdf3+0x1ca>
80004406:	3ff90713          	addi	a4,s2,1023
8000440a:	fce058e3          	blez	a4,800043da <__divdf3+0x1ba>
8000440e:	00787793          	andi	a5,a6,7
80004412:	28079663          	bnez	a5,8000469e <__divdf3+0x47e>
80004416:	00385813          	srli	a6,a6,0x3
8000441a:	00741793          	slli	a5,s0,0x7
8000441e:	0007d863          	bgez	a5,8000442e <__divdf3+0x20e>
80004422:	ff0007b7          	lui	a5,0xff000
80004426:	17fd                	addi	a5,a5,-1
80004428:	8c7d                	and	s0,s0,a5
8000442a:	40090713          	addi	a4,s2,1024
8000442e:	7fe00793          	li	a5,2046
80004432:	eae7c6e3          	blt	a5,a4,800042de <__divdf3+0xbe>
80004436:	00941793          	slli	a5,s0,0x9
8000443a:	01d41693          	slli	a3,s0,0x1d
8000443e:	0106e433          	or	s0,a3,a6
80004442:	83b1                	srli	a5,a5,0xc
80004444:	7ff77713          	andi	a4,a4,2047
80004448:	bd79                	j	800042e6 <__divdf3+0xc6>
8000444a:	85ce                	mv	a1,s3
8000444c:	8456                	mv	s0,s5
8000444e:	885a                	mv	a6,s6
80004450:	86de                	mv	a3,s7
80004452:	b74d                	j	800043f4 <__divdf3+0x1d4>
80004454:	23546163          	bltu	s0,s5,80004676 <__divdf3+0x456>
80004458:	208a8d63          	beq	s5,s0,80004672 <__divdf3+0x452>
8000445c:	875a                	mv	a4,s6
8000445e:	197d                	addi	s2,s2,-1
80004460:	4b01                	li	s6,0
80004462:	00841793          	slli	a5,s0,0x8
80004466:	01885893          	srli	a7,a6,0x18
8000446a:	00f8e8b3          	or	a7,a7,a5
8000446e:	0108de13          	srli	t3,a7,0x10
80004472:	03cad7b3          	divu	a5,s5,t3
80004476:	01089e93          	slli	t4,a7,0x10
8000447a:	010ede93          	srli	t4,t4,0x10
8000447e:	01075613          	srli	a2,a4,0x10
80004482:	00881313          	slli	t1,a6,0x8
80004486:	03cafab3          	remu	s5,s5,t3
8000448a:	02fe86b3          	mul	a3,t4,a5
8000448e:	0ac2                	slli	s5,s5,0x10
80004490:	01566633          	or	a2,a2,s5
80004494:	00d67b63          	bgeu	a2,a3,800044aa <__divdf3+0x28a>
80004498:	9646                	add	a2,a2,a7
8000449a:	fff78513          	addi	a0,a5,-1 # feffffff <_sp+0x6efeffff>
8000449e:	27166e63          	bltu	a2,a7,8000471a <__divdf3+0x4fa>
800044a2:	26d67c63          	bgeu	a2,a3,8000471a <__divdf3+0x4fa>
800044a6:	17f9                	addi	a5,a5,-2
800044a8:	9646                	add	a2,a2,a7
800044aa:	8e15                	sub	a2,a2,a3
800044ac:	03c65433          	divu	s0,a2,t3
800044b0:	0742                	slli	a4,a4,0x10
800044b2:	8341                	srli	a4,a4,0x10
800044b4:	03c67633          	remu	a2,a2,t3
800044b8:	028e86b3          	mul	a3,t4,s0
800044bc:	0642                	slli	a2,a2,0x10
800044be:	8e59                	or	a2,a2,a4
800044c0:	00d67b63          	bgeu	a2,a3,800044d6 <__divdf3+0x2b6>
800044c4:	9646                	add	a2,a2,a7
800044c6:	fff40713          	addi	a4,s0,-1 # 7fffff <__stack_size+0x7ff7ff>
800044ca:	25166663          	bltu	a2,a7,80004716 <__divdf3+0x4f6>
800044ce:	24d67463          	bgeu	a2,a3,80004716 <__divdf3+0x4f6>
800044d2:	1479                	addi	s0,s0,-2
800044d4:	9646                	add	a2,a2,a7
800044d6:	07c2                	slli	a5,a5,0x10
800044d8:	63c1                	lui	t2,0x10
800044da:	8c5d                	or	s0,s0,a5
800044dc:	fff38793          	addi	a5,t2,-1 # ffff <__stack_size+0xf7ff>
800044e0:	00f47833          	and	a6,s0,a5
800044e4:	01045f13          	srli	t5,s0,0x10
800044e8:	01035513          	srli	a0,t1,0x10
800044ec:	00f377b3          	and	a5,t1,a5
800044f0:	02f80fb3          	mul	t6,a6,a5
800044f4:	40d60733          	sub	a4,a2,a3
800044f8:	02ff02b3          	mul	t0,t5,a5
800044fc:	010fd613          	srli	a2,t6,0x10
80004500:	030506b3          	mul	a3,a0,a6
80004504:	9696                	add	a3,a3,t0
80004506:	96b2                	add	a3,a3,a2
80004508:	02af0833          	mul	a6,t5,a0
8000450c:	0056f363          	bgeu	a3,t0,80004512 <__divdf3+0x2f2>
80004510:	981e                	add	a6,a6,t2
80004512:	6f41                	lui	t5,0x10
80004514:	1f7d                	addi	t5,t5,-1
80004516:	0106d613          	srli	a2,a3,0x10
8000451a:	01e6f6b3          	and	a3,a3,t5
8000451e:	06c2                	slli	a3,a3,0x10
80004520:	01efff33          	and	t5,t6,t5
80004524:	9642                	add	a2,a2,a6
80004526:	96fa                	add	a3,a3,t5
80004528:	12c76663          	bltu	a4,a2,80004654 <__divdf3+0x434>
8000452c:	12c70263          	beq	a4,a2,80004650 <__divdf3+0x430>
80004530:	40db06b3          	sub	a3,s6,a3
80004534:	8f11                	sub	a4,a4,a2
80004536:	00db3b33          	sltu	s6,s6,a3
8000453a:	41670b33          	sub	s6,a4,s6
8000453e:	3ff90713          	addi	a4,s2,1023
80004542:	17688c63          	beq	a7,s6,800046ba <__divdf3+0x49a>
80004546:	03cb5833          	divu	a6,s6,t3
8000454a:	0106d613          	srli	a2,a3,0x10
8000454e:	03cb7b33          	remu	s6,s6,t3
80004552:	030e8f33          	mul	t5,t4,a6
80004556:	0b42                	slli	s6,s6,0x10
80004558:	01666b33          	or	s6,a2,s6
8000455c:	01eb7b63          	bgeu	s6,t5,80004572 <__divdf3+0x352>
80004560:	9b46                	add	s6,s6,a7
80004562:	fff80613          	addi	a2,a6,-1
80004566:	211b6e63          	bltu	s6,a7,80004782 <__divdf3+0x562>
8000456a:	21eb7c63          	bgeu	s6,t5,80004782 <__divdf3+0x562>
8000456e:	1879                	addi	a6,a6,-2
80004570:	9b46                	add	s6,s6,a7
80004572:	41eb0b33          	sub	s6,s6,t5
80004576:	03cb5633          	divu	a2,s6,t3
8000457a:	06c2                	slli	a3,a3,0x10
8000457c:	82c1                	srli	a3,a3,0x10
8000457e:	03cb7b33          	remu	s6,s6,t3
80004582:	02ce8eb3          	mul	t4,t4,a2
80004586:	0b42                	slli	s6,s6,0x10
80004588:	0166e6b3          	or	a3,a3,s6
8000458c:	01d6fb63          	bgeu	a3,t4,800045a2 <__divdf3+0x382>
80004590:	96c6                	add	a3,a3,a7
80004592:	fff60e13          	addi	t3,a2,-1
80004596:	1f16e463          	bltu	a3,a7,8000477e <__divdf3+0x55e>
8000459a:	1fd6f263          	bgeu	a3,t4,8000477e <__divdf3+0x55e>
8000459e:	1679                	addi	a2,a2,-2
800045a0:	96c6                	add	a3,a3,a7
800045a2:	0842                	slli	a6,a6,0x10
800045a4:	00c86833          	or	a6,a6,a2
800045a8:	01081e13          	slli	t3,a6,0x10
800045ac:	01085f93          	srli	t6,a6,0x10
800045b0:	010e5e13          	srli	t3,t3,0x10
800045b4:	02fe0f33          	mul	t5,t3,a5
800045b8:	41d686b3          	sub	a3,a3,t4
800045bc:	03c50e33          	mul	t3,a0,t3
800045c0:	010f5613          	srli	a2,t5,0x10
800045c4:	02ff87b3          	mul	a5,t6,a5
800045c8:	9e3e                	add	t3,t3,a5
800045ca:	9672                	add	a2,a2,t3
800045cc:	03f50533          	mul	a0,a0,t6
800045d0:	00f67463          	bgeu	a2,a5,800045d8 <__divdf3+0x3b8>
800045d4:	67c1                	lui	a5,0x10
800045d6:	953e                	add	a0,a0,a5
800045d8:	6e41                	lui	t3,0x10
800045da:	1e7d                	addi	t3,t3,-1
800045dc:	01065793          	srli	a5,a2,0x10
800045e0:	01c67633          	and	a2,a2,t3
800045e4:	0642                	slli	a2,a2,0x10
800045e6:	01cf7f33          	and	t5,t5,t3
800045ea:	953e                	add	a0,a0,a5
800045ec:	967a                	add	a2,a2,t5
800045ee:	08a6fd63          	bgeu	a3,a0,80004688 <__divdf3+0x468>
800045f2:	96c6                	add	a3,a3,a7
800045f4:	fff80793          	addi	a5,a6,-1
800045f8:	1b16e663          	bltu	a3,a7,800047a4 <__divdf3+0x584>
800045fc:	18a6e563          	bltu	a3,a0,80004786 <__divdf3+0x566>
80004600:	1aa68663          	beq	a3,a0,800047ac <__divdf3+0x58c>
80004604:	883e                	mv	a6,a5
80004606:	00186813          	ori	a6,a6,1
8000460a:	b501                	j	8000440a <__divdf3+0x1ea>
8000460c:	8526                	mv	a0,s1
8000460e:	2e7d                	jal	800049cc <__clzsi2>
80004610:	01550713          	addi	a4,a0,21
80004614:	45f1                	li	a1,28
80004616:	02050913          	addi	s2,a0,32
8000461a:	4622                	lw	a2,8(sp)
8000461c:	46b2                	lw	a3,12(sp)
8000461e:	d4e5dae3          	bge	a1,a4,80004372 <__divdf3+0x152>
80004622:	ff850413          	addi	s0,a0,-8
80004626:	00849ab3          	sll	s5,s1,s0
8000462a:	4b01                	li	s6,0
8000462c:	b385                	j	8000438c <__divdf3+0x16c>
8000462e:	8532                	mv	a0,a2
80004630:	c432                	sw	a2,8(sp)
80004632:	2e69                	jal	800049cc <__clzsi2>
80004634:	01550593          	addi	a1,a0,21
80004638:	4771                	li	a4,28
8000463a:	87aa                	mv	a5,a0
8000463c:	4622                	lw	a2,8(sp)
8000463e:	02050513          	addi	a0,a0,32
80004642:	ceb758e3          	bge	a4,a1,80004332 <__divdf3+0x112>
80004646:	17e1                	addi	a5,a5,-8
80004648:	4801                	li	a6,0
8000464a:	00f61433          	sll	s0,a2,a5
8000464e:	b9f5                	j	8000434a <__divdf3+0x12a>
80004650:	eedb70e3          	bgeu	s6,a3,80004530 <__divdf3+0x310>
80004654:	9b1a                	add	s6,s6,t1
80004656:	006b3833          	sltu	a6,s6,t1
8000465a:	9846                	add	a6,a6,a7
8000465c:	9742                	add	a4,a4,a6
8000465e:	fff40813          	addi	a6,s0,-1
80004662:	02e8f863          	bgeu	a7,a4,80004692 <__divdf3+0x472>
80004666:	10c76563          	bltu	a4,a2,80004770 <__divdf3+0x550>
8000466a:	10e60163          	beq	a2,a4,8000476c <__divdf3+0x54c>
8000466e:	8442                	mv	s0,a6
80004670:	b5c1                	j	80004530 <__divdf3+0x310>
80004672:	df0b65e3          	bltu	s6,a6,8000445c <__divdf3+0x23c>
80004676:	01fa9713          	slli	a4,s5,0x1f
8000467a:	001b5613          	srli	a2,s6,0x1
8000467e:	001ada93          	srli	s5,s5,0x1
80004682:	8f51                	or	a4,a4,a2
80004684:	0b7e                	slli	s6,s6,0x1f
80004686:	bbf1                	j	80004462 <__divdf3+0x242>
80004688:	f6a69fe3          	bne	a3,a0,80004606 <__divdf3+0x3e6>
8000468c:	d6060fe3          	beqz	a2,8000440a <__divdf3+0x1ea>
80004690:	b78d                	j	800045f2 <__divdf3+0x3d2>
80004692:	fce89ee3          	bne	a7,a4,8000466e <__divdf3+0x44e>
80004696:	fc6b78e3          	bgeu	s6,t1,80004666 <__divdf3+0x446>
8000469a:	8442                	mv	s0,a6
8000469c:	bd51                	j	80004530 <__divdf3+0x310>
8000469e:	00f87793          	andi	a5,a6,15
800046a2:	4691                	li	a3,4
800046a4:	d6d789e3          	beq	a5,a3,80004416 <__divdf3+0x1f6>
800046a8:	ffc83793          	sltiu	a5,a6,-4
800046ac:	0811                	addi	a6,a6,4
800046ae:	0017c793          	xori	a5,a5,1
800046b2:	00385813          	srli	a6,a6,0x3
800046b6:	943e                	add	s0,s0,a5
800046b8:	b38d                	j	8000441a <__divdf3+0x1fa>
800046ba:	4801                	li	a6,0
800046bc:	4785                	li	a5,1
800046be:	fee04ce3          	bgtz	a4,800046b6 <__divdf3+0x496>
800046c2:	587d                	li	a6,-1
800046c4:	d0071de3          	bnez	a4,800043de <__divdf3+0x1be>
800046c8:	c0100913          	li	s2,-1023
800046cc:	4785                	li	a5,1
800046ce:	41e90513          	addi	a0,s2,1054
800046d2:	00a41733          	sll	a4,s0,a0
800046d6:	00f856b3          	srl	a3,a6,a5
800046da:	00a81533          	sll	a0,a6,a0
800046de:	8f55                	or	a4,a4,a3
800046e0:	00a03533          	snez	a0,a0
800046e4:	8f49                	or	a4,a4,a0
800046e6:	00777693          	andi	a3,a4,7
800046ea:	00f45433          	srl	s0,s0,a5
800046ee:	ce81                	beqz	a3,80004706 <__divdf3+0x4e6>
800046f0:	00f77793          	andi	a5,a4,15
800046f4:	4691                	li	a3,4
800046f6:	00d78863          	beq	a5,a3,80004706 <__divdf3+0x4e6>
800046fa:	00470793          	addi	a5,a4,4
800046fe:	00e7b733          	sltu	a4,a5,a4
80004702:	943a                	add	s0,s0,a4
80004704:	873e                	mv	a4,a5
80004706:	00841793          	slli	a5,s0,0x8
8000470a:	0407d963          	bgez	a5,8000475c <__divdf3+0x53c>
8000470e:	4705                	li	a4,1
80004710:	4781                	li	a5,0
80004712:	4401                	li	s0,0
80004714:	bec9                	j	800042e6 <__divdf3+0xc6>
80004716:	843a                	mv	s0,a4
80004718:	bb7d                	j	800044d6 <__divdf3+0x2b6>
8000471a:	87aa                	mv	a5,a0
8000471c:	b379                	j	800044aa <__divdf3+0x28a>
8000471e:	46fd                	li	a3,31
80004720:	faf6d7e3          	bge	a3,a5,800046ce <__divdf3+0x4ae>
80004724:	5685                	li	a3,-31
80004726:	40e68733          	sub	a4,a3,a4
8000472a:	02000613          	li	a2,32
8000472e:	00e456b3          	srl	a3,s0,a4
80004732:	00c78863          	beq	a5,a2,80004742 <__divdf3+0x522>
80004736:	43e90793          	addi	a5,s2,1086
8000473a:	00f417b3          	sll	a5,s0,a5
8000473e:	00f86833          	or	a6,a6,a5
80004742:	01003733          	snez	a4,a6
80004746:	8f55                	or	a4,a4,a3
80004748:	00777413          	andi	s0,a4,7
8000474c:	4781                	li	a5,0
8000474e:	c819                	beqz	s0,80004764 <__divdf3+0x544>
80004750:	00f77793          	andi	a5,a4,15
80004754:	4691                	li	a3,4
80004756:	4401                	li	s0,0
80004758:	fad791e3          	bne	a5,a3,800046fa <__divdf3+0x4da>
8000475c:	00941793          	slli	a5,s0,0x9
80004760:	83b1                	srli	a5,a5,0xc
80004762:	0476                	slli	s0,s0,0x1d
80004764:	830d                	srli	a4,a4,0x3
80004766:	8c59                	or	s0,s0,a4
80004768:	4701                	li	a4,0
8000476a:	beb5                	j	800042e6 <__divdf3+0xc6>
8000476c:	f0db71e3          	bgeu	s6,a3,8000466e <__divdf3+0x44e>
80004770:	9b1a                	add	s6,s6,t1
80004772:	006b3833          	sltu	a6,s6,t1
80004776:	9846                	add	a6,a6,a7
80004778:	1479                	addi	s0,s0,-2
8000477a:	9742                	add	a4,a4,a6
8000477c:	bb55                	j	80004530 <__divdf3+0x310>
8000477e:	8672                	mv	a2,t3
80004780:	b50d                	j	800045a2 <__divdf3+0x382>
80004782:	8832                	mv	a6,a2
80004784:	b3fd                	j	80004572 <__divdf3+0x352>
80004786:	00131793          	slli	a5,t1,0x1
8000478a:	0067b333          	sltu	t1,a5,t1
8000478e:	989a                	add	a7,a7,t1
80004790:	96c6                	add	a3,a3,a7
80004792:	1879                	addi	a6,a6,-2
80004794:	833e                	mv	t1,a5
80004796:	e6a698e3          	bne	a3,a0,80004606 <__divdf3+0x3e6>
8000479a:	c6c308e3          	beq	t1,a2,8000440a <__divdf3+0x1ea>
8000479e:	00186813          	ori	a6,a6,1
800047a2:	b1a5                	j	8000440a <__divdf3+0x1ea>
800047a4:	883e                	mv	a6,a5
800047a6:	fea68ae3          	beq	a3,a0,8000479a <__divdf3+0x57a>
800047aa:	bdb1                	j	80004606 <__divdf3+0x3e6>
800047ac:	fcc36de3          	bltu	t1,a2,80004786 <__divdf3+0x566>
800047b0:	883e                	mv	a6,a5
800047b2:	fec316e3          	bne	t1,a2,8000479e <__divdf3+0x57e>
800047b6:	b991                	j	8000440a <__divdf3+0x1ea>

800047b8 <__gedf2>:
800047b8:	0145d713          	srli	a4,a1,0x14
800047bc:	001007b7          	lui	a5,0x100
800047c0:	17fd                	addi	a5,a5,-1
800047c2:	0146d813          	srli	a6,a3,0x14
800047c6:	7ff77713          	andi	a4,a4,2047
800047ca:	7ff00893          	li	a7,2047
800047ce:	00b7f333          	and	t1,a5,a1
800047d2:	8e2a                	mv	t3,a0
800047d4:	8ff5                	and	a5,a5,a3
800047d6:	81fd                	srli	a1,a1,0x1f
800047d8:	8eb2                	mv	t4,a2
800047da:	7ff87813          	andi	a6,a6,2047
800047de:	82fd                	srli	a3,a3,0x1f
800047e0:	03170863          	beq	a4,a7,80004810 <__gedf2+0x58>
800047e4:	03180063          	beq	a6,a7,80004804 <__gedf2+0x4c>
800047e8:	eb0d                	bnez	a4,8000481a <__gedf2+0x62>
800047ea:	00a36533          	or	a0,t1,a0
800047ee:	00081463          	bnez	a6,800047f6 <__gedf2+0x3e>
800047f2:	8e5d                	or	a2,a2,a5
800047f4:	c229                	beqz	a2,80004836 <__gedf2+0x7e>
800047f6:	cd0d                	beqz	a0,80004830 <__gedf2+0x78>
800047f8:	04d58663          	beq	a1,a3,80004844 <__gedf2+0x8c>
800047fc:	4685                	li	a3,1
800047fe:	e995                	bnez	a1,80004832 <__gedf2+0x7a>
80004800:	8536                	mv	a0,a3
80004802:	8082                	ret
80004804:	00c7e8b3          	or	a7,a5,a2
80004808:	fe0880e3          	beqz	a7,800047e8 <__gedf2+0x30>
8000480c:	56f9                	li	a3,-2
8000480e:	bfcd                	j	80004800 <__gedf2+0x48>
80004810:	00a36533          	or	a0,t1,a0
80004814:	fd65                	bnez	a0,8000480c <__gedf2+0x54>
80004816:	02e80363          	beq	a6,a4,8000483c <__gedf2+0x84>
8000481a:	00081463          	bnez	a6,80004822 <__gedf2+0x6a>
8000481e:	8e5d                	or	a2,a2,a5
80004820:	de71                	beqz	a2,800047fc <__gedf2+0x44>
80004822:	fcd59de3          	bne	a1,a3,800047fc <__gedf2+0x44>
80004826:	00e85f63          	bge	a6,a4,80004844 <__gedf2+0x8c>
8000482a:	e681                	bnez	a3,80004832 <__gedf2+0x7a>
8000482c:	4685                	li	a3,1
8000482e:	bfc9                	j	80004800 <__gedf2+0x48>
80004830:	fae1                	bnez	a3,80004800 <__gedf2+0x48>
80004832:	56fd                	li	a3,-1
80004834:	b7f1                	j	80004800 <__gedf2+0x48>
80004836:	4681                	li	a3,0
80004838:	d561                	beqz	a0,80004800 <__gedf2+0x48>
8000483a:	b7c9                	j	800047fc <__gedf2+0x44>
8000483c:	8e5d                	or	a2,a2,a5
8000483e:	d275                	beqz	a2,80004822 <__gedf2+0x6a>
80004840:	56f9                	li	a3,-2
80004842:	bf7d                	j	80004800 <__gedf2+0x48>
80004844:	01074963          	blt	a4,a6,80004856 <__gedf2+0x9e>
80004848:	fa67eae3          	bltu	a5,t1,800047fc <__gedf2+0x44>
8000484c:	00f30863          	beq	t1,a5,8000485c <__gedf2+0xa4>
80004850:	4681                	li	a3,0
80004852:	faf377e3          	bgeu	t1,a5,80004800 <__gedf2+0x48>
80004856:	ddf1                	beqz	a1,80004832 <__gedf2+0x7a>
80004858:	86ae                	mv	a3,a1
8000485a:	b75d                	j	80004800 <__gedf2+0x48>
8000485c:	fbcee0e3          	bltu	t4,t3,800047fc <__gedf2+0x44>
80004860:	4681                	li	a3,0
80004862:	f9de7fe3          	bgeu	t3,t4,80004800 <__gedf2+0x48>
80004866:	bfc5                	j	80004856 <__gedf2+0x9e>

80004868 <__ledf2>:
80004868:	0145d713          	srli	a4,a1,0x14
8000486c:	001007b7          	lui	a5,0x100
80004870:	17fd                	addi	a5,a5,-1
80004872:	0146d813          	srli	a6,a3,0x14
80004876:	7ff77713          	andi	a4,a4,2047
8000487a:	7ff00893          	li	a7,2047
8000487e:	00b7f333          	and	t1,a5,a1
80004882:	8e2a                	mv	t3,a0
80004884:	8ff5                	and	a5,a5,a3
80004886:	81fd                	srli	a1,a1,0x1f
80004888:	8eb2                	mv	t4,a2
8000488a:	7ff87813          	andi	a6,a6,2047
8000488e:	82fd                	srli	a3,a3,0x1f
80004890:	03170c63          	beq	a4,a7,800048c8 <__ledf2+0x60>
80004894:	01180c63          	beq	a6,a7,800048ac <__ledf2+0x44>
80004898:	ef0d                	bnez	a4,800048d2 <__ledf2+0x6a>
8000489a:	00a36533          	or	a0,t1,a0
8000489e:	00081e63          	bnez	a6,800048ba <__ledf2+0x52>
800048a2:	8e5d                	or	a2,a2,a5
800048a4:	ea19                	bnez	a2,800048ba <__ledf2+0x52>
800048a6:	4681                	li	a3,0
800048a8:	c129                	beqz	a0,800048ea <__ledf2+0x82>
800048aa:	a819                	j	800048c0 <__ledf2+0x58>
800048ac:	00c7e8b3          	or	a7,a5,a2
800048b0:	fe0884e3          	beqz	a7,80004898 <__ledf2+0x30>
800048b4:	4689                	li	a3,2
800048b6:	8536                	mv	a0,a3
800048b8:	8082                	ret
800048ba:	c51d                	beqz	a0,800048e8 <__ledf2+0x80>
800048bc:	02d58d63          	beq	a1,a3,800048f6 <__ledf2+0x8e>
800048c0:	4685                	li	a3,1
800048c2:	c585                	beqz	a1,800048ea <__ledf2+0x82>
800048c4:	56fd                	li	a3,-1
800048c6:	a015                	j	800048ea <__ledf2+0x82>
800048c8:	00a36533          	or	a0,t1,a0
800048cc:	f565                	bnez	a0,800048b4 <__ledf2+0x4c>
800048ce:	02e80063          	beq	a6,a4,800048ee <__ledf2+0x86>
800048d2:	00081463          	bnez	a6,800048da <__ledf2+0x72>
800048d6:	8e5d                	or	a2,a2,a5
800048d8:	d665                	beqz	a2,800048c0 <__ledf2+0x58>
800048da:	fed593e3          	bne	a1,a3,800048c0 <__ledf2+0x58>
800048de:	00e85c63          	bge	a6,a4,800048f6 <__ledf2+0x8e>
800048e2:	f2ed                	bnez	a3,800048c4 <__ledf2+0x5c>
800048e4:	4685                	li	a3,1
800048e6:	a011                	j	800048ea <__ledf2+0x82>
800048e8:	def1                	beqz	a3,800048c4 <__ledf2+0x5c>
800048ea:	8536                	mv	a0,a3
800048ec:	8082                	ret
800048ee:	8e5d                	or	a2,a2,a5
800048f0:	d66d                	beqz	a2,800048da <__ledf2+0x72>
800048f2:	4689                	li	a3,2
800048f4:	b7c9                	j	800048b6 <__ledf2+0x4e>
800048f6:	01074963          	blt	a4,a6,80004908 <__ledf2+0xa0>
800048fa:	fc67e3e3          	bltu	a5,t1,800048c0 <__ledf2+0x58>
800048fe:	00f30863          	beq	t1,a5,8000490e <__ledf2+0xa6>
80004902:	4681                	li	a3,0
80004904:	fef373e3          	bgeu	t1,a5,800048ea <__ledf2+0x82>
80004908:	ddd5                	beqz	a1,800048c4 <__ledf2+0x5c>
8000490a:	86ae                	mv	a3,a1
8000490c:	bff9                	j	800048ea <__ledf2+0x82>
8000490e:	fbcee9e3          	bltu	t4,t3,800048c0 <__ledf2+0x58>
80004912:	4681                	li	a3,0
80004914:	fdde7be3          	bgeu	t3,t4,800048ea <__ledf2+0x82>
80004918:	bfc5                	j	80004908 <__ledf2+0xa0>

8000491a <__fixunsdfsi>:
8000491a:	0145d793          	srli	a5,a1,0x14
8000491e:	001006b7          	lui	a3,0x100
80004922:	fff68713          	addi	a4,a3,-1 # fffff <__stack_size+0xff7ff>
80004926:	7ff7f793          	andi	a5,a5,2047
8000492a:	3fe00613          	li	a2,1022
8000492e:	882a                	mv	a6,a0
80004930:	8f6d                	and	a4,a4,a1
80004932:	4501                	li	a0,0
80004934:	81fd                	srli	a1,a1,0x1f
80004936:	00f65463          	bge	a2,a5,8000493e <__fixunsdfsi+0x24>
8000493a:	c199                	beqz	a1,80004940 <__fixunsdfsi+0x26>
8000493c:	8082                	ret
8000493e:	8082                	ret
80004940:	41e00613          	li	a2,1054
80004944:	557d                	li	a0,-1
80004946:	fef64be3          	blt	a2,a5,8000493c <__fixunsdfsi+0x22>
8000494a:	43300513          	li	a0,1075
8000494e:	8d1d                	sub	a0,a0,a5
80004950:	467d                	li	a2,31
80004952:	8f55                	or	a4,a4,a3
80004954:	00a64a63          	blt	a2,a0,80004968 <__fixunsdfsi+0x4e>
80004958:	bed78793          	addi	a5,a5,-1043 # ffbed <__stack_size+0xff3ed>
8000495c:	00f71733          	sll	a4,a4,a5
80004960:	00a85533          	srl	a0,a6,a0
80004964:	8d59                	or	a0,a0,a4
80004966:	8082                	ret
80004968:	41300513          	li	a0,1043
8000496c:	40f507b3          	sub	a5,a0,a5
80004970:	00f75533          	srl	a0,a4,a5
80004974:	8082                	ret

80004976 <__floatunsidf>:
80004976:	1141                	addi	sp,sp,-16
80004978:	c422                	sw	s0,8(sp)
8000497a:	c606                	sw	ra,12(sp)
8000497c:	842a                	mv	s0,a0
8000497e:	c505                	beqz	a0,800049a6 <__floatunsidf+0x30>
80004980:	20b1                	jal	800049cc <__clzsi2>
80004982:	41e00713          	li	a4,1054
80004986:	8f09                	sub	a4,a4,a0
80004988:	47a9                	li	a5,10
8000498a:	7ff77713          	andi	a4,a4,2047
8000498e:	02a7c863          	blt	a5,a0,800049be <__floatunsidf+0x48>
80004992:	47ad                	li	a5,11
80004994:	8f89                	sub	a5,a5,a0
80004996:	00f457b3          	srl	a5,s0,a5
8000499a:	0555                	addi	a0,a0,21
8000499c:	07b2                	slli	a5,a5,0xc
8000499e:	00a41433          	sll	s0,s0,a0
800049a2:	83b1                	srli	a5,a5,0xc
800049a4:	a019                	j	800049aa <__floatunsidf+0x34>
800049a6:	4701                	li	a4,0
800049a8:	4781                	li	a5,0
800049aa:	8522                	mv	a0,s0
800049ac:	40b2                	lw	ra,12(sp)
800049ae:	4422                	lw	s0,8(sp)
800049b0:	07b2                	slli	a5,a5,0xc
800049b2:	0752                	slli	a4,a4,0x14
800049b4:	83b1                	srli	a5,a5,0xc
800049b6:	8fd9                	or	a5,a5,a4
800049b8:	85be                	mv	a1,a5
800049ba:	0141                	addi	sp,sp,16
800049bc:	8082                	ret
800049be:	1555                	addi	a0,a0,-11
800049c0:	00a417b3          	sll	a5,s0,a0
800049c4:	07b2                	slli	a5,a5,0xc
800049c6:	83b1                	srli	a5,a5,0xc
800049c8:	4401                	li	s0,0
800049ca:	b7c5                	j	800049aa <__floatunsidf+0x34>

800049cc <__clzsi2>:
800049cc:	67c1                	lui	a5,0x10
800049ce:	02f57e63          	bgeu	a0,a5,80004a0a <__clzsi2+0x3e>
800049d2:	0ff00793          	li	a5,255
800049d6:	02000713          	li	a4,32
800049da:	00a7ec63          	bltu	a5,a0,800049f2 <__clzsi2+0x26>
800049de:	0fffc797          	auipc	a5,0xfffc
800049e2:	c5278793          	addi	a5,a5,-942 # 90000630 <__clz_tab>
800049e6:	97aa                	add	a5,a5,a0
800049e8:	0007c503          	lbu	a0,0(a5)
800049ec:	40a70533          	sub	a0,a4,a0
800049f0:	8082                	ret
800049f2:	8121                	srli	a0,a0,0x8
800049f4:	0fffc797          	auipc	a5,0xfffc
800049f8:	c3c78793          	addi	a5,a5,-964 # 90000630 <__clz_tab>
800049fc:	97aa                	add	a5,a5,a0
800049fe:	0007c503          	lbu	a0,0(a5)
80004a02:	4761                	li	a4,24
80004a04:	40a70533          	sub	a0,a4,a0
80004a08:	8082                	ret
80004a0a:	010007b7          	lui	a5,0x1000
80004a0e:	00f56e63          	bltu	a0,a5,80004a2a <__clzsi2+0x5e>
80004a12:	8161                	srli	a0,a0,0x18
80004a14:	0fffc797          	auipc	a5,0xfffc
80004a18:	c1c78793          	addi	a5,a5,-996 # 90000630 <__clz_tab>
80004a1c:	97aa                	add	a5,a5,a0
80004a1e:	0007c503          	lbu	a0,0(a5)
80004a22:	4721                	li	a4,8
80004a24:	40a70533          	sub	a0,a4,a0
80004a28:	8082                	ret
80004a2a:	8141                	srli	a0,a0,0x10
80004a2c:	0fffc797          	auipc	a5,0xfffc
80004a30:	c0478793          	addi	a5,a5,-1020 # 90000630 <__clz_tab>
80004a34:	97aa                	add	a5,a5,a0
80004a36:	0007c503          	lbu	a0,0(a5)
80004a3a:	4741                	li	a4,16
80004a3c:	40a70533          	sub	a0,a4,a0
80004a40:	8082                	ret

80004a42 <atexit>:
80004a42:	85aa                	mv	a1,a0
80004a44:	4681                	li	a3,0
80004a46:	4601                	li	a2,0
80004a48:	4501                	li	a0,0
80004a4a:	6470006f          	j	80005890 <__register_exitproc>

80004a4e <exit>:
80004a4e:	1141                	addi	sp,sp,-16
80004a50:	c422                	sw	s0,8(sp)
80004a52:	c606                	sw	ra,12(sp)
80004a54:	00001797          	auipc	a5,0x1
80004a58:	eb878793          	addi	a5,a5,-328 # 8000590c <__call_exitprocs>
80004a5c:	842a                	mv	s0,a0
80004a5e:	c781                	beqz	a5,80004a66 <exit+0x18>
80004a60:	4581                	li	a1,0
80004a62:	6ab000ef          	jal	ra,8000590c <__call_exitprocs>
80004a66:	00004797          	auipc	a5,0x4
80004a6a:	6ce78793          	addi	a5,a5,1742 # 80009134 <_global_impure_ptr>
80004a6e:	4388                	lw	a0,0(a5)
80004a70:	551c                	lw	a5,40(a0)
80004a72:	c391                	beqz	a5,80004a76 <exit+0x28>
80004a74:	9782                	jalr	a5
80004a76:	8522                	mv	a0,s0
80004a78:	dd4ff0ef          	jal	ra,8000404c <_exit>

80004a7c <__libc_fini_array>:
80004a7c:	1141                	addi	sp,sp,-16
80004a7e:	00004797          	auipc	a5,0x4
80004a82:	6be78793          	addi	a5,a5,1726 # 8000913c <__fini_array_end>
80004a86:	c422                	sw	s0,8(sp)
80004a88:	00004417          	auipc	s0,0x4
80004a8c:	6b440413          	addi	s0,s0,1716 # 8000913c <__fini_array_end>
80004a90:	8c1d                	sub	s0,s0,a5
80004a92:	c226                	sw	s1,4(sp)
80004a94:	c606                	sw	ra,12(sp)
80004a96:	8409                	srai	s0,s0,0x2
80004a98:	84be                	mv	s1,a5
80004a9a:	e411                	bnez	s0,80004aa6 <__libc_fini_array+0x2a>
80004a9c:	40b2                	lw	ra,12(sp)
80004a9e:	4422                	lw	s0,8(sp)
80004aa0:	4492                	lw	s1,4(sp)
80004aa2:	0141                	addi	sp,sp,16
80004aa4:	8082                	ret
80004aa6:	147d                	addi	s0,s0,-1
80004aa8:	00241793          	slli	a5,s0,0x2
80004aac:	97a6                	add	a5,a5,s1
80004aae:	439c                	lw	a5,0(a5)
80004ab0:	9782                	jalr	a5
80004ab2:	b7e5                	j	80004a9a <__libc_fini_array+0x1e>

80004ab4 <__libc_init_array>:
80004ab4:	1141                	addi	sp,sp,-16
80004ab6:	00004797          	auipc	a5,0x4
80004aba:	68278793          	addi	a5,a5,1666 # 80009138 <_eitcm>
80004abe:	c422                	sw	s0,8(sp)
80004ac0:	00004417          	auipc	s0,0x4
80004ac4:	67840413          	addi	s0,s0,1656 # 80009138 <_eitcm>
80004ac8:	8c1d                	sub	s0,s0,a5
80004aca:	c226                	sw	s1,4(sp)
80004acc:	c04a                	sw	s2,0(sp)
80004ace:	c606                	sw	ra,12(sp)
80004ad0:	8409                	srai	s0,s0,0x2
80004ad2:	4481                	li	s1,0
80004ad4:	893e                	mv	s2,a5
80004ad6:	02849663          	bne	s1,s0,80004b02 <__libc_init_array+0x4e>
80004ada:	00004797          	auipc	a5,0x4
80004ade:	65e78793          	addi	a5,a5,1630 # 80009138 <_eitcm>
80004ae2:	00004417          	auipc	s0,0x4
80004ae6:	65a40413          	addi	s0,s0,1626 # 8000913c <__fini_array_end>
80004aea:	8c1d                	sub	s0,s0,a5
80004aec:	8409                	srai	s0,s0,0x2
80004aee:	4481                	li	s1,0
80004af0:	893e                	mv	s2,a5
80004af2:	00849f63          	bne	s1,s0,80004b10 <__libc_init_array+0x5c>
80004af6:	40b2                	lw	ra,12(sp)
80004af8:	4422                	lw	s0,8(sp)
80004afa:	4492                	lw	s1,4(sp)
80004afc:	4902                	lw	s2,0(sp)
80004afe:	0141                	addi	sp,sp,16
80004b00:	8082                	ret
80004b02:	00249793          	slli	a5,s1,0x2
80004b06:	97ca                	add	a5,a5,s2
80004b08:	439c                	lw	a5,0(a5)
80004b0a:	0485                	addi	s1,s1,1
80004b0c:	9782                	jalr	a5
80004b0e:	b7e1                	j	80004ad6 <__libc_init_array+0x22>
80004b10:	00249793          	slli	a5,s1,0x2
80004b14:	97ca                	add	a5,a5,s2
80004b16:	439c                	lw	a5,0(a5)
80004b18:	0485                	addi	s1,s1,1
80004b1a:	9782                	jalr	a5
80004b1c:	bfd9                	j	80004af2 <__libc_init_array+0x3e>

80004b1e <__cvt>:
80004b1e:	7179                	addi	sp,sp,-48
80004b20:	d422                	sw	s0,40(sp)
80004b22:	d04a                	sw	s2,32(sp)
80004b24:	cc52                	sw	s4,24(sp)
80004b26:	ca56                	sw	s5,20(sp)
80004b28:	c85a                	sw	s6,16(sp)
80004b2a:	d606                	sw	ra,44(sp)
80004b2c:	d226                	sw	s1,36(sp)
80004b2e:	ce4e                	sw	s3,28(sp)
80004b30:	8a3a                	mv	s4,a4
80004b32:	8aae                	mv	s5,a1
80004b34:	8432                	mv	s0,a2
80004b36:	8936                	mv	s2,a3
80004b38:	8b42                	mv	s6,a6
80004b3a:	4701                	li	a4,0
80004b3c:	00065863          	bgez	a2,80004b4c <__cvt+0x2e>
80004b40:	80000737          	lui	a4,0x80000
80004b44:	00c74433          	xor	s0,a4,a2
80004b48:	02d00713          	li	a4,45
80004b4c:	00e78023          	sb	a4,0(a5)
80004b50:	fdf8f493          	andi	s1,a7,-33
80004b54:	04600793          	li	a5,70
80004b58:	468d                	li	a3,3
80004b5a:	00f48863          	beq	s1,a5,80004b6a <__cvt+0x4c>
80004b5e:	04500793          	li	a5,69
80004b62:	4689                	li	a3,2
80004b64:	00f49363          	bne	s1,a5,80004b6a <__cvt+0x4c>
80004b68:	0905                	addi	s2,s2,1
80004b6a:	87da                	mv	a5,s6
80004b6c:	00c10893          	addi	a7,sp,12
80004b70:	00810813          	addi	a6,sp,8
80004b74:	874a                	mv	a4,s2
80004b76:	85d6                	mv	a1,s5
80004b78:	8622                	mv	a2,s0
80004b7a:	791000ef          	jal	ra,80005b0a <_dtoa_r>
80004b7e:	04700793          	li	a5,71
80004b82:	89aa                	mv	s3,a0
80004b84:	00f49663          	bne	s1,a5,80004b90 <__cvt+0x72>
80004b88:	001a7a13          	andi	s4,s4,1
80004b8c:	040a0a63          	beqz	s4,80004be0 <__cvt+0xc2>
80004b90:	04600793          	li	a5,70
80004b94:	01298a33          	add	s4,s3,s2
80004b98:	02f49763          	bne	s1,a5,80004bc6 <__cvt+0xa8>
80004b9c:	0009c703          	lbu	a4,0(s3)
80004ba0:	03000793          	li	a5,48
80004ba4:	00f71e63          	bne	a4,a5,80004bc0 <__cvt+0xa2>
80004ba8:	4601                	li	a2,0
80004baa:	4681                	li	a3,0
80004bac:	8556                	mv	a0,s5
80004bae:	85a2                	mv	a1,s0
80004bb0:	5fa030ef          	jal	ra,800081aa <__eqdf2>
80004bb4:	c511                	beqz	a0,80004bc0 <__cvt+0xa2>
80004bb6:	4785                	li	a5,1
80004bb8:	41278933          	sub	s2,a5,s2
80004bbc:	012b2023          	sw	s2,0(s6)
80004bc0:	000b2783          	lw	a5,0(s6)
80004bc4:	9a3e                	add	s4,s4,a5
80004bc6:	4601                	li	a2,0
80004bc8:	4681                	li	a3,0
80004bca:	8556                	mv	a0,s5
80004bcc:	85a2                	mv	a1,s0
80004bce:	5dc030ef          	jal	ra,800081aa <__eqdf2>
80004bd2:	e111                	bnez	a0,80004bd6 <__cvt+0xb8>
80004bd4:	c652                	sw	s4,12(sp)
80004bd6:	03000713          	li	a4,48
80004bda:	47b2                	lw	a5,12(sp)
80004bdc:	0347e263          	bltu	a5,s4,80004c00 <__cvt+0xe2>
80004be0:	47b2                	lw	a5,12(sp)
80004be2:	5742                	lw	a4,48(sp)
80004be4:	50b2                	lw	ra,44(sp)
80004be6:	5422                	lw	s0,40(sp)
80004be8:	413787b3          	sub	a5,a5,s3
80004bec:	c31c                	sw	a5,0(a4)
80004bee:	854e                	mv	a0,s3
80004bf0:	5492                	lw	s1,36(sp)
80004bf2:	5902                	lw	s2,32(sp)
80004bf4:	49f2                	lw	s3,28(sp)
80004bf6:	4a62                	lw	s4,24(sp)
80004bf8:	4ad2                	lw	s5,20(sp)
80004bfa:	4b42                	lw	s6,16(sp)
80004bfc:	6145                	addi	sp,sp,48
80004bfe:	8082                	ret
80004c00:	00178693          	addi	a3,a5,1
80004c04:	c636                	sw	a3,12(sp)
80004c06:	00e78023          	sb	a4,0(a5)
80004c0a:	bfc1                	j	80004bda <__cvt+0xbc>

80004c0c <__exponent>:
80004c0c:	00c50023          	sb	a2,0(a0)
80004c10:	00250713          	addi	a4,a0,2
80004c14:	02b00793          	li	a5,43
80004c18:	0005d663          	bgez	a1,80004c24 <__exponent+0x18>
80004c1c:	40b005b3          	neg	a1,a1
80004c20:	02d00793          	li	a5,45
80004c24:	00f500a3          	sb	a5,1(a0)
80004c28:	47a5                	li	a5,9
80004c2a:	04b7da63          	bge	a5,a1,80004c7e <__exponent+0x72>
80004c2e:	1141                	addi	sp,sp,-16
80004c30:	00f10793          	addi	a5,sp,15
80004c34:	88be                	mv	a7,a5
80004c36:	4829                	li	a6,10
80004c38:	06300313          	li	t1,99
80004c3c:	0305e6b3          	rem	a3,a1,a6
80004c40:	fff78613          	addi	a2,a5,-1
80004c44:	03068693          	addi	a3,a3,48
80004c48:	fed78fa3          	sb	a3,-1(a5)
80004c4c:	0305c6b3          	div	a3,a1,a6
80004c50:	00b34d63          	blt	t1,a1,80004c6a <__exponent+0x5e>
80004c54:	03068693          	addi	a3,a3,48
80004c58:	17f9                	addi	a5,a5,-2
80004c5a:	fed60fa3          	sb	a3,-1(a2)
80004c5e:	0117e963          	bltu	a5,a7,80004c70 <__exponent+0x64>
80004c62:	40a70533          	sub	a0,a4,a0
80004c66:	0141                	addi	sp,sp,16
80004c68:	8082                	ret
80004c6a:	87b2                	mv	a5,a2
80004c6c:	85b6                	mv	a1,a3
80004c6e:	b7f9                	j	80004c3c <__exponent+0x30>
80004c70:	0785                	addi	a5,a5,1
80004c72:	fff7c683          	lbu	a3,-1(a5)
80004c76:	0705                	addi	a4,a4,1
80004c78:	fed70fa3          	sb	a3,-1(a4) # 7fffffff <_sp+0xeffeffff>
80004c7c:	b7cd                	j	80004c5e <__exponent+0x52>
80004c7e:	03000793          	li	a5,48
80004c82:	00450713          	addi	a4,a0,4
80004c86:	03058593          	addi	a1,a1,48
80004c8a:	00f50123          	sb	a5,2(a0)
80004c8e:	00b501a3          	sb	a1,3(a0)
80004c92:	40a70533          	sub	a0,a4,a0
80004c96:	8082                	ret

80004c98 <_printf_float>:
80004c98:	7119                	addi	sp,sp,-128
80004c9a:	ce3a                	sw	a4,28(sp)
80004c9c:	de86                	sw	ra,124(sp)
80004c9e:	dca2                	sw	s0,120(sp)
80004ca0:	daa6                	sw	s1,116(sp)
80004ca2:	842e                	mv	s0,a1
80004ca4:	d8ca                	sw	s2,112(sp)
80004ca6:	d6ce                	sw	s3,108(sp)
80004ca8:	d4d2                	sw	s4,104(sp)
80004caa:	89b6                	mv	s3,a3
80004cac:	d0da                	sw	s6,96(sp)
80004cae:	cede                	sw	s7,92(sp)
80004cb0:	cce2                	sw	s8,88(sp)
80004cb2:	8932                	mv	s2,a2
80004cb4:	d2d6                	sw	s5,100(sp)
80004cb6:	cae6                	sw	s9,84(sp)
80004cb8:	c8ea                	sw	s10,80(sp)
80004cba:	c6ee                	sw	s11,76(sp)
80004cbc:	84aa                	mv	s1,a0
80004cbe:	641010ef          	jal	ra,80006afe <_localeconv_r>
80004cc2:	00052b83          	lw	s7,0(a0)
80004cc6:	855e                	mv	a0,s7
80004cc8:	19f000ef          	jal	ra,80005666 <strlen>
80004ccc:	00042b03          	lw	s6,0(s0)
80004cd0:	4772                	lw	a4,28(sp)
80004cd2:	dc02                	sw	zero,56(sp)
80004cd4:	100b7693          	andi	a3,s6,256
80004cd8:	8c2a                	mv	s8,a0
80004cda:	01844a03          	lbu	s4,24(s0)
80004cde:	431c                	lw	a5,0(a4)
80004ce0:	cae1                	beqz	a3,80004db0 <_printf_float+0x118>
80004ce2:	00478693          	addi	a3,a5,4
80004ce6:	c314                	sw	a3,0(a4)
80004ce8:	439c                	lw	a5,0(a5)
80004cea:	1008                	addi	a0,sp,32
80004cec:	4398                	lw	a4,0(a5)
80004cee:	d03a                	sw	a4,32(sp)
80004cf0:	43d8                	lw	a4,4(a5)
80004cf2:	d23a                	sw	a4,36(sp)
80004cf4:	4798                	lw	a4,8(a5)
80004cf6:	d43a                	sw	a4,40(sp)
80004cf8:	47dc                	lw	a5,12(a5)
80004cfa:	d63e                	sw	a5,44(sp)
80004cfc:	218040ef          	jal	ra,80008f14 <__trunctfdf2>
80004d00:	c428                	sw	a0,72(s0)
80004d02:	c46c                	sw	a1,76(s0)
80004d04:	04c42a83          	lw	s5,76(s0)
80004d08:	0fffc717          	auipc	a4,0xfffc
80004d0c:	a2870713          	addi	a4,a4,-1496 # 90000730 <__clz_tab+0x100>
80004d10:	04842c83          	lw	s9,72(s0)
80004d14:	00072d03          	lw	s10,0(a4)
80004d18:	00472d83          	lw	s11,4(a4)
80004d1c:	001a9793          	slli	a5,s5,0x1
80004d20:	8385                	srli	a5,a5,0x1
80004d22:	866a                	mv	a2,s10
80004d24:	86ee                	mv	a3,s11
80004d26:	8566                	mv	a0,s9
80004d28:	85be                	mv	a1,a5
80004d2a:	ce3e                	sw	a5,28(sp)
80004d2c:	0d2040ef          	jal	ra,80008dfe <__unorddf2>
80004d30:	e951                	bnez	a0,80004dc4 <_printf_float+0x12c>
80004d32:	47f2                	lw	a5,28(sp)
80004d34:	866a                	mv	a2,s10
80004d36:	86ee                	mv	a3,s11
80004d38:	8566                	mv	a0,s9
80004d3a:	85be                	mv	a1,a5
80004d3c:	3635                	jal	80004868 <__ledf2>
80004d3e:	08a05363          	blez	a0,80004dc4 <_printf_float+0x12c>
80004d42:	4601                	li	a2,0
80004d44:	4681                	li	a3,0
80004d46:	8566                	mv	a0,s9
80004d48:	85d6                	mv	a1,s5
80004d4a:	3e39                	jal	80004868 <__ledf2>
80004d4c:	00055663          	bgez	a0,80004d58 <_printf_float+0xc0>
80004d50:	02d00793          	li	a5,45
80004d54:	04f401a3          	sb	a5,67(s0)
80004d58:	04700793          	li	a5,71
80004d5c:	0fffca97          	auipc	s5,0xfffc
80004d60:	9dca8a93          	addi	s5,s5,-1572 # 90000738 <__clz_tab+0x108>
80004d64:	0147f663          	bgeu	a5,s4,80004d70 <_printf_float+0xd8>
80004d68:	0fffca97          	auipc	s5,0xfffc
80004d6c:	9d4a8a93          	addi	s5,s5,-1580 # 9000073c <__clz_tab+0x10c>
80004d70:	ffbb7b13          	andi	s6,s6,-5
80004d74:	478d                	li	a5,3
80004d76:	01642023          	sw	s6,0(s0)
80004d7a:	c81c                	sw	a5,16(s0)
80004d7c:	4b01                	li	s6,0
80004d7e:	874e                	mv	a4,s3
80004d80:	86ca                	mv	a3,s2
80004d82:	1870                	addi	a2,sp,60
80004d84:	85a2                	mv	a1,s0
80004d86:	8526                	mv	a0,s1
80004d88:	2ee1                	jal	80005160 <_printf_common>
80004d8a:	5cfd                	li	s9,-1
80004d8c:	17951263          	bne	a0,s9,80004ef0 <_printf_float+0x258>
80004d90:	557d                	li	a0,-1
80004d92:	50f6                	lw	ra,124(sp)
80004d94:	5466                	lw	s0,120(sp)
80004d96:	54d6                	lw	s1,116(sp)
80004d98:	5946                	lw	s2,112(sp)
80004d9a:	59b6                	lw	s3,108(sp)
80004d9c:	5a26                	lw	s4,104(sp)
80004d9e:	5a96                	lw	s5,100(sp)
80004da0:	5b06                	lw	s6,96(sp)
80004da2:	4bf6                	lw	s7,92(sp)
80004da4:	4c66                	lw	s8,88(sp)
80004da6:	4cd6                	lw	s9,84(sp)
80004da8:	4d46                	lw	s10,80(sp)
80004daa:	4db6                	lw	s11,76(sp)
80004dac:	6109                	addi	sp,sp,128
80004dae:	8082                	ret
80004db0:	079d                	addi	a5,a5,7
80004db2:	9be1                	andi	a5,a5,-8
80004db4:	00878693          	addi	a3,a5,8
80004db8:	c314                	sw	a3,0(a4)
80004dba:	4398                	lw	a4,0(a5)
80004dbc:	43dc                	lw	a5,4(a5)
80004dbe:	c438                	sw	a4,72(s0)
80004dc0:	c47c                	sw	a5,76(s0)
80004dc2:	b789                	j	80004d04 <_printf_float+0x6c>
80004dc4:	8666                	mv	a2,s9
80004dc6:	86d6                	mv	a3,s5
80004dc8:	8566                	mv	a0,s9
80004dca:	85d6                	mv	a1,s5
80004dcc:	032040ef          	jal	ra,80008dfe <__unorddf2>
80004dd0:	c505                	beqz	a0,80004df8 <_printf_float+0x160>
80004dd2:	000ad663          	bgez	s5,80004dde <_printf_float+0x146>
80004dd6:	02d00793          	li	a5,45
80004dda:	04f401a3          	sb	a5,67(s0)
80004dde:	04700793          	li	a5,71
80004de2:	0fffca97          	auipc	s5,0xfffc
80004de6:	95ea8a93          	addi	s5,s5,-1698 # 90000740 <__clz_tab+0x110>
80004dea:	f947f3e3          	bgeu	a5,s4,80004d70 <_printf_float+0xd8>
80004dee:	0fffca97          	auipc	s5,0xfffc
80004df2:	956a8a93          	addi	s5,s5,-1706 # 90000744 <__clz_tab+0x114>
80004df6:	bfad                	j	80004d70 <_printf_float+0xd8>
80004df8:	405c                	lw	a5,4(s0)
80004dfa:	577d                	li	a4,-1
80004dfc:	0dfa7d13          	andi	s10,s4,223
80004e00:	08e79363          	bne	a5,a4,80004e86 <_printf_float+0x1ee>
80004e04:	4799                	li	a5,6
80004e06:	c05c                	sw	a5,4(s0)
80004e08:	4054                	lw	a3,4(s0)
80004e0a:	400b6713          	ori	a4,s6,1024
80004e0e:	183c                	addi	a5,sp,56
80004e10:	c03e                	sw	a5,0(sp)
80004e12:	8656                	mv	a2,s5
80004e14:	03310793          	addi	a5,sp,51
80004e18:	85e6                	mv	a1,s9
80004e1a:	c018                	sw	a4,0(s0)
80004e1c:	c202                	sw	zero,4(sp)
80004e1e:	88d2                	mv	a7,s4
80004e20:	03410813          	addi	a6,sp,52
80004e24:	8526                	mv	a0,s1
80004e26:	39e5                	jal	80004b1e <__cvt>
80004e28:	04700793          	li	a5,71
80004e2c:	8aaa                	mv	s5,a0
80004e2e:	55d2                	lw	a1,52(sp)
80004e30:	00fd1b63          	bne	s10,a5,80004e46 <_printf_float+0x1ae>
80004e34:	57f5                	li	a5,-3
80004e36:	00f5c563          	blt	a1,a5,80004e40 <_printf_float+0x1a8>
80004e3a:	405c                	lw	a5,4(s0)
80004e3c:	08b7d763          	bge	a5,a1,80004eca <_printf_float+0x232>
80004e40:	1a79                	addi	s4,s4,-2
80004e42:	0ffa7a13          	andi	s4,s4,255
80004e46:	06500793          	li	a5,101
80004e4a:	0547e563          	bltu	a5,s4,80004e94 <_printf_float+0x1fc>
80004e4e:	15fd                	addi	a1,a1,-1
80004e50:	8652                	mv	a2,s4
80004e52:	05040513          	addi	a0,s0,80
80004e56:	da2e                	sw	a1,52(sp)
80004e58:	3b55                	jal	80004c0c <__exponent>
80004e5a:	5762                	lw	a4,56(sp)
80004e5c:	4685                	li	a3,1
80004e5e:	8b2a                	mv	s6,a0
80004e60:	00a707b3          	add	a5,a4,a0
80004e64:	c81c                	sw	a5,16(s0)
80004e66:	00e6c563          	blt	a3,a4,80004e70 <_printf_float+0x1d8>
80004e6a:	4018                	lw	a4,0(s0)
80004e6c:	8b05                	andi	a4,a4,1
80004e6e:	c319                	beqz	a4,80004e74 <_printf_float+0x1dc>
80004e70:	0785                	addi	a5,a5,1
80004e72:	c81c                	sw	a5,16(s0)
80004e74:	03314783          	lbu	a5,51(sp)
80004e78:	f00783e3          	beqz	a5,80004d7e <_printf_float+0xe6>
80004e7c:	02d00793          	li	a5,45
80004e80:	04f401a3          	sb	a5,67(s0)
80004e84:	bded                	j	80004d7e <_printf_float+0xe6>
80004e86:	04700713          	li	a4,71
80004e8a:	f6ed1fe3          	bne	s10,a4,80004e08 <_printf_float+0x170>
80004e8e:	ffad                	bnez	a5,80004e08 <_printf_float+0x170>
80004e90:	4785                	li	a5,1
80004e92:	bf95                	j	80004e06 <_printf_float+0x16e>
80004e94:	06600793          	li	a5,102
80004e98:	02fa1b63          	bne	s4,a5,80004ece <_printf_float+0x236>
80004e9c:	405c                	lw	a5,4(s0)
80004e9e:	00b05b63          	blez	a1,80004eb4 <_printf_float+0x21c>
80004ea2:	c80c                	sw	a1,16(s0)
80004ea4:	e781                	bnez	a5,80004eac <_printf_float+0x214>
80004ea6:	4018                	lw	a4,0(s0)
80004ea8:	8b05                	andi	a4,a4,1
80004eaa:	cf09                	beqz	a4,80004ec4 <_printf_float+0x22c>
80004eac:	0785                	addi	a5,a5,1
80004eae:	97ae                	add	a5,a5,a1
80004eb0:	c81c                	sw	a5,16(s0)
80004eb2:	a809                	j	80004ec4 <_printf_float+0x22c>
80004eb4:	e789                	bnez	a5,80004ebe <_printf_float+0x226>
80004eb6:	4018                	lw	a4,0(s0)
80004eb8:	4685                	li	a3,1
80004eba:	8b05                	andi	a4,a4,1
80004ebc:	c319                	beqz	a4,80004ec2 <_printf_float+0x22a>
80004ebe:	00278693          	addi	a3,a5,2
80004ec2:	c814                	sw	a3,16(s0)
80004ec4:	cc2c                	sw	a1,88(s0)
80004ec6:	4b01                	li	s6,0
80004ec8:	b775                	j	80004e74 <_printf_float+0x1dc>
80004eca:	06700a13          	li	s4,103
80004ece:	57e2                	lw	a5,56(sp)
80004ed0:	00f5c963          	blt	a1,a5,80004ee2 <_printf_float+0x24a>
80004ed4:	401c                	lw	a5,0(s0)
80004ed6:	c80c                	sw	a1,16(s0)
80004ed8:	8b85                	andi	a5,a5,1
80004eda:	d7ed                	beqz	a5,80004ec4 <_printf_float+0x22c>
80004edc:	00158793          	addi	a5,a1,1
80004ee0:	bfc1                	j	80004eb0 <_printf_float+0x218>
80004ee2:	4705                	li	a4,1
80004ee4:	00b04463          	bgtz	a1,80004eec <_printf_float+0x254>
80004ee8:	4709                	li	a4,2
80004eea:	8f0d                	sub	a4,a4,a1
80004eec:	97ba                	add	a5,a5,a4
80004eee:	b7c9                	j	80004eb0 <_printf_float+0x218>
80004ef0:	401c                	lw	a5,0(s0)
80004ef2:	4007f713          	andi	a4,a5,1024
80004ef6:	e315                	bnez	a4,80004f1a <_printf_float+0x282>
80004ef8:	4814                	lw	a3,16(s0)
80004efa:	8656                	mv	a2,s5
80004efc:	85ca                	mv	a1,s2
80004efe:	8526                	mv	a0,s1
80004f00:	9982                	jalr	s3
80004f02:	e99507e3          	beq	a0,s9,80004d90 <_printf_float+0xf8>
80004f06:	401c                	lw	a5,0(s0)
80004f08:	8b89                	andi	a5,a5,2
80004f0a:	24079663          	bnez	a5,80005156 <_printf_float+0x4be>
80004f0e:	57f2                	lw	a5,60(sp)
80004f10:	4448                	lw	a0,12(s0)
80004f12:	e8f550e3          	bge	a0,a5,80004d92 <_printf_float+0xfa>
80004f16:	853e                	mv	a0,a5
80004f18:	bdad                	j	80004d92 <_printf_float+0xfa>
80004f1a:	06500713          	li	a4,101
80004f1e:	19477b63          	bgeu	a4,s4,800050b4 <_printf_float+0x41c>
80004f22:	4428                	lw	a0,72(s0)
80004f24:	446c                	lw	a1,76(s0)
80004f26:	4601                	li	a2,0
80004f28:	4681                	li	a3,0
80004f2a:	280030ef          	jal	ra,800081aa <__eqdf2>
80004f2e:	e939                	bnez	a0,80004f84 <_printf_float+0x2ec>
80004f30:	4685                	li	a3,1
80004f32:	0fffc617          	auipc	a2,0xfffc
80004f36:	81660613          	addi	a2,a2,-2026 # 90000748 <__clz_tab+0x118>
80004f3a:	85ca                	mv	a1,s2
80004f3c:	8526                	mv	a0,s1
80004f3e:	9982                	jalr	s3
80004f40:	e59508e3          	beq	a0,s9,80004d90 <_printf_float+0xf8>
80004f44:	5752                	lw	a4,52(sp)
80004f46:	57e2                	lw	a5,56(sp)
80004f48:	00f74563          	blt	a4,a5,80004f52 <_printf_float+0x2ba>
80004f4c:	401c                	lw	a5,0(s0)
80004f4e:	8b85                	andi	a5,a5,1
80004f50:	dbdd                	beqz	a5,80004f06 <_printf_float+0x26e>
80004f52:	86e2                	mv	a3,s8
80004f54:	865e                	mv	a2,s7
80004f56:	85ca                	mv	a1,s2
80004f58:	8526                	mv	a0,s1
80004f5a:	9982                	jalr	s3
80004f5c:	57fd                	li	a5,-1
80004f5e:	e2f509e3          	beq	a0,a5,80004d90 <_printf_float+0xf8>
80004f62:	4a01                	li	s4,0
80004f64:	01a40a93          	addi	s5,s0,26
80004f68:	5b7d                	li	s6,-1
80004f6a:	57e2                	lw	a5,56(sp)
80004f6c:	17fd                	addi	a5,a5,-1
80004f6e:	f8fa5ce3          	bge	s4,a5,80004f06 <_printf_float+0x26e>
80004f72:	4685                	li	a3,1
80004f74:	8656                	mv	a2,s5
80004f76:	85ca                	mv	a1,s2
80004f78:	8526                	mv	a0,s1
80004f7a:	9982                	jalr	s3
80004f7c:	e1650ae3          	beq	a0,s6,80004d90 <_printf_float+0xf8>
80004f80:	0a05                	addi	s4,s4,1
80004f82:	b7e5                	j	80004f6a <_printf_float+0x2d2>
80004f84:	57d2                	lw	a5,52(sp)
80004f86:	06f04663          	bgtz	a5,80004ff2 <_printf_float+0x35a>
80004f8a:	4685                	li	a3,1
80004f8c:	0fffb617          	auipc	a2,0xfffb
80004f90:	7bc60613          	addi	a2,a2,1980 # 90000748 <__clz_tab+0x118>
80004f94:	85ca                	mv	a1,s2
80004f96:	8526                	mv	a0,s1
80004f98:	9982                	jalr	s3
80004f9a:	df950be3          	beq	a0,s9,80004d90 <_printf_float+0xf8>
80004f9e:	57d2                	lw	a5,52(sp)
80004fa0:	5762                	lw	a4,56(sp)
80004fa2:	8fd9                	or	a5,a5,a4
80004fa4:	e781                	bnez	a5,80004fac <_printf_float+0x314>
80004fa6:	401c                	lw	a5,0(s0)
80004fa8:	8b85                	andi	a5,a5,1
80004faa:	dfb1                	beqz	a5,80004f06 <_printf_float+0x26e>
80004fac:	86e2                	mv	a3,s8
80004fae:	865e                	mv	a2,s7
80004fb0:	85ca                	mv	a1,s2
80004fb2:	8526                	mv	a0,s1
80004fb4:	9982                	jalr	s3
80004fb6:	57fd                	li	a5,-1
80004fb8:	dcf50ce3          	beq	a0,a5,80004d90 <_printf_float+0xf8>
80004fbc:	4a01                	li	s4,0
80004fbe:	01a40b13          	addi	s6,s0,26
80004fc2:	5bfd                	li	s7,-1
80004fc4:	57d2                	lw	a5,52(sp)
80004fc6:	40f007b3          	neg	a5,a5
80004fca:	00fa4b63          	blt	s4,a5,80004fe0 <_printf_float+0x348>
80004fce:	56e2                	lw	a3,56(sp)
80004fd0:	8656                	mv	a2,s5
80004fd2:	85ca                	mv	a1,s2
80004fd4:	8526                	mv	a0,s1
80004fd6:	9982                	jalr	s3
80004fd8:	57fd                	li	a5,-1
80004fda:	f2f516e3          	bne	a0,a5,80004f06 <_printf_float+0x26e>
80004fde:	bb4d                	j	80004d90 <_printf_float+0xf8>
80004fe0:	4685                	li	a3,1
80004fe2:	865a                	mv	a2,s6
80004fe4:	85ca                	mv	a1,s2
80004fe6:	8526                	mv	a0,s1
80004fe8:	9982                	jalr	s3
80004fea:	db7503e3          	beq	a0,s7,80004d90 <_printf_float+0xf8>
80004fee:	0a05                	addi	s4,s4,1
80004ff0:	bfd1                	j	80004fc4 <_printf_float+0x32c>
80004ff2:	4c3c                	lw	a5,88(s0)
80004ff4:	5a62                	lw	s4,56(sp)
80004ff6:	0147d363          	bge	a5,s4,80004ffc <_printf_float+0x364>
80004ffa:	8a3e                	mv	s4,a5
80004ffc:	01405a63          	blez	s4,80005010 <_printf_float+0x378>
80005000:	86d2                	mv	a3,s4
80005002:	8656                	mv	a2,s5
80005004:	85ca                	mv	a1,s2
80005006:	8526                	mv	a0,s1
80005008:	9982                	jalr	s3
8000500a:	57fd                	li	a5,-1
8000500c:	d8f502e3          	beq	a0,a5,80004d90 <_printf_float+0xf8>
80005010:	4c81                	li	s9,0
80005012:	01a40d13          	addi	s10,s0,26
80005016:	5dfd                	li	s11,-1
80005018:	a809                	j	8000502a <_printf_float+0x392>
8000501a:	4685                	li	a3,1
8000501c:	866a                	mv	a2,s10
8000501e:	85ca                	mv	a1,s2
80005020:	8526                	mv	a0,s1
80005022:	9982                	jalr	s3
80005024:	d7b506e3          	beq	a0,s11,80004d90 <_printf_float+0xf8>
80005028:	0c85                	addi	s9,s9,1
8000502a:	05842b03          	lw	s6,88(s0)
8000502e:	87d2                	mv	a5,s4
80005030:	000a5363          	bgez	s4,80005036 <_printf_float+0x39e>
80005034:	4781                	li	a5,0
80005036:	40fb07b3          	sub	a5,s6,a5
8000503a:	fefcc0e3          	blt	s9,a5,8000501a <_printf_float+0x382>
8000503e:	5752                	lw	a4,52(sp)
80005040:	57e2                	lw	a5,56(sp)
80005042:	02f74d63          	blt	a4,a5,8000507c <_printf_float+0x3e4>
80005046:	401c                	lw	a5,0(s0)
80005048:	8b85                	andi	a5,a5,1
8000504a:	eb8d                	bnez	a5,8000507c <_printf_float+0x3e4>
8000504c:	57e2                	lw	a5,56(sp)
8000504e:	5752                	lw	a4,52(sp)
80005050:	40e78a33          	sub	s4,a5,a4
80005054:	00eb4463          	blt	s6,a4,8000505c <_printf_float+0x3c4>
80005058:	41678a33          	sub	s4,a5,s6
8000505c:	01405b63          	blez	s4,80005072 <_printf_float+0x3da>
80005060:	86d2                	mv	a3,s4
80005062:	016a8633          	add	a2,s5,s6
80005066:	85ca                	mv	a1,s2
80005068:	8526                	mv	a0,s1
8000506a:	9982                	jalr	s3
8000506c:	57fd                	li	a5,-1
8000506e:	d2f501e3          	beq	a0,a5,80004d90 <_printf_float+0xf8>
80005072:	4a81                	li	s5,0
80005074:	01a40b13          	addi	s6,s0,26
80005078:	5bfd                	li	s7,-1
8000507a:	a015                	j	8000509e <_printf_float+0x406>
8000507c:	86e2                	mv	a3,s8
8000507e:	865e                	mv	a2,s7
80005080:	85ca                	mv	a1,s2
80005082:	8526                	mv	a0,s1
80005084:	9982                	jalr	s3
80005086:	57fd                	li	a5,-1
80005088:	fcf512e3          	bne	a0,a5,8000504c <_printf_float+0x3b4>
8000508c:	b311                	j	80004d90 <_printf_float+0xf8>
8000508e:	4685                	li	a3,1
80005090:	865a                	mv	a2,s6
80005092:	85ca                	mv	a1,s2
80005094:	8526                	mv	a0,s1
80005096:	9982                	jalr	s3
80005098:	cf750ce3          	beq	a0,s7,80004d90 <_printf_float+0xf8>
8000509c:	0a85                	addi	s5,s5,1
8000509e:	5752                	lw	a4,52(sp)
800050a0:	57e2                	lw	a5,56(sp)
800050a2:	8f99                	sub	a5,a5,a4
800050a4:	8752                	mv	a4,s4
800050a6:	000a5363          	bgez	s4,800050ac <_printf_float+0x414>
800050aa:	4701                	li	a4,0
800050ac:	8f99                	sub	a5,a5,a4
800050ae:	fefac0e3          	blt	s5,a5,8000508e <_printf_float+0x3f6>
800050b2:	bd91                	j	80004f06 <_printf_float+0x26e>
800050b4:	56e2                	lw	a3,56(sp)
800050b6:	4705                	li	a4,1
800050b8:	00d74463          	blt	a4,a3,800050c0 <_printf_float+0x428>
800050bc:	8b85                	andi	a5,a5,1
800050be:	c7b5                	beqz	a5,8000512a <_printf_float+0x492>
800050c0:	4685                	li	a3,1
800050c2:	8656                	mv	a2,s5
800050c4:	85ca                	mv	a1,s2
800050c6:	8526                	mv	a0,s1
800050c8:	9982                	jalr	s3
800050ca:	5a7d                	li	s4,-1
800050cc:	cd4502e3          	beq	a0,s4,80004d90 <_printf_float+0xf8>
800050d0:	86e2                	mv	a3,s8
800050d2:	865e                	mv	a2,s7
800050d4:	85ca                	mv	a1,s2
800050d6:	8526                	mv	a0,s1
800050d8:	9982                	jalr	s3
800050da:	cb450be3          	beq	a0,s4,80004d90 <_printf_float+0xf8>
800050de:	4428                	lw	a0,72(s0)
800050e0:	446c                	lw	a1,76(s0)
800050e2:	4601                	li	a2,0
800050e4:	4681                	li	a3,0
800050e6:	0c4030ef          	jal	ra,800081aa <__eqdf2>
800050ea:	c91d                	beqz	a0,80005120 <_printf_float+0x488>
800050ec:	56e2                	lw	a3,56(sp)
800050ee:	001a8613          	addi	a2,s5,1
800050f2:	85ca                	mv	a1,s2
800050f4:	16fd                	addi	a3,a3,-1
800050f6:	8526                	mv	a0,s1
800050f8:	9982                	jalr	s3
800050fa:	c9450be3          	beq	a0,s4,80004d90 <_printf_float+0xf8>
800050fe:	86da                	mv	a3,s6
80005100:	05040613          	addi	a2,s0,80
80005104:	b5f9                	j	80004fd2 <_printf_float+0x33a>
80005106:	4685                	li	a3,1
80005108:	8656                	mv	a2,s5
8000510a:	85ca                	mv	a1,s2
8000510c:	8526                	mv	a0,s1
8000510e:	9982                	jalr	s3
80005110:	c97500e3          	beq	a0,s7,80004d90 <_printf_float+0xf8>
80005114:	0a05                	addi	s4,s4,1
80005116:	57e2                	lw	a5,56(sp)
80005118:	17fd                	addi	a5,a5,-1
8000511a:	fefa46e3          	blt	s4,a5,80005106 <_printf_float+0x46e>
8000511e:	b7c5                	j	800050fe <_printf_float+0x466>
80005120:	4a01                	li	s4,0
80005122:	01a40a93          	addi	s5,s0,26
80005126:	5bfd                	li	s7,-1
80005128:	b7fd                	j	80005116 <_printf_float+0x47e>
8000512a:	4685                	li	a3,1
8000512c:	8656                	mv	a2,s5
8000512e:	85ca                	mv	a1,s2
80005130:	8526                	mv	a0,s1
80005132:	9982                	jalr	s3
80005134:	fd9515e3          	bne	a0,s9,800050fe <_printf_float+0x466>
80005138:	b9a1                	j	80004d90 <_printf_float+0xf8>
8000513a:	4685                	li	a3,1
8000513c:	8656                	mv	a2,s5
8000513e:	85ca                	mv	a1,s2
80005140:	8526                	mv	a0,s1
80005142:	9982                	jalr	s3
80005144:	c56506e3          	beq	a0,s6,80004d90 <_printf_float+0xf8>
80005148:	0a05                	addi	s4,s4,1
8000514a:	445c                	lw	a5,12(s0)
8000514c:	5772                	lw	a4,60(sp)
8000514e:	8f99                	sub	a5,a5,a4
80005150:	fefa45e3          	blt	s4,a5,8000513a <_printf_float+0x4a2>
80005154:	bb6d                	j	80004f0e <_printf_float+0x276>
80005156:	4a01                	li	s4,0
80005158:	01940a93          	addi	s5,s0,25
8000515c:	5b7d                	li	s6,-1
8000515e:	b7f5                	j	8000514a <_printf_float+0x4b2>

80005160 <_printf_common>:
80005160:	7179                	addi	sp,sp,-48
80005162:	ca56                	sw	s5,20(sp)
80005164:	499c                	lw	a5,16(a1)
80005166:	8aba                	mv	s5,a4
80005168:	4598                	lw	a4,8(a1)
8000516a:	d422                	sw	s0,40(sp)
8000516c:	d226                	sw	s1,36(sp)
8000516e:	ce4e                	sw	s3,28(sp)
80005170:	cc52                	sw	s4,24(sp)
80005172:	d606                	sw	ra,44(sp)
80005174:	d04a                	sw	s2,32(sp)
80005176:	c85a                	sw	s6,16(sp)
80005178:	c65e                	sw	s7,12(sp)
8000517a:	89aa                	mv	s3,a0
8000517c:	842e                	mv	s0,a1
8000517e:	84b2                	mv	s1,a2
80005180:	8a36                	mv	s4,a3
80005182:	00e7d363          	bge	a5,a4,80005188 <_printf_common+0x28>
80005186:	87ba                	mv	a5,a4
80005188:	c09c                	sw	a5,0(s1)
8000518a:	04344703          	lbu	a4,67(s0)
8000518e:	c319                	beqz	a4,80005194 <_printf_common+0x34>
80005190:	0785                	addi	a5,a5,1
80005192:	c09c                	sw	a5,0(s1)
80005194:	401c                	lw	a5,0(s0)
80005196:	0207f793          	andi	a5,a5,32
8000519a:	c781                	beqz	a5,800051a2 <_printf_common+0x42>
8000519c:	409c                	lw	a5,0(s1)
8000519e:	0789                	addi	a5,a5,2
800051a0:	c09c                	sw	a5,0(s1)
800051a2:	00042903          	lw	s2,0(s0)
800051a6:	00697913          	andi	s2,s2,6
800051aa:	00091a63          	bnez	s2,800051be <_printf_common+0x5e>
800051ae:	01940b13          	addi	s6,s0,25
800051b2:	5bfd                	li	s7,-1
800051b4:	445c                	lw	a5,12(s0)
800051b6:	4098                	lw	a4,0(s1)
800051b8:	8f99                	sub	a5,a5,a4
800051ba:	04f94c63          	blt	s2,a5,80005212 <_printf_common+0xb2>
800051be:	401c                	lw	a5,0(s0)
800051c0:	04344683          	lbu	a3,67(s0)
800051c4:	0207f793          	andi	a5,a5,32
800051c8:	00d036b3          	snez	a3,a3
800051cc:	eba5                	bnez	a5,8000523c <_printf_common+0xdc>
800051ce:	04340613          	addi	a2,s0,67
800051d2:	85d2                	mv	a1,s4
800051d4:	854e                	mv	a0,s3
800051d6:	9a82                	jalr	s5
800051d8:	57fd                	li	a5,-1
800051da:	04f50363          	beq	a0,a5,80005220 <_printf_common+0xc0>
800051de:	401c                	lw	a5,0(s0)
800051e0:	4611                	li	a2,4
800051e2:	4098                	lw	a4,0(s1)
800051e4:	8b99                	andi	a5,a5,6
800051e6:	4454                	lw	a3,12(s0)
800051e8:	4481                	li	s1,0
800051ea:	00c79763          	bne	a5,a2,800051f8 <_printf_common+0x98>
800051ee:	40e684b3          	sub	s1,a3,a4
800051f2:	0004d363          	bgez	s1,800051f8 <_printf_common+0x98>
800051f6:	4481                	li	s1,0
800051f8:	441c                	lw	a5,8(s0)
800051fa:	4818                	lw	a4,16(s0)
800051fc:	00f75463          	bge	a4,a5,80005204 <_printf_common+0xa4>
80005200:	8f99                	sub	a5,a5,a4
80005202:	94be                	add	s1,s1,a5
80005204:	4901                	li	s2,0
80005206:	0469                	addi	s0,s0,26
80005208:	5b7d                	li	s6,-1
8000520a:	05249863          	bne	s1,s2,8000525a <_printf_common+0xfa>
8000520e:	4501                	li	a0,0
80005210:	a809                	j	80005222 <_printf_common+0xc2>
80005212:	4685                	li	a3,1
80005214:	865a                	mv	a2,s6
80005216:	85d2                	mv	a1,s4
80005218:	854e                	mv	a0,s3
8000521a:	9a82                	jalr	s5
8000521c:	01751e63          	bne	a0,s7,80005238 <_printf_common+0xd8>
80005220:	557d                	li	a0,-1
80005222:	50b2                	lw	ra,44(sp)
80005224:	5422                	lw	s0,40(sp)
80005226:	5492                	lw	s1,36(sp)
80005228:	5902                	lw	s2,32(sp)
8000522a:	49f2                	lw	s3,28(sp)
8000522c:	4a62                	lw	s4,24(sp)
8000522e:	4ad2                	lw	s5,20(sp)
80005230:	4b42                	lw	s6,16(sp)
80005232:	4bb2                	lw	s7,12(sp)
80005234:	6145                	addi	sp,sp,48
80005236:	8082                	ret
80005238:	0905                	addi	s2,s2,1
8000523a:	bfad                	j	800051b4 <_printf_common+0x54>
8000523c:	00d40733          	add	a4,s0,a3
80005240:	03000613          	li	a2,48
80005244:	04c701a3          	sb	a2,67(a4)
80005248:	04544703          	lbu	a4,69(s0)
8000524c:	00168793          	addi	a5,a3,1
80005250:	97a2                	add	a5,a5,s0
80005252:	0689                	addi	a3,a3,2
80005254:	04e781a3          	sb	a4,67(a5)
80005258:	bf9d                	j	800051ce <_printf_common+0x6e>
8000525a:	4685                	li	a3,1
8000525c:	8622                	mv	a2,s0
8000525e:	85d2                	mv	a1,s4
80005260:	854e                	mv	a0,s3
80005262:	9a82                	jalr	s5
80005264:	fb650ee3          	beq	a0,s6,80005220 <_printf_common+0xc0>
80005268:	0905                	addi	s2,s2,1
8000526a:	b745                	j	8000520a <_printf_common+0xaa>

8000526c <_printf_i>:
8000526c:	7179                	addi	sp,sp,-48
8000526e:	d422                	sw	s0,40(sp)
80005270:	d226                	sw	s1,36(sp)
80005272:	d04a                	sw	s2,32(sp)
80005274:	ce4e                	sw	s3,28(sp)
80005276:	d606                	sw	ra,44(sp)
80005278:	cc52                	sw	s4,24(sp)
8000527a:	ca56                	sw	s5,20(sp)
8000527c:	c85a                	sw	s6,16(sp)
8000527e:	89b6                	mv	s3,a3
80005280:	0185c683          	lbu	a3,24(a1)
80005284:	06e00793          	li	a5,110
80005288:	8932                	mv	s2,a2
8000528a:	84aa                	mv	s1,a0
8000528c:	842e                	mv	s0,a1
8000528e:	04358613          	addi	a2,a1,67
80005292:	1ef68063          	beq	a3,a5,80005472 <_printf_i+0x206>
80005296:	06d7e263          	bltu	a5,a3,800052fa <_printf_i+0x8e>
8000529a:	06300793          	li	a5,99
8000529e:	0af68263          	beq	a3,a5,80005342 <_printf_i+0xd6>
800052a2:	00d7ed63          	bltu	a5,a3,800052bc <_printf_i+0x50>
800052a6:	1e068a63          	beqz	a3,8000549a <_printf_i+0x22e>
800052aa:	05800793          	li	a5,88
800052ae:	16f68663          	beq	a3,a5,8000541a <_printf_i+0x1ae>
800052b2:	04240a93          	addi	s5,s0,66
800052b6:	04d40123          	sb	a3,66(s0)
800052ba:	a869                	j	80005354 <_printf_i+0xe8>
800052bc:	06400793          	li	a5,100
800052c0:	00f68663          	beq	a3,a5,800052cc <_printf_i+0x60>
800052c4:	06900793          	li	a5,105
800052c8:	fef695e3          	bne	a3,a5,800052b2 <_printf_i+0x46>
800052cc:	401c                	lw	a5,0(s0)
800052ce:	4308                	lw	a0,0(a4)
800052d0:	0807f693          	andi	a3,a5,128
800052d4:	00450593          	addi	a1,a0,4
800052d8:	c2c1                	beqz	a3,80005358 <_printf_i+0xec>
800052da:	411c                	lw	a5,0(a0)
800052dc:	c30c                	sw	a1,0(a4)
800052de:	0007d863          	bgez	a5,800052ee <_printf_i+0x82>
800052e2:	02d00713          	li	a4,45
800052e6:	40f007b3          	neg	a5,a5
800052ea:	04e401a3          	sb	a4,67(s0)
800052ee:	0fffb697          	auipc	a3,0xfffb
800052f2:	45e68693          	addi	a3,a3,1118 # 9000074c <__clz_tab+0x11c>
800052f6:	4729                	li	a4,10
800052f8:	a065                	j	800053a0 <_printf_i+0x134>
800052fa:	07300793          	li	a5,115
800052fe:	1af68263          	beq	a3,a5,800054a2 <_printf_i+0x236>
80005302:	00d7ef63          	bltu	a5,a3,80005320 <_printf_i+0xb4>
80005306:	06f00793          	li	a5,111
8000530a:	04f68f63          	beq	a3,a5,80005368 <_printf_i+0xfc>
8000530e:	07000793          	li	a5,112
80005312:	faf690e3          	bne	a3,a5,800052b2 <_printf_i+0x46>
80005316:	419c                	lw	a5,0(a1)
80005318:	0207e793          	ori	a5,a5,32
8000531c:	c19c                	sw	a5,0(a1)
8000531e:	a809                	j	80005330 <_printf_i+0xc4>
80005320:	07500793          	li	a5,117
80005324:	04f68263          	beq	a3,a5,80005368 <_printf_i+0xfc>
80005328:	07800793          	li	a5,120
8000532c:	f8f693e3          	bne	a3,a5,800052b2 <_printf_i+0x46>
80005330:	07800793          	li	a5,120
80005334:	04f402a3          	sb	a5,69(s0)
80005338:	0fffb697          	auipc	a3,0xfffb
8000533c:	42868693          	addi	a3,a3,1064 # 90000760 <__clz_tab+0x130>
80005340:	a0dd                	j	80005426 <_printf_i+0x1ba>
80005342:	431c                	lw	a5,0(a4)
80005344:	04258a93          	addi	s5,a1,66
80005348:	00478693          	addi	a3,a5,4
8000534c:	439c                	lw	a5,0(a5)
8000534e:	c314                	sw	a3,0(a4)
80005350:	04f58123          	sb	a5,66(a1)
80005354:	4785                	li	a5,1
80005356:	a2b5                	j	800054c2 <_printf_i+0x256>
80005358:	0407f693          	andi	a3,a5,64
8000535c:	411c                	lw	a5,0(a0)
8000535e:	c30c                	sw	a1,0(a4)
80005360:	debd                	beqz	a3,800052de <_printf_i+0x72>
80005362:	07c2                	slli	a5,a5,0x10
80005364:	87c1                	srai	a5,a5,0x10
80005366:	bfa5                	j	800052de <_printf_i+0x72>
80005368:	400c                	lw	a1,0(s0)
8000536a:	431c                	lw	a5,0(a4)
8000536c:	0805f813          	andi	a6,a1,128
80005370:	00478513          	addi	a0,a5,4
80005374:	00080563          	beqz	a6,8000537e <_printf_i+0x112>
80005378:	c308                	sw	a0,0(a4)
8000537a:	439c                	lw	a5,0(a5)
8000537c:	a039                	j	8000538a <_printf_i+0x11e>
8000537e:	0405f593          	andi	a1,a1,64
80005382:	c308                	sw	a0,0(a4)
80005384:	d9fd                	beqz	a1,8000537a <_printf_i+0x10e>
80005386:	0007d783          	lhu	a5,0(a5)
8000538a:	06f00713          	li	a4,111
8000538e:	0ce68a63          	beq	a3,a4,80005462 <_printf_i+0x1f6>
80005392:	0fffb697          	auipc	a3,0xfffb
80005396:	3ba68693          	addi	a3,a3,954 # 9000074c <__clz_tab+0x11c>
8000539a:	4729                	li	a4,10
8000539c:	040401a3          	sb	zero,67(s0)
800053a0:	404c                	lw	a1,4(s0)
800053a2:	c40c                	sw	a1,8(s0)
800053a4:	0005c563          	bltz	a1,800053ae <_printf_i+0x142>
800053a8:	4008                	lw	a0,0(s0)
800053aa:	996d                	andi	a0,a0,-5
800053ac:	c008                	sw	a0,0(s0)
800053ae:	e399                	bnez	a5,800053b4 <_printf_i+0x148>
800053b0:	8ab2                	mv	s5,a2
800053b2:	cd91                	beqz	a1,800053ce <_printf_i+0x162>
800053b4:	8ab2                	mv	s5,a2
800053b6:	02e7f5b3          	remu	a1,a5,a4
800053ba:	1afd                	addi	s5,s5,-1
800053bc:	95b6                	add	a1,a1,a3
800053be:	0005c583          	lbu	a1,0(a1)
800053c2:	00ba8023          	sb	a1,0(s5)
800053c6:	02e7d5b3          	divu	a1,a5,a4
800053ca:	0ae7f263          	bgeu	a5,a4,8000546e <_printf_i+0x202>
800053ce:	47a1                	li	a5,8
800053d0:	00f71e63          	bne	a4,a5,800053ec <_printf_i+0x180>
800053d4:	401c                	lw	a5,0(s0)
800053d6:	8b85                	andi	a5,a5,1
800053d8:	cb91                	beqz	a5,800053ec <_printf_i+0x180>
800053da:	4058                	lw	a4,4(s0)
800053dc:	481c                	lw	a5,16(s0)
800053de:	00e7c763          	blt	a5,a4,800053ec <_printf_i+0x180>
800053e2:	03000793          	li	a5,48
800053e6:	fefa8fa3          	sb	a5,-1(s5)
800053ea:	1afd                	addi	s5,s5,-1
800053ec:	41560633          	sub	a2,a2,s5
800053f0:	c810                	sw	a2,16(s0)
800053f2:	874e                	mv	a4,s3
800053f4:	86ca                	mv	a3,s2
800053f6:	0070                	addi	a2,sp,12
800053f8:	85a2                	mv	a1,s0
800053fa:	8526                	mv	a0,s1
800053fc:	3395                	jal	80005160 <_printf_common>
800053fe:	5a7d                	li	s4,-1
80005400:	0d451563          	bne	a0,s4,800054ca <_printf_i+0x25e>
80005404:	557d                	li	a0,-1
80005406:	50b2                	lw	ra,44(sp)
80005408:	5422                	lw	s0,40(sp)
8000540a:	5492                	lw	s1,36(sp)
8000540c:	5902                	lw	s2,32(sp)
8000540e:	49f2                	lw	s3,28(sp)
80005410:	4a62                	lw	s4,24(sp)
80005412:	4ad2                	lw	s5,20(sp)
80005414:	4b42                	lw	s6,16(sp)
80005416:	6145                	addi	sp,sp,48
80005418:	8082                	ret
8000541a:	04d582a3          	sb	a3,69(a1)
8000541e:	0fffb697          	auipc	a3,0xfffb
80005422:	32e68693          	addi	a3,a3,814 # 9000074c <__clz_tab+0x11c>
80005426:	400c                	lw	a1,0(s0)
80005428:	4308                	lw	a0,0(a4)
8000542a:	0805f813          	andi	a6,a1,128
8000542e:	411c                	lw	a5,0(a0)
80005430:	0511                	addi	a0,a0,4
80005432:	02080063          	beqz	a6,80005452 <_printf_i+0x1e6>
80005436:	c308                	sw	a0,0(a4)
80005438:	0015f713          	andi	a4,a1,1
8000543c:	c701                	beqz	a4,80005444 <_printf_i+0x1d8>
8000543e:	0205e593          	ori	a1,a1,32
80005442:	c00c                	sw	a1,0(s0)
80005444:	4741                	li	a4,16
80005446:	fbb9                	bnez	a5,8000539c <_printf_i+0x130>
80005448:	400c                	lw	a1,0(s0)
8000544a:	fdf5f593          	andi	a1,a1,-33
8000544e:	c00c                	sw	a1,0(s0)
80005450:	b7b1                	j	8000539c <_printf_i+0x130>
80005452:	0405f813          	andi	a6,a1,64
80005456:	c308                	sw	a0,0(a4)
80005458:	fe0800e3          	beqz	a6,80005438 <_printf_i+0x1cc>
8000545c:	07c2                	slli	a5,a5,0x10
8000545e:	83c1                	srli	a5,a5,0x10
80005460:	bfe1                	j	80005438 <_printf_i+0x1cc>
80005462:	0fffb697          	auipc	a3,0xfffb
80005466:	2ea68693          	addi	a3,a3,746 # 9000074c <__clz_tab+0x11c>
8000546a:	4721                	li	a4,8
8000546c:	bf05                	j	8000539c <_printf_i+0x130>
8000546e:	87ae                	mv	a5,a1
80005470:	b799                	j	800053b6 <_printf_i+0x14a>
80005472:	4194                	lw	a3,0(a1)
80005474:	431c                	lw	a5,0(a4)
80005476:	49cc                	lw	a1,20(a1)
80005478:	0806f813          	andi	a6,a3,128
8000547c:	00478513          	addi	a0,a5,4
80005480:	00080663          	beqz	a6,8000548c <_printf_i+0x220>
80005484:	c308                	sw	a0,0(a4)
80005486:	439c                	lw	a5,0(a5)
80005488:	c38c                	sw	a1,0(a5)
8000548a:	a801                	j	8000549a <_printf_i+0x22e>
8000548c:	c308                	sw	a0,0(a4)
8000548e:	0406f693          	andi	a3,a3,64
80005492:	439c                	lw	a5,0(a5)
80005494:	daf5                	beqz	a3,80005488 <_printf_i+0x21c>
80005496:	00b79023          	sh	a1,0(a5)
8000549a:	00042823          	sw	zero,16(s0)
8000549e:	8ab2                	mv	s5,a2
800054a0:	bf89                	j	800053f2 <_printf_i+0x186>
800054a2:	431c                	lw	a5,0(a4)
800054a4:	41d0                	lw	a2,4(a1)
800054a6:	4581                	li	a1,0
800054a8:	00478693          	addi	a3,a5,4
800054ac:	c314                	sw	a3,0(a4)
800054ae:	0007aa83          	lw	s5,0(a5)
800054b2:	8556                	mv	a0,s5
800054b4:	75a010ef          	jal	ra,80006c0e <memchr>
800054b8:	c501                	beqz	a0,800054c0 <_printf_i+0x254>
800054ba:	41550533          	sub	a0,a0,s5
800054be:	c048                	sw	a0,4(s0)
800054c0:	405c                	lw	a5,4(s0)
800054c2:	c81c                	sw	a5,16(s0)
800054c4:	040401a3          	sb	zero,67(s0)
800054c8:	b72d                	j	800053f2 <_printf_i+0x186>
800054ca:	4814                	lw	a3,16(s0)
800054cc:	8656                	mv	a2,s5
800054ce:	85ca                	mv	a1,s2
800054d0:	8526                	mv	a0,s1
800054d2:	9982                	jalr	s3
800054d4:	f34508e3          	beq	a0,s4,80005404 <_printf_i+0x198>
800054d8:	401c                	lw	a5,0(s0)
800054da:	8b89                	andi	a5,a5,2
800054dc:	e78d                	bnez	a5,80005506 <_printf_i+0x29a>
800054de:	47b2                	lw	a5,12(sp)
800054e0:	4448                	lw	a0,12(s0)
800054e2:	f2f552e3          	bge	a0,a5,80005406 <_printf_i+0x19a>
800054e6:	853e                	mv	a0,a5
800054e8:	bf39                	j	80005406 <_printf_i+0x19a>
800054ea:	4685                	li	a3,1
800054ec:	8656                	mv	a2,s5
800054ee:	85ca                	mv	a1,s2
800054f0:	8526                	mv	a0,s1
800054f2:	9982                	jalr	s3
800054f4:	f16508e3          	beq	a0,s6,80005404 <_printf_i+0x198>
800054f8:	0a05                	addi	s4,s4,1
800054fa:	445c                	lw	a5,12(s0)
800054fc:	4732                	lw	a4,12(sp)
800054fe:	8f99                	sub	a5,a5,a4
80005500:	fefa45e3          	blt	s4,a5,800054ea <_printf_i+0x27e>
80005504:	bfe9                	j	800054de <_printf_i+0x272>
80005506:	4a01                	li	s4,0
80005508:	01940a93          	addi	s5,s0,25
8000550c:	5b7d                	li	s6,-1
8000550e:	b7f5                	j	800054fa <_printf_i+0x28e>

80005510 <iprintf>:
80005510:	7139                	addi	sp,sp,-64
80005512:	da3e                	sw	a5,52(sp)
80005514:	d22e                	sw	a1,36(sp)
80005516:	d432                	sw	a2,40(sp)
80005518:	d636                	sw	a3,44(sp)
8000551a:	d83a                	sw	a4,48(sp)
8000551c:	dc42                	sw	a6,56(sp)
8000551e:	de46                	sw	a7,60(sp)
80005520:	80c18793          	addi	a5,gp,-2036 # 90000c5c <_impure_ptr>
80005524:	cc22                	sw	s0,24(sp)
80005526:	4380                	lw	s0,0(a5)
80005528:	ca26                	sw	s1,20(sp)
8000552a:	ce06                	sw	ra,28(sp)
8000552c:	84aa                	mv	s1,a0
8000552e:	c411                	beqz	s0,8000553a <iprintf+0x2a>
80005530:	4c1c                	lw	a5,24(s0)
80005532:	e781                	bnez	a5,8000553a <iprintf+0x2a>
80005534:	8522                	mv	a0,s0
80005536:	454010ef          	jal	ra,8000698a <__sinit>
8000553a:	440c                	lw	a1,8(s0)
8000553c:	1054                	addi	a3,sp,36
8000553e:	8626                	mv	a2,s1
80005540:	8522                	mv	a0,s0
80005542:	c636                	sw	a3,12(sp)
80005544:	7f3010ef          	jal	ra,80007536 <_vfiprintf_r>
80005548:	40f2                	lw	ra,28(sp)
8000554a:	4462                	lw	s0,24(sp)
8000554c:	44d2                	lw	s1,20(sp)
8000554e:	6121                	addi	sp,sp,64
80005550:	8082                	ret

80005552 <putchar>:
80005552:	1101                	addi	sp,sp,-32
80005554:	80c18793          	addi	a5,gp,-2036 # 90000c5c <_impure_ptr>
80005558:	cc22                	sw	s0,24(sp)
8000555a:	4380                	lw	s0,0(a5)
8000555c:	ce06                	sw	ra,28(sp)
8000555e:	85aa                	mv	a1,a0
80005560:	c801                	beqz	s0,80005570 <putchar+0x1e>
80005562:	4c1c                	lw	a5,24(s0)
80005564:	e791                	bnez	a5,80005570 <putchar+0x1e>
80005566:	c62a                	sw	a0,12(sp)
80005568:	8522                	mv	a0,s0
8000556a:	420010ef          	jal	ra,8000698a <__sinit>
8000556e:	45b2                	lw	a1,12(sp)
80005570:	4410                	lw	a2,8(s0)
80005572:	8522                	mv	a0,s0
80005574:	4462                	lw	s0,24(sp)
80005576:	40f2                	lw	ra,28(sp)
80005578:	6105                	addi	sp,sp,32
8000557a:	25a0206f          	j	800077d4 <_putc_r>

8000557e <_puts_r>:
8000557e:	1101                	addi	sp,sp,-32
80005580:	ca26                	sw	s1,20(sp)
80005582:	c84a                	sw	s2,16(sp)
80005584:	ce06                	sw	ra,28(sp)
80005586:	cc22                	sw	s0,24(sp)
80005588:	c64e                	sw	s3,12(sp)
8000558a:	c452                	sw	s4,8(sp)
8000558c:	84aa                	mv	s1,a0
8000558e:	892e                	mv	s2,a1
80005590:	c509                	beqz	a0,8000559a <_puts_r+0x1c>
80005592:	4d1c                	lw	a5,24(a0)
80005594:	e399                	bnez	a5,8000559a <_puts_r+0x1c>
80005596:	3f4010ef          	jal	ra,8000698a <__sinit>
8000559a:	4c9c                	lw	a5,24(s1)
8000559c:	4480                	lw	s0,8(s1)
8000559e:	e781                	bnez	a5,800055a6 <_puts_r+0x28>
800055a0:	8526                	mv	a0,s1
800055a2:	3e8010ef          	jal	ra,8000698a <__sinit>
800055a6:	0fffb797          	auipc	a5,0xfffb
800055aa:	23a78793          	addi	a5,a5,570 # 900007e0 <__sf_fake_stdin>
800055ae:	02f41c63          	bne	s0,a5,800055e6 <_puts_r+0x68>
800055b2:	40c0                	lw	s0,4(s1)
800055b4:	00c45783          	lhu	a5,12(s0)
800055b8:	8ba1                	andi	a5,a5,8
800055ba:	c7b1                	beqz	a5,80005606 <_puts_r+0x88>
800055bc:	481c                	lw	a5,16(s0)
800055be:	c7a1                	beqz	a5,80005606 <_puts_r+0x88>
800055c0:	59fd                	li	s3,-1
800055c2:	4a29                	li	s4,10
800055c4:	441c                	lw	a5,8(s0)
800055c6:	00094583          	lbu	a1,0(s2)
800055ca:	17fd                	addi	a5,a5,-1
800055cc:	e9b1                	bnez	a1,80005620 <_puts_r+0xa2>
800055ce:	c41c                	sw	a5,8(s0)
800055d0:	0607de63          	bgez	a5,8000564c <_puts_r+0xce>
800055d4:	8622                	mv	a2,s0
800055d6:	45a9                	li	a1,10
800055d8:	8526                	mv	a0,s1
800055da:	2845                	jal	8000568a <__swbuf_r>
800055dc:	57fd                	li	a5,-1
800055de:	02f50863          	beq	a0,a5,8000560e <_puts_r+0x90>
800055e2:	4529                	li	a0,10
800055e4:	a035                	j	80005610 <_puts_r+0x92>
800055e6:	0fffb797          	auipc	a5,0xfffb
800055ea:	21a78793          	addi	a5,a5,538 # 90000800 <__sf_fake_stdout>
800055ee:	00f41463          	bne	s0,a5,800055f6 <_puts_r+0x78>
800055f2:	4480                	lw	s0,8(s1)
800055f4:	b7c1                	j	800055b4 <_puts_r+0x36>
800055f6:	0fffb797          	auipc	a5,0xfffb
800055fa:	1ca78793          	addi	a5,a5,458 # 900007c0 <__sf_fake_stderr>
800055fe:	faf41be3          	bne	s0,a5,800055b4 <_puts_r+0x36>
80005602:	44c0                	lw	s0,12(s1)
80005604:	bf45                	j	800055b4 <_puts_r+0x36>
80005606:	85a2                	mv	a1,s0
80005608:	8526                	mv	a0,s1
8000560a:	2a95                	jal	8000577e <__swsetup_r>
8000560c:	d955                	beqz	a0,800055c0 <_puts_r+0x42>
8000560e:	557d                	li	a0,-1
80005610:	40f2                	lw	ra,28(sp)
80005612:	4462                	lw	s0,24(sp)
80005614:	44d2                	lw	s1,20(sp)
80005616:	4942                	lw	s2,16(sp)
80005618:	49b2                	lw	s3,12(sp)
8000561a:	4a22                	lw	s4,8(sp)
8000561c:	6105                	addi	sp,sp,32
8000561e:	8082                	ret
80005620:	c41c                	sw	a5,8(s0)
80005622:	0905                	addi	s2,s2,1
80005624:	0007d763          	bgez	a5,80005632 <_puts_r+0xb4>
80005628:	4c18                	lw	a4,24(s0)
8000562a:	00e7cb63          	blt	a5,a4,80005640 <_puts_r+0xc2>
8000562e:	01458963          	beq	a1,s4,80005640 <_puts_r+0xc2>
80005632:	401c                	lw	a5,0(s0)
80005634:	00178713          	addi	a4,a5,1
80005638:	c018                	sw	a4,0(s0)
8000563a:	00b78023          	sb	a1,0(a5)
8000563e:	b759                	j	800055c4 <_puts_r+0x46>
80005640:	8622                	mv	a2,s0
80005642:	8526                	mv	a0,s1
80005644:	2099                	jal	8000568a <__swbuf_r>
80005646:	f7351fe3          	bne	a0,s3,800055c4 <_puts_r+0x46>
8000564a:	b7d1                	j	8000560e <_puts_r+0x90>
8000564c:	401c                	lw	a5,0(s0)
8000564e:	00178713          	addi	a4,a5,1
80005652:	c018                	sw	a4,0(s0)
80005654:	4729                	li	a4,10
80005656:	00e78023          	sb	a4,0(a5)
8000565a:	b761                	j	800055e2 <_puts_r+0x64>

8000565c <puts>:
8000565c:	80c18793          	addi	a5,gp,-2036 # 90000c5c <_impure_ptr>
80005660:	85aa                	mv	a1,a0
80005662:	4388                	lw	a0,0(a5)
80005664:	bf29                	j	8000557e <_puts_r>

80005666 <strlen>:
80005666:	87aa                	mv	a5,a0
80005668:	0785                	addi	a5,a5,1
8000566a:	fff7c703          	lbu	a4,-1(a5)
8000566e:	ff6d                	bnez	a4,80005668 <strlen+0x2>
80005670:	40a78533          	sub	a0,a5,a0
80005674:	157d                	addi	a0,a0,-1
80005676:	8082                	ret

80005678 <isatty>:
80005678:	af1fe06f          	j	80004168 <_isatty>

8000567c <write>:
8000567c:	80c18793          	addi	a5,gp,-2036 # 90000c5c <_impure_ptr>
80005680:	86b2                	mv	a3,a2
80005682:	862e                	mv	a2,a1
80005684:	85aa                	mv	a1,a0
80005686:	4388                	lw	a0,0(a5)
80005688:	a0e1                	j	80005750 <_write_r>

8000568a <__swbuf_r>:
8000568a:	1101                	addi	sp,sp,-32
8000568c:	cc22                	sw	s0,24(sp)
8000568e:	ca26                	sw	s1,20(sp)
80005690:	c84a                	sw	s2,16(sp)
80005692:	ce06                	sw	ra,28(sp)
80005694:	c64e                	sw	s3,12(sp)
80005696:	84aa                	mv	s1,a0
80005698:	892e                	mv	s2,a1
8000569a:	8432                	mv	s0,a2
8000569c:	c509                	beqz	a0,800056a6 <__swbuf_r+0x1c>
8000569e:	4d1c                	lw	a5,24(a0)
800056a0:	e399                	bnez	a5,800056a6 <__swbuf_r+0x1c>
800056a2:	2e8010ef          	jal	ra,8000698a <__sinit>
800056a6:	0fffb797          	auipc	a5,0xfffb
800056aa:	13a78793          	addi	a5,a5,314 # 900007e0 <__sf_fake_stdin>
800056ae:	06f41b63          	bne	s0,a5,80005724 <__swbuf_r+0x9a>
800056b2:	40c0                	lw	s0,4(s1)
800056b4:	4c1c                	lw	a5,24(s0)
800056b6:	c41c                	sw	a5,8(s0)
800056b8:	00c45783          	lhu	a5,12(s0)
800056bc:	8ba1                	andi	a5,a5,8
800056be:	c3d9                	beqz	a5,80005744 <__swbuf_r+0xba>
800056c0:	481c                	lw	a5,16(s0)
800056c2:	c3c9                	beqz	a5,80005744 <__swbuf_r+0xba>
800056c4:	481c                	lw	a5,16(s0)
800056c6:	4008                	lw	a0,0(s0)
800056c8:	0ff97993          	andi	s3,s2,255
800056cc:	0ff97913          	andi	s2,s2,255
800056d0:	8d1d                	sub	a0,a0,a5
800056d2:	485c                	lw	a5,20(s0)
800056d4:	00f54763          	blt	a0,a5,800056e2 <__swbuf_r+0x58>
800056d8:	85a2                	mv	a1,s0
800056da:	8526                	mv	a0,s1
800056dc:	192010ef          	jal	ra,8000686e <_fflush_r>
800056e0:	e535                	bnez	a0,8000574c <__swbuf_r+0xc2>
800056e2:	441c                	lw	a5,8(s0)
800056e4:	0505                	addi	a0,a0,1
800056e6:	17fd                	addi	a5,a5,-1
800056e8:	c41c                	sw	a5,8(s0)
800056ea:	401c                	lw	a5,0(s0)
800056ec:	00178713          	addi	a4,a5,1
800056f0:	c018                	sw	a4,0(s0)
800056f2:	01378023          	sb	s3,0(a5)
800056f6:	485c                	lw	a5,20(s0)
800056f8:	00a78963          	beq	a5,a0,8000570a <__swbuf_r+0x80>
800056fc:	00c45783          	lhu	a5,12(s0)
80005700:	8b85                	andi	a5,a5,1
80005702:	cb89                	beqz	a5,80005714 <__swbuf_r+0x8a>
80005704:	47a9                	li	a5,10
80005706:	00f91763          	bne	s2,a5,80005714 <__swbuf_r+0x8a>
8000570a:	85a2                	mv	a1,s0
8000570c:	8526                	mv	a0,s1
8000570e:	160010ef          	jal	ra,8000686e <_fflush_r>
80005712:	ed0d                	bnez	a0,8000574c <__swbuf_r+0xc2>
80005714:	40f2                	lw	ra,28(sp)
80005716:	4462                	lw	s0,24(sp)
80005718:	854a                	mv	a0,s2
8000571a:	44d2                	lw	s1,20(sp)
8000571c:	4942                	lw	s2,16(sp)
8000571e:	49b2                	lw	s3,12(sp)
80005720:	6105                	addi	sp,sp,32
80005722:	8082                	ret
80005724:	0fffb797          	auipc	a5,0xfffb
80005728:	0dc78793          	addi	a5,a5,220 # 90000800 <__sf_fake_stdout>
8000572c:	00f41463          	bne	s0,a5,80005734 <__swbuf_r+0xaa>
80005730:	4480                	lw	s0,8(s1)
80005732:	b749                	j	800056b4 <__swbuf_r+0x2a>
80005734:	0fffb797          	auipc	a5,0xfffb
80005738:	08c78793          	addi	a5,a5,140 # 900007c0 <__sf_fake_stderr>
8000573c:	f6f41ce3          	bne	s0,a5,800056b4 <__swbuf_r+0x2a>
80005740:	44c0                	lw	s0,12(s1)
80005742:	bf8d                	j	800056b4 <__swbuf_r+0x2a>
80005744:	85a2                	mv	a1,s0
80005746:	8526                	mv	a0,s1
80005748:	281d                	jal	8000577e <__swsetup_r>
8000574a:	dd2d                	beqz	a0,800056c4 <__swbuf_r+0x3a>
8000574c:	597d                	li	s2,-1
8000574e:	b7d9                	j	80005714 <__swbuf_r+0x8a>

80005750 <_write_r>:
80005750:	1141                	addi	sp,sp,-16
80005752:	c422                	sw	s0,8(sp)
80005754:	842a                	mv	s0,a0
80005756:	852e                	mv	a0,a1
80005758:	85b2                	mv	a1,a2
8000575a:	8636                	mv	a2,a3
8000575c:	8c01a423          	sw	zero,-1848(gp) # 90000d18 <errno>
80005760:	c606                	sw	ra,12(sp)
80005762:	a63fe0ef          	jal	ra,800041c4 <_write>
80005766:	57fd                	li	a5,-1
80005768:	00f51763          	bne	a0,a5,80005776 <_write_r+0x26>
8000576c:	8c818793          	addi	a5,gp,-1848 # 90000d18 <errno>
80005770:	439c                	lw	a5,0(a5)
80005772:	c391                	beqz	a5,80005776 <_write_r+0x26>
80005774:	c01c                	sw	a5,0(s0)
80005776:	40b2                	lw	ra,12(sp)
80005778:	4422                	lw	s0,8(sp)
8000577a:	0141                	addi	sp,sp,16
8000577c:	8082                	ret

8000577e <__swsetup_r>:
8000577e:	1141                	addi	sp,sp,-16
80005780:	80c18793          	addi	a5,gp,-2036 # 90000c5c <_impure_ptr>
80005784:	c226                	sw	s1,4(sp)
80005786:	4384                	lw	s1,0(a5)
80005788:	c422                	sw	s0,8(sp)
8000578a:	c04a                	sw	s2,0(sp)
8000578c:	c606                	sw	ra,12(sp)
8000578e:	892a                	mv	s2,a0
80005790:	842e                	mv	s0,a1
80005792:	c491                	beqz	s1,8000579e <__swsetup_r+0x20>
80005794:	4c9c                	lw	a5,24(s1)
80005796:	e781                	bnez	a5,8000579e <__swsetup_r+0x20>
80005798:	8526                	mv	a0,s1
8000579a:	1f0010ef          	jal	ra,8000698a <__sinit>
8000579e:	0fffb797          	auipc	a5,0xfffb
800057a2:	04278793          	addi	a5,a5,66 # 900007e0 <__sf_fake_stdin>
800057a6:	02f41c63          	bne	s0,a5,800057de <__swsetup_r+0x60>
800057aa:	40c0                	lw	s0,4(s1)
800057ac:	00c41703          	lh	a4,12(s0)
800057b0:	01071793          	slli	a5,a4,0x10
800057b4:	83c1                	srli	a5,a5,0x10
800057b6:	0087f693          	andi	a3,a5,8
800057ba:	eebd                	bnez	a3,80005838 <__swsetup_r+0xba>
800057bc:	0107f693          	andi	a3,a5,16
800057c0:	ee9d                	bnez	a3,800057fe <__swsetup_r+0x80>
800057c2:	47a5                	li	a5,9
800057c4:	00f92023          	sw	a5,0(s2)
800057c8:	04076713          	ori	a4,a4,64
800057cc:	00e41623          	sh	a4,12(s0)
800057d0:	557d                	li	a0,-1
800057d2:	40b2                	lw	ra,12(sp)
800057d4:	4422                	lw	s0,8(sp)
800057d6:	4492                	lw	s1,4(sp)
800057d8:	4902                	lw	s2,0(sp)
800057da:	0141                	addi	sp,sp,16
800057dc:	8082                	ret
800057de:	0fffb797          	auipc	a5,0xfffb
800057e2:	02278793          	addi	a5,a5,34 # 90000800 <__sf_fake_stdout>
800057e6:	00f41463          	bne	s0,a5,800057ee <__swsetup_r+0x70>
800057ea:	4480                	lw	s0,8(s1)
800057ec:	b7c1                	j	800057ac <__swsetup_r+0x2e>
800057ee:	0fffb797          	auipc	a5,0xfffb
800057f2:	fd278793          	addi	a5,a5,-46 # 900007c0 <__sf_fake_stderr>
800057f6:	faf41be3          	bne	s0,a5,800057ac <__swsetup_r+0x2e>
800057fa:	44c0                	lw	s0,12(s1)
800057fc:	bf45                	j	800057ac <__swsetup_r+0x2e>
800057fe:	8b91                	andi	a5,a5,4
80005800:	c795                	beqz	a5,8000582c <__swsetup_r+0xae>
80005802:	584c                	lw	a1,52(s0)
80005804:	c991                	beqz	a1,80005818 <__swsetup_r+0x9a>
80005806:	04440793          	addi	a5,s0,68
8000580a:	00f58563          	beq	a1,a5,80005814 <__swsetup_r+0x96>
8000580e:	854a                	mv	a0,s2
80005810:	349010ef          	jal	ra,80007358 <_free_r>
80005814:	02042a23          	sw	zero,52(s0)
80005818:	00c45783          	lhu	a5,12(s0)
8000581c:	00042223          	sw	zero,4(s0)
80005820:	fdb7f793          	andi	a5,a5,-37
80005824:	00f41623          	sh	a5,12(s0)
80005828:	481c                	lw	a5,16(s0)
8000582a:	c01c                	sw	a5,0(s0)
8000582c:	00c45783          	lhu	a5,12(s0)
80005830:	0087e793          	ori	a5,a5,8
80005834:	00f41623          	sh	a5,12(s0)
80005838:	481c                	lw	a5,16(s0)
8000583a:	ef89                	bnez	a5,80005854 <__swsetup_r+0xd6>
8000583c:	00c45783          	lhu	a5,12(s0)
80005840:	20000713          	li	a4,512
80005844:	2807f793          	andi	a5,a5,640
80005848:	00e78663          	beq	a5,a4,80005854 <__swsetup_r+0xd6>
8000584c:	85a2                	mv	a1,s0
8000584e:	854a                	mv	a0,s2
80005850:	312010ef          	jal	ra,80006b62 <__smakebuf_r>
80005854:	00c45783          	lhu	a5,12(s0)
80005858:	0017f713          	andi	a4,a5,1
8000585c:	c705                	beqz	a4,80005884 <__swsetup_r+0x106>
8000585e:	485c                	lw	a5,20(s0)
80005860:	00042423          	sw	zero,8(s0)
80005864:	40f007b3          	neg	a5,a5
80005868:	cc1c                	sw	a5,24(s0)
8000586a:	481c                	lw	a5,16(s0)
8000586c:	4501                	li	a0,0
8000586e:	f3b5                	bnez	a5,800057d2 <__swsetup_r+0x54>
80005870:	00c41783          	lh	a5,12(s0)
80005874:	0807f713          	andi	a4,a5,128
80005878:	df29                	beqz	a4,800057d2 <__swsetup_r+0x54>
8000587a:	0407e793          	ori	a5,a5,64
8000587e:	00f41623          	sh	a5,12(s0)
80005882:	b7b9                	j	800057d0 <__swsetup_r+0x52>
80005884:	8b89                	andi	a5,a5,2
80005886:	4701                	li	a4,0
80005888:	e391                	bnez	a5,8000588c <__swsetup_r+0x10e>
8000588a:	4858                	lw	a4,20(s0)
8000588c:	c418                	sw	a4,8(s0)
8000588e:	bff1                	j	8000586a <__swsetup_r+0xec>

80005890 <__register_exitproc>:
80005890:	83018793          	addi	a5,gp,-2000 # 90000c80 <_global_atexit>
80005894:	439c                	lw	a5,0(a5)
80005896:	8e2a                	mv	t3,a0
80005898:	ef99                	bnez	a5,800058b6 <__register_exitproc+0x26>
8000589a:	83c18713          	addi	a4,gp,-1988 # 90000c8c <_global_atexit0>
8000589e:	82e1a823          	sw	a4,-2000(gp) # 90000c80 <_global_atexit>
800058a2:	7fffa517          	auipc	a0,0x7fffa
800058a6:	75e50513          	addi	a0,a0,1886 # 0 <_sp+0x6fff0000>
800058aa:	87ba                	mv	a5,a4
800058ac:	c509                	beqz	a0,800058b6 <__register_exitproc+0x26>
800058ae:	411c                	lw	a5,0(a0)
800058b0:	8cf1a223          	sw	a5,-1852(gp) # 90000d14 <_global_atexit0+0x88>
800058b4:	87ba                	mv	a5,a4
800058b6:	43d8                	lw	a4,4(a5)
800058b8:	487d                	li	a6,31
800058ba:	557d                	li	a0,-1
800058bc:	04e84763          	blt	a6,a4,8000590a <__register_exitproc+0x7a>
800058c0:	020e0e63          	beqz	t3,800058fc <__register_exitproc+0x6c>
800058c4:	0887a803          	lw	a6,136(a5)
800058c8:	04080163          	beqz	a6,8000590a <__register_exitproc+0x7a>
800058cc:	00271893          	slli	a7,a4,0x2
800058d0:	98c2                	add	a7,a7,a6
800058d2:	00c8a023          	sw	a2,0(a7)
800058d6:	10082303          	lw	t1,256(a6)
800058da:	4605                	li	a2,1
800058dc:	00e61633          	sll	a2,a2,a4
800058e0:	00c36333          	or	t1,t1,a2
800058e4:	10682023          	sw	t1,256(a6)
800058e8:	08d8a023          	sw	a3,128(a7)
800058ec:	4689                	li	a3,2
800058ee:	00de1763          	bne	t3,a3,800058fc <__register_exitproc+0x6c>
800058f2:	10482683          	lw	a3,260(a6)
800058f6:	8e55                	or	a2,a2,a3
800058f8:	10c82223          	sw	a2,260(a6)
800058fc:	00170693          	addi	a3,a4,1
80005900:	070a                	slli	a4,a4,0x2
80005902:	c3d4                	sw	a3,4(a5)
80005904:	97ba                	add	a5,a5,a4
80005906:	c78c                	sw	a1,8(a5)
80005908:	4501                	li	a0,0
8000590a:	8082                	ret

8000590c <__call_exitprocs>:
8000590c:	7179                	addi	sp,sp,-48
8000590e:	cc52                	sw	s4,24(sp)
80005910:	ca56                	sw	s5,20(sp)
80005912:	c85a                	sw	s6,16(sp)
80005914:	c65e                	sw	s7,12(sp)
80005916:	d606                	sw	ra,44(sp)
80005918:	d422                	sw	s0,40(sp)
8000591a:	d226                	sw	s1,36(sp)
8000591c:	d04a                	sw	s2,32(sp)
8000591e:	ce4e                	sw	s3,28(sp)
80005920:	c462                	sw	s8,8(sp)
80005922:	8b2a                	mv	s6,a0
80005924:	8a2e                	mv	s4,a1
80005926:	83018a93          	addi	s5,gp,-2000 # 90000c80 <_global_atexit>
8000592a:	4b85                	li	s7,1
8000592c:	000aa403          	lw	s0,0(s5)
80005930:	c811                	beqz	s0,80005944 <__call_exitprocs+0x38>
80005932:	4044                	lw	s1,4(s0)
80005934:	08842983          	lw	s3,136(s0)
80005938:	fff48913          	addi	s2,s1,-1
8000593c:	048a                	slli	s1,s1,0x2
8000593e:	94a2                	add	s1,s1,s0
80005940:	00095e63          	bgez	s2,8000595c <__call_exitprocs+0x50>
80005944:	50b2                	lw	ra,44(sp)
80005946:	5422                	lw	s0,40(sp)
80005948:	5492                	lw	s1,36(sp)
8000594a:	5902                	lw	s2,32(sp)
8000594c:	49f2                	lw	s3,28(sp)
8000594e:	4a62                	lw	s4,24(sp)
80005950:	4ad2                	lw	s5,20(sp)
80005952:	4b42                	lw	s6,16(sp)
80005954:	4bb2                	lw	s7,12(sp)
80005956:	4c22                	lw	s8,8(sp)
80005958:	6145                	addi	sp,sp,48
8000595a:	8082                	ret
8000595c:	000a0e63          	beqz	s4,80005978 <__call_exitprocs+0x6c>
80005960:	00099563          	bnez	s3,8000596a <__call_exitprocs+0x5e>
80005964:	197d                	addi	s2,s2,-1
80005966:	14f1                	addi	s1,s1,-4
80005968:	bfe1                	j	80005940 <__call_exitprocs+0x34>
8000596a:	00291793          	slli	a5,s2,0x2
8000596e:	97ce                	add	a5,a5,s3
80005970:	0807a783          	lw	a5,128(a5)
80005974:	ff4798e3          	bne	a5,s4,80005964 <__call_exitprocs+0x58>
80005978:	4058                	lw	a4,4(s0)
8000597a:	40dc                	lw	a5,4(s1)
8000597c:	177d                	addi	a4,a4,-1
8000597e:	03271863          	bne	a4,s2,800059ae <__call_exitprocs+0xa2>
80005982:	01242223          	sw	s2,4(s0)
80005986:	dff9                	beqz	a5,80005964 <__call_exitprocs+0x58>
80005988:	00442c03          	lw	s8,4(s0)
8000598c:	00098863          	beqz	s3,8000599c <__call_exitprocs+0x90>
80005990:	1009a683          	lw	a3,256(s3)
80005994:	012b9733          	sll	a4,s7,s2
80005998:	8ef9                	and	a3,a3,a4
8000599a:	ee89                	bnez	a3,800059b4 <__call_exitprocs+0xa8>
8000599c:	9782                	jalr	a5
8000599e:	4058                	lw	a4,4(s0)
800059a0:	000aa783          	lw	a5,0(s5)
800059a4:	f98714e3          	bne	a4,s8,8000592c <__call_exitprocs+0x20>
800059a8:	faf40ee3          	beq	s0,a5,80005964 <__call_exitprocs+0x58>
800059ac:	b741                	j	8000592c <__call_exitprocs+0x20>
800059ae:	0004a223          	sw	zero,4(s1)
800059b2:	bfd1                	j	80005986 <__call_exitprocs+0x7a>
800059b4:	00291693          	slli	a3,s2,0x2
800059b8:	96ce                	add	a3,a3,s3
800059ba:	428c                	lw	a1,0(a3)
800059bc:	1049a683          	lw	a3,260(s3)
800059c0:	8f75                	and	a4,a4,a3
800059c2:	e701                	bnez	a4,800059ca <__call_exitprocs+0xbe>
800059c4:	855a                	mv	a0,s6
800059c6:	9782                	jalr	a5
800059c8:	bfd9                	j	8000599e <__call_exitprocs+0x92>
800059ca:	852e                	mv	a0,a1
800059cc:	9782                	jalr	a5
800059ce:	bfc1                	j	8000599e <__call_exitprocs+0x92>

800059d0 <quorem>:
800059d0:	1101                	addi	sp,sp,-32
800059d2:	cc22                	sw	s0,24(sp)
800059d4:	491c                	lw	a5,16(a0)
800059d6:	4980                	lw	s0,16(a1)
800059d8:	ce06                	sw	ra,28(sp)
800059da:	ca26                	sw	s1,20(sp)
800059dc:	c84a                	sw	s2,16(sp)
800059de:	c64e                	sw	s3,12(sp)
800059e0:	c452                	sw	s4,8(sp)
800059e2:	c256                	sw	s5,4(sp)
800059e4:	1287c163          	blt	a5,s0,80005b06 <quorem+0x136>
800059e8:	147d                	addi	s0,s0,-1
800059ea:	00241813          	slli	a6,s0,0x2
800059ee:	01458993          	addi	s3,a1,20
800059f2:	01098a33          	add	s4,s3,a6
800059f6:	01450913          	addi	s2,a0,20
800059fa:	984a                	add	a6,a6,s2
800059fc:	000a2783          	lw	a5,0(s4)
80005a00:	00082703          	lw	a4,0(a6)
80005a04:	0785                	addi	a5,a5,1
80005a06:	02f754b3          	divu	s1,a4,a5
80005a0a:	06f76663          	bltu	a4,a5,80005a76 <quorem+0xa6>
80005a0e:	68c1                	lui	a7,0x10
80005a10:	834e                	mv	t1,s3
80005a12:	8e4a                	mv	t3,s2
80005a14:	4e81                	li	t4,0
80005a16:	4f01                	li	t5,0
80005a18:	18fd                	addi	a7,a7,-1
80005a1a:	0311                	addi	t1,t1,4
80005a1c:	ffc32603          	lw	a2,-4(t1)
80005a20:	0e11                	addi	t3,t3,4
80005a22:	01167733          	and	a4,a2,a7
80005a26:	8241                	srli	a2,a2,0x10
80005a28:	02970733          	mul	a4,a4,s1
80005a2c:	02960633          	mul	a2,a2,s1
80005a30:	9776                	add	a4,a4,t4
80005a32:	01075693          	srli	a3,a4,0x10
80005a36:	011777b3          	and	a5,a4,a7
80005a3a:	40ff07b3          	sub	a5,t5,a5
80005a3e:	9636                	add	a2,a2,a3
80005a40:	ffce2683          	lw	a3,-4(t3) # fffc <__stack_size+0xf7fc>
80005a44:	01065e93          	srli	t4,a2,0x10
80005a48:	01167633          	and	a2,a2,a7
80005a4c:	0116f733          	and	a4,a3,a7
80005a50:	97ba                	add	a5,a5,a4
80005a52:	82c1                	srli	a3,a3,0x10
80005a54:	4107d713          	srai	a4,a5,0x10
80005a58:	8e91                	sub	a3,a3,a2
80005a5a:	96ba                	add	a3,a3,a4
80005a5c:	4106df13          	srai	t5,a3,0x10
80005a60:	0117f7b3          	and	a5,a5,a7
80005a64:	06c2                	slli	a3,a3,0x10
80005a66:	8fd5                	or	a5,a5,a3
80005a68:	fefe2e23          	sw	a5,-4(t3)
80005a6c:	fa6a77e3          	bgeu	s4,t1,80005a1a <quorem+0x4a>
80005a70:	00082783          	lw	a5,0(a6)
80005a74:	cbbd                	beqz	a5,80005aea <quorem+0x11a>
80005a76:	8aaa                	mv	s5,a0
80005a78:	6c4010ef          	jal	ra,8000713c <__mcmp>
80005a7c:	04054963          	bltz	a0,80005ace <quorem+0xfe>
80005a80:	6641                	lui	a2,0x10
80005a82:	0485                	addi	s1,s1,1
80005a84:	85ca                	mv	a1,s2
80005a86:	4501                	li	a0,0
80005a88:	167d                	addi	a2,a2,-1
80005a8a:	0991                	addi	s3,s3,4
80005a8c:	ffc9a803          	lw	a6,-4(s3)
80005a90:	4198                	lw	a4,0(a1)
80005a92:	0591                	addi	a1,a1,4
80005a94:	00c876b3          	and	a3,a6,a2
80005a98:	8d15                	sub	a0,a0,a3
80005a9a:	00c776b3          	and	a3,a4,a2
80005a9e:	96aa                	add	a3,a3,a0
80005aa0:	01075793          	srli	a5,a4,0x10
80005aa4:	01085813          	srli	a6,a6,0x10
80005aa8:	4106d713          	srai	a4,a3,0x10
80005aac:	410787b3          	sub	a5,a5,a6
80005ab0:	97ba                	add	a5,a5,a4
80005ab2:	4107d513          	srai	a0,a5,0x10
80005ab6:	8ef1                	and	a3,a3,a2
80005ab8:	07c2                	slli	a5,a5,0x10
80005aba:	8fd5                	or	a5,a5,a3
80005abc:	fef5ae23          	sw	a5,-4(a1)
80005ac0:	fd3a75e3          	bgeu	s4,s3,80005a8a <quorem+0xba>
80005ac4:	00241793          	slli	a5,s0,0x2
80005ac8:	97ca                	add	a5,a5,s2
80005aca:	4398                	lw	a4,0(a5)
80005acc:	c71d                	beqz	a4,80005afa <quorem+0x12a>
80005ace:	8526                	mv	a0,s1
80005ad0:	40f2                	lw	ra,28(sp)
80005ad2:	4462                	lw	s0,24(sp)
80005ad4:	44d2                	lw	s1,20(sp)
80005ad6:	4942                	lw	s2,16(sp)
80005ad8:	49b2                	lw	s3,12(sp)
80005ada:	4a22                	lw	s4,8(sp)
80005adc:	4a92                	lw	s5,4(sp)
80005ade:	6105                	addi	sp,sp,32
80005ae0:	8082                	ret
80005ae2:	00082783          	lw	a5,0(a6)
80005ae6:	e789                	bnez	a5,80005af0 <quorem+0x120>
80005ae8:	147d                	addi	s0,s0,-1
80005aea:	1871                	addi	a6,a6,-4
80005aec:	ff096be3          	bltu	s2,a6,80005ae2 <quorem+0x112>
80005af0:	c900                	sw	s0,16(a0)
80005af2:	b751                	j	80005a76 <quorem+0xa6>
80005af4:	4398                	lw	a4,0(a5)
80005af6:	e709                	bnez	a4,80005b00 <quorem+0x130>
80005af8:	147d                	addi	s0,s0,-1
80005afa:	17f1                	addi	a5,a5,-4
80005afc:	fef96ce3          	bltu	s2,a5,80005af4 <quorem+0x124>
80005b00:	008aa823          	sw	s0,16(s5)
80005b04:	b7e9                	j	80005ace <quorem+0xfe>
80005b06:	4501                	li	a0,0
80005b08:	b7e1                	j	80005ad0 <quorem+0x100>

80005b0a <_dtoa_r>:
80005b0a:	7175                	addi	sp,sp,-144
80005b0c:	d83e                	sw	a5,48(sp)
80005b0e:	515c                	lw	a5,36(a0)
80005b10:	c522                	sw	s0,136(sp)
80005b12:	c326                	sw	s1,132(sp)
80005b14:	c14a                	sw	s2,128(sp)
80005b16:	dece                	sw	s3,124(sp)
80005b18:	dcd2                	sw	s4,120(sp)
80005b1a:	d4e2                	sw	s8,104(sp)
80005b1c:	c706                	sw	ra,140(sp)
80005b1e:	dad6                	sw	s5,116(sp)
80005b20:	d8da                	sw	s6,112(sp)
80005b22:	d6de                	sw	s7,108(sp)
80005b24:	d2e6                	sw	s9,100(sp)
80005b26:	d0ea                	sw	s10,96(sp)
80005b28:	ceee                	sw	s11,92(sp)
80005b2a:	c236                	sw	a3,4(sp)
80005b2c:	c63a                	sw	a4,12(sp)
80005b2e:	ca46                	sw	a7,20(sp)
80005b30:	84aa                	mv	s1,a0
80005b32:	842e                	mv	s0,a1
80005b34:	8932                	mv	s2,a2
80005b36:	89c2                	mv	s3,a6
80005b38:	8a2e                	mv	s4,a1
80005b3a:	8c32                	mv	s8,a2
80005b3c:	ef89                	bnez	a5,80005b56 <_dtoa_r+0x4c>
80005b3e:	4541                	li	a0,16
80005b40:	0c2010ef          	jal	ra,80006c02 <malloc>
80005b44:	d0c8                	sw	a0,36(s1)
80005b46:	00052223          	sw	zero,4(a0)
80005b4a:	00052423          	sw	zero,8(a0)
80005b4e:	00052023          	sw	zero,0(a0)
80005b52:	00052623          	sw	zero,12(a0)
80005b56:	50dc                	lw	a5,36(s1)
80005b58:	438c                	lw	a1,0(a5)
80005b5a:	cd89                	beqz	a1,80005b74 <_dtoa_r+0x6a>
80005b5c:	43d8                	lw	a4,4(a5)
80005b5e:	4785                	li	a5,1
80005b60:	8526                	mv	a0,s1
80005b62:	00e797b3          	sll	a5,a5,a4
80005b66:	c59c                	sw	a5,8(a1)
80005b68:	c1d8                	sw	a4,4(a1)
80005b6a:	16a010ef          	jal	ra,80006cd4 <_Bfree>
80005b6e:	50dc                	lw	a5,36(s1)
80005b70:	0007a023          	sw	zero,0(a5)
80005b74:	04095363          	bgez	s2,80005bba <_dtoa_r+0xb0>
80005b78:	4785                	li	a5,1
80005b7a:	00191c13          	slli	s8,s2,0x1
80005b7e:	00f9a023          	sw	a5,0(s3)
80005b82:	001c5c13          	srli	s8,s8,0x1
80005b86:	7ff007b7          	lui	a5,0x7ff00
80005b8a:	00fc7733          	and	a4,s8,a5
80005b8e:	06f71463          	bne	a4,a5,80005bf6 <_dtoa_r+0xec>
80005b92:	5742                	lw	a4,48(sp)
80005b94:	6789                	lui	a5,0x2
80005b96:	0c32                	slli	s8,s8,0xc
80005b98:	70f78793          	addi	a5,a5,1807 # 270f <__stack_size+0x1f0f>
80005b9c:	00cc5c13          	srli	s8,s8,0xc
80005ba0:	c31c                	sw	a5,0(a4)
80005ba2:	008c6c33          	or	s8,s8,s0
80005ba6:	320c01e3          	beqz	s8,800066c8 <_dtoa_r+0xbbe>
80005baa:	47d2                	lw	a5,20(sp)
80005bac:	eb91                	bnez	a5,80005bc0 <_dtoa_r+0xb6>
80005bae:	0fffb797          	auipc	a5,0xfffb
80005bb2:	c0e78793          	addi	a5,a5,-1010 # 900007bc <__clz_tab+0x18c>
80005bb6:	c03e                	sw	a5,0(sp)
80005bb8:	a839                	j	80005bd6 <_dtoa_r+0xcc>
80005bba:	0009a023          	sw	zero,0(s3)
80005bbe:	b7e1                	j	80005b86 <_dtoa_r+0x7c>
80005bc0:	0fffb797          	auipc	a5,0xfffb
80005bc4:	bfc78793          	addi	a5,a5,-1028 # 900007bc <__clz_tab+0x18c>
80005bc8:	c03e                	sw	a5,0(sp)
80005bca:	0fffb797          	auipc	a5,0xfffb
80005bce:	bf578793          	addi	a5,a5,-1035 # 900007bf <__clz_tab+0x18f>
80005bd2:	4752                	lw	a4,20(sp)
80005bd4:	c31c                	sw	a5,0(a4)
80005bd6:	40ba                	lw	ra,140(sp)
80005bd8:	442a                	lw	s0,136(sp)
80005bda:	4502                	lw	a0,0(sp)
80005bdc:	449a                	lw	s1,132(sp)
80005bde:	490a                	lw	s2,128(sp)
80005be0:	59f6                	lw	s3,124(sp)
80005be2:	5a66                	lw	s4,120(sp)
80005be4:	5ad6                	lw	s5,116(sp)
80005be6:	5b46                	lw	s6,112(sp)
80005be8:	5bb6                	lw	s7,108(sp)
80005bea:	5c26                	lw	s8,104(sp)
80005bec:	5c96                	lw	s9,100(sp)
80005bee:	5d06                	lw	s10,96(sp)
80005bf0:	4df6                	lw	s11,92(sp)
80005bf2:	6149                	addi	sp,sp,144
80005bf4:	8082                	ret
80005bf6:	4601                	li	a2,0
80005bf8:	4681                	li	a3,0
80005bfa:	8522                	mv	a0,s0
80005bfc:	85e2                	mv	a1,s8
80005bfe:	ce22                	sw	s0,28(sp)
80005c00:	d462                	sw	s8,40(sp)
80005c02:	5a8020ef          	jal	ra,800081aa <__eqdf2>
80005c06:	e105                	bnez	a0,80005c26 <_dtoa_r+0x11c>
80005c08:	5742                	lw	a4,48(sp)
80005c0a:	4785                	li	a5,1
80005c0c:	c31c                	sw	a5,0(a4)
80005c0e:	0fffb797          	auipc	a5,0xfffb
80005c12:	b3a78793          	addi	a5,a5,-1222 # 90000748 <__clz_tab+0x118>
80005c16:	c03e                	sw	a5,0(sp)
80005c18:	47d2                	lw	a5,20(sp)
80005c1a:	dfd5                	beqz	a5,80005bd6 <_dtoa_r+0xcc>
80005c1c:	0fffb797          	auipc	a5,0xfffb
80005c20:	b2d78793          	addi	a5,a5,-1235 # 90000749 <__clz_tab+0x119>
80005c24:	b77d                	j	80005bd2 <_dtoa_r+0xc8>
80005c26:	00b8                	addi	a4,sp,72
80005c28:	00f4                	addi	a3,sp,76
80005c2a:	8662                	mv	a2,s8
80005c2c:	85a2                	mv	a1,s0
80005c2e:	8526                	mv	a0,s1
80005c30:	014c5913          	srli	s2,s8,0x14
80005c34:	62a010ef          	jal	ra,8000725e <__d2b>
80005c38:	7ff97913          	andi	s2,s2,2047
80005c3c:	89aa                	mv	s3,a0
80005c3e:	4aa6                	lw	s5,72(sp)
80005c40:	10090d63          	beqz	s2,80005d5a <_dtoa_r+0x250>
80005c44:	57a2                	lw	a5,40(sp)
80005c46:	4572                	lw	a0,28(sp)
80005c48:	c0190913          	addi	s2,s2,-1023
80005c4c:	00c79593          	slli	a1,a5,0xc
80005c50:	81b1                	srli	a1,a1,0xc
80005c52:	3ff007b7          	lui	a5,0x3ff00
80005c56:	8ddd                	or	a1,a1,a5
80005c58:	dc02                	sw	zero,56(sp)
80005c5a:	0fffb797          	auipc	a5,0xfffb
80005c5e:	b1e78793          	addi	a5,a5,-1250 # 90000778 <__clz_tab+0x148>
80005c62:	4390                	lw	a2,0(a5)
80005c64:	43d4                	lw	a3,4(a5)
80005c66:	25b020ef          	jal	ra,800086c0 <__subdf3>
80005c6a:	0fffb797          	auipc	a5,0xfffb
80005c6e:	b1678793          	addi	a5,a5,-1258 # 90000780 <__clz_tab+0x150>
80005c72:	4390                	lw	a2,0(a5)
80005c74:	43d4                	lw	a3,4(a5)
80005c76:	59e020ef          	jal	ra,80008214 <__muldf3>
80005c7a:	0fffb797          	auipc	a5,0xfffb
80005c7e:	b0e78793          	addi	a5,a5,-1266 # 90000788 <__clz_tab+0x158>
80005c82:	4390                	lw	a2,0(a5)
80005c84:	43d4                	lw	a3,4(a5)
80005c86:	5f5010ef          	jal	ra,80007a7a <__adddf3>
80005c8a:	8b2a                	mv	s6,a0
80005c8c:	854a                	mv	a0,s2
80005c8e:	8bae                	mv	s7,a1
80005c90:	212030ef          	jal	ra,80008ea2 <__floatsidf>
80005c94:	0fffb797          	auipc	a5,0xfffb
80005c98:	afc78793          	addi	a5,a5,-1284 # 90000790 <__clz_tab+0x160>
80005c9c:	4390                	lw	a2,0(a5)
80005c9e:	43d4                	lw	a3,4(a5)
80005ca0:	574020ef          	jal	ra,80008214 <__muldf3>
80005ca4:	862a                	mv	a2,a0
80005ca6:	86ae                	mv	a3,a1
80005ca8:	855a                	mv	a0,s6
80005caa:	85de                	mv	a1,s7
80005cac:	5cf010ef          	jal	ra,80007a7a <__adddf3>
80005cb0:	8b2a                	mv	s6,a0
80005cb2:	8bae                	mv	s7,a1
80005cb4:	186030ef          	jal	ra,80008e3a <__fixdfsi>
80005cb8:	842a                	mv	s0,a0
80005cba:	4601                	li	a2,0
80005cbc:	4681                	li	a3,0
80005cbe:	855a                	mv	a0,s6
80005cc0:	85de                	mv	a1,s7
80005cc2:	ba7fe0ef          	jal	ra,80004868 <__ledf2>
80005cc6:	00055b63          	bgez	a0,80005cdc <_dtoa_r+0x1d2>
80005cca:	8522                	mv	a0,s0
80005ccc:	1d6030ef          	jal	ra,80008ea2 <__floatsidf>
80005cd0:	865a                	mv	a2,s6
80005cd2:	86de                	mv	a3,s7
80005cd4:	4d6020ef          	jal	ra,800081aa <__eqdf2>
80005cd8:	c111                	beqz	a0,80005cdc <_dtoa_r+0x1d2>
80005cda:	147d                	addi	s0,s0,-1
80005cdc:	4705                	li	a4,1
80005cde:	47d9                	li	a5,22
80005ce0:	d63a                	sw	a4,44(sp)
80005ce2:	0287e363          	bltu	a5,s0,80005d08 <_dtoa_r+0x1fe>
80005ce6:	00341713          	slli	a4,s0,0x3
80005cea:	0fffb797          	auipc	a5,0xfffb
80005cee:	b5e78793          	addi	a5,a5,-1186 # 90000848 <__mprec_tens>
80005cf2:	97ba                	add	a5,a5,a4
80005cf4:	4390                	lw	a2,0(a5)
80005cf6:	43d4                	lw	a3,4(a5)
80005cf8:	4572                	lw	a0,28(sp)
80005cfa:	55a2                	lw	a1,40(sp)
80005cfc:	b6dfe0ef          	jal	ra,80004868 <__ledf2>
80005d00:	00055363          	bgez	a0,80005d06 <_dtoa_r+0x1fc>
80005d04:	147d                	addi	s0,s0,-1
80005d06:	d602                	sw	zero,44(sp)
80005d08:	412a8933          	sub	s2,s5,s2
80005d0c:	fff90b93          	addi	s7,s2,-1
80005d10:	4b01                	li	s6,0
80005d12:	000bd663          	bgez	s7,80005d1e <_dtoa_r+0x214>
80005d16:	4b05                	li	s6,1
80005d18:	412b0b33          	sub	s6,s6,s2
80005d1c:	4b81                	li	s7,0
80005d1e:	06044e63          	bltz	s0,80005d9a <_dtoa_r+0x290>
80005d22:	9ba2                	add	s7,s7,s0
80005d24:	cc22                	sw	s0,24(sp)
80005d26:	4a81                	li	s5,0
80005d28:	4712                	lw	a4,4(sp)
80005d2a:	47a5                	li	a5,9
80005d2c:	14e7e563          	bltu	a5,a4,80005e76 <_dtoa_r+0x36c>
80005d30:	4795                	li	a5,5
80005d32:	4c85                	li	s9,1
80005d34:	00e7d663          	bge	a5,a4,80005d40 <_dtoa_r+0x236>
80005d38:	ffc70793          	addi	a5,a4,-4
80005d3c:	c23e                	sw	a5,4(sp)
80005d3e:	4c81                	li	s9,0
80005d40:	4712                	lw	a4,4(sp)
80005d42:	478d                	li	a5,3
80005d44:	10f70e63          	beq	a4,a5,80005e60 <_dtoa_r+0x356>
80005d48:	04e7cf63          	blt	a5,a4,80005da6 <_dtoa_r+0x29c>
80005d4c:	4789                	li	a5,2
80005d4e:	c802                	sw	zero,16(sp)
80005d50:	06f70d63          	beq	a4,a5,80005dca <_dtoa_r+0x2c0>
80005d54:	4785                	li	a5,1
80005d56:	c83e                	sw	a5,16(sp)
80005d58:	a08d                	j	80005dba <_dtoa_r+0x2b0>
80005d5a:	4936                	lw	s2,76(sp)
80005d5c:	02000793          	li	a5,32
80005d60:	9956                	add	s2,s2,s5
80005d62:	43290713          	addi	a4,s2,1074
80005d66:	02e7d563          	bge	a5,a4,80005d90 <_dtoa_r+0x286>
80005d6a:	04000513          	li	a0,64
80005d6e:	8d19                	sub	a0,a0,a4
80005d70:	41290793          	addi	a5,s2,1042
80005d74:	00ac1533          	sll	a0,s8,a0
80005d78:	00f45433          	srl	s0,s0,a5
80005d7c:	8d41                	or	a0,a0,s0
80005d7e:	bf9fe0ef          	jal	ra,80004976 <__floatunsidf>
80005d82:	fe1007b7          	lui	a5,0xfe100
80005d86:	95be                	add	a1,a1,a5
80005d88:	4785                	li	a5,1
80005d8a:	197d                	addi	s2,s2,-1
80005d8c:	dc3e                	sw	a5,56(sp)
80005d8e:	b5f1                	j	80005c5a <_dtoa_r+0x150>
80005d90:	40e78533          	sub	a0,a5,a4
80005d94:	00a41533          	sll	a0,s0,a0
80005d98:	b7dd                	j	80005d7e <_dtoa_r+0x274>
80005d9a:	408b0b33          	sub	s6,s6,s0
80005d9e:	40800ab3          	neg	s5,s0
80005da2:	cc02                	sw	zero,24(sp)
80005da4:	b751                	j	80005d28 <_dtoa_r+0x21e>
80005da6:	4712                	lw	a4,4(sp)
80005da8:	4791                	li	a5,4
80005daa:	00f70e63          	beq	a4,a5,80005dc6 <_dtoa_r+0x2bc>
80005dae:	4705                	li	a4,1
80005db0:	c83a                	sw	a4,16(sp)
80005db2:	4712                	lw	a4,4(sp)
80005db4:	4795                	li	a5,5
80005db6:	0af70663          	beq	a4,a5,80005e62 <_dtoa_r+0x358>
80005dba:	57fd                	li	a5,-1
80005dbc:	c43e                	sw	a5,8(sp)
80005dbe:	5dfd                	li	s11,-1
80005dc0:	47c9                	li	a5,18
80005dc2:	c602                	sw	zero,12(sp)
80005dc4:	a819                	j	80005dda <_dtoa_r+0x2d0>
80005dc6:	4785                	li	a5,1
80005dc8:	c83e                	sw	a5,16(sp)
80005dca:	47b2                	lw	a5,12(sp)
80005dcc:	0af04863          	bgtz	a5,80005e7c <_dtoa_r+0x372>
80005dd0:	4785                	li	a5,1
80005dd2:	4705                	li	a4,1
80005dd4:	c43e                	sw	a5,8(sp)
80005dd6:	4d85                	li	s11,1
80005dd8:	c63a                	sw	a4,12(sp)
80005dda:	0244a903          	lw	s2,36(s1)
80005dde:	4711                	li	a4,4
80005de0:	00092223          	sw	zero,4(s2)
80005de4:	01470693          	addi	a3,a4,20
80005de8:	00492583          	lw	a1,4(s2)
80005dec:	08d7fc63          	bgeu	a5,a3,80005e84 <_dtoa_r+0x37a>
80005df0:	8526                	mv	a0,s1
80005df2:	65d000ef          	jal	ra,80006c4e <_Balloc>
80005df6:	50dc                	lw	a5,36(s1)
80005df8:	00a92023          	sw	a0,0(s2)
80005dfc:	439c                	lw	a5,0(a5)
80005dfe:	c03e                	sw	a5,0(sp)
80005e00:	47b9                	li	a5,14
80005e02:	1db7e663          	bltu	a5,s11,80005fce <_dtoa_r+0x4c4>
80005e06:	1c0c8463          	beqz	s9,80005fce <_dtoa_r+0x4c4>
80005e0a:	0a805e63          	blez	s0,80005ec6 <_dtoa_r+0x3bc>
80005e0e:	00f47793          	andi	a5,s0,15
80005e12:	00379713          	slli	a4,a5,0x3
80005e16:	40445c93          	srai	s9,s0,0x4
80005e1a:	0fffb797          	auipc	a5,0xfffb
80005e1e:	a2e78793          	addi	a5,a5,-1490 # 90000848 <__mprec_tens>
80005e22:	97ba                	add	a5,a5,a4
80005e24:	010cf693          	andi	a3,s9,16
80005e28:	4398                	lw	a4,0(a5)
80005e2a:	4909                	li	s2,2
80005e2c:	43dc                	lw	a5,4(a5)
80005e2e:	c685                	beqz	a3,80005e56 <_dtoa_r+0x34c>
80005e30:	0fffb697          	auipc	a3,0xfffb
80005e34:	9f068693          	addi	a3,a3,-1552 # 90000820 <__mprec_bigtens>
80005e38:	5290                	lw	a2,32(a3)
80005e3a:	4572                	lw	a0,28(sp)
80005e3c:	52d4                	lw	a3,36(a3)
80005e3e:	55a2                	lw	a1,40(sp)
80005e40:	d03a                	sw	a4,32(sp)
80005e42:	d23e                	sw	a5,36(sp)
80005e44:	bdcfe0ef          	jal	ra,80004220 <__divdf3>
80005e48:	5702                	lw	a4,32(sp)
80005e4a:	5792                	lw	a5,36(sp)
80005e4c:	00fcfc93          	andi	s9,s9,15
80005e50:	8a2a                	mv	s4,a0
80005e52:	8c2e                	mv	s8,a1
80005e54:	490d                	li	s2,3
80005e56:	0fffbd17          	auipc	s10,0xfffb
80005e5a:	9cad0d13          	addi	s10,s10,-1590 # 90000820 <__mprec_bigtens>
80005e5e:	a889                	j	80005eb0 <_dtoa_r+0x3a6>
80005e60:	c802                	sw	zero,16(sp)
80005e62:	47b2                	lw	a5,12(sp)
80005e64:	97a2                	add	a5,a5,s0
80005e66:	c43e                	sw	a5,8(sp)
80005e68:	00178d93          	addi	s11,a5,1
80005e6c:	87ee                	mv	a5,s11
80005e6e:	f7b046e3          	bgtz	s11,80005dda <_dtoa_r+0x2d0>
80005e72:	4785                	li	a5,1
80005e74:	b79d                	j	80005dda <_dtoa_r+0x2d0>
80005e76:	4c85                	li	s9,1
80005e78:	c202                	sw	zero,4(sp)
80005e7a:	bde9                	j	80005d54 <_dtoa_r+0x24a>
80005e7c:	47b2                	lw	a5,12(sp)
80005e7e:	c43e                	sw	a5,8(sp)
80005e80:	8dbe                	mv	s11,a5
80005e82:	bfa1                	j	80005dda <_dtoa_r+0x2d0>
80005e84:	0585                	addi	a1,a1,1
80005e86:	00b92223          	sw	a1,4(s2)
80005e8a:	0706                	slli	a4,a4,0x1
80005e8c:	bfa1                	j	80005de4 <_dtoa_r+0x2da>
80005e8e:	001cf693          	andi	a3,s9,1
80005e92:	ce81                	beqz	a3,80005eaa <_dtoa_r+0x3a0>
80005e94:	000d2603          	lw	a2,0(s10)
80005e98:	004d2683          	lw	a3,4(s10)
80005e9c:	853a                	mv	a0,a4
80005e9e:	85be                	mv	a1,a5
80005ea0:	374020ef          	jal	ra,80008214 <__muldf3>
80005ea4:	0905                	addi	s2,s2,1
80005ea6:	872a                	mv	a4,a0
80005ea8:	87ae                	mv	a5,a1
80005eaa:	401cdc93          	srai	s9,s9,0x1
80005eae:	0d21                	addi	s10,s10,8
80005eb0:	fc0c9fe3          	bnez	s9,80005e8e <_dtoa_r+0x384>
80005eb4:	863a                	mv	a2,a4
80005eb6:	86be                	mv	a3,a5
80005eb8:	8552                	mv	a0,s4
80005eba:	85e2                	mv	a1,s8
80005ebc:	b64fe0ef          	jal	ra,80004220 <__divdf3>
80005ec0:	8a2a                	mv	s4,a0
80005ec2:	8c2e                	mv	s8,a1
80005ec4:	a081                	j	80005f04 <_dtoa_r+0x3fa>
80005ec6:	4909                	li	s2,2
80005ec8:	cc15                	beqz	s0,80005f04 <_dtoa_r+0x3fa>
80005eca:	40800cb3          	neg	s9,s0
80005ece:	00fcf793          	andi	a5,s9,15
80005ed2:	00379713          	slli	a4,a5,0x3
80005ed6:	0fffb797          	auipc	a5,0xfffb
80005eda:	97278793          	addi	a5,a5,-1678 # 90000848 <__mprec_tens>
80005ede:	97ba                	add	a5,a5,a4
80005ee0:	4390                	lw	a2,0(a5)
80005ee2:	43d4                	lw	a3,4(a5)
80005ee4:	4572                	lw	a0,28(sp)
80005ee6:	55a2                	lw	a1,40(sp)
80005ee8:	404cdc93          	srai	s9,s9,0x4
80005eec:	0fffbd17          	auipc	s10,0xfffb
80005ef0:	934d0d13          	addi	s10,s10,-1740 # 90000820 <__mprec_bigtens>
80005ef4:	320020ef          	jal	ra,80008214 <__muldf3>
80005ef8:	8a2a                	mv	s4,a0
80005efa:	8c2e                	mv	s8,a1
80005efc:	4781                	li	a5,0
80005efe:	120c9c63          	bnez	s9,80006036 <_dtoa_r+0x52c>
80005f02:	ffdd                	bnez	a5,80005ec0 <_dtoa_r+0x3b6>
80005f04:	57b2                	lw	a5,44(sp)
80005f06:	14078763          	beqz	a5,80006054 <_dtoa_r+0x54a>
80005f0a:	0fffa717          	auipc	a4,0xfffa
80005f0e:	10670713          	addi	a4,a4,262 # 90000010 <_data+0x10>
80005f12:	4310                	lw	a2,0(a4)
80005f14:	4354                	lw	a3,4(a4)
80005f16:	8552                	mv	a0,s4
80005f18:	85e2                	mv	a1,s8
80005f1a:	d052                	sw	s4,32(sp)
80005f1c:	94dfe0ef          	jal	ra,80004868 <__ledf2>
80005f20:	12055a63          	bgez	a0,80006054 <_dtoa_r+0x54a>
80005f24:	120d8b63          	beqz	s11,8000605a <_dtoa_r+0x550>
80005f28:	47a2                	lw	a5,8(sp)
80005f2a:	0af05063          	blez	a5,80005fca <_dtoa_r+0x4c0>
80005f2e:	0fffa717          	auipc	a4,0xfffa
80005f32:	0ea70713          	addi	a4,a4,234 # 90000018 <_data+0x18>
80005f36:	5782                	lw	a5,32(sp)
80005f38:	4310                	lw	a2,0(a4)
80005f3a:	4354                	lw	a3,4(a4)
80005f3c:	853e                	mv	a0,a5
80005f3e:	85e2                	mv	a1,s8
80005f40:	2d4020ef          	jal	ra,80008214 <__muldf3>
80005f44:	47a2                	lw	a5,8(sp)
80005f46:	fff40d13          	addi	s10,s0,-1
80005f4a:	8a2a                	mv	s4,a0
80005f4c:	8c2e                	mv	s8,a1
80005f4e:	0905                	addi	s2,s2,1
80005f50:	8762                	mv	a4,s8
80005f52:	854a                	mv	a0,s2
80005f54:	de3e                	sw	a5,60(sp)
80005f56:	da52                	sw	s4,52(sp)
80005f58:	8cba                	mv	s9,a4
80005f5a:	d03a                	sw	a4,32(sp)
80005f5c:	747020ef          	jal	ra,80008ea2 <__floatsidf>
80005f60:	5852                	lw	a6,52(sp)
80005f62:	5702                	lw	a4,32(sp)
80005f64:	fcc00937          	lui	s2,0xfcc00
80005f68:	8642                	mv	a2,a6
80005f6a:	86ba                	mv	a3,a4
80005f6c:	2a8020ef          	jal	ra,80008214 <__muldf3>
80005f70:	0fffb697          	auipc	a3,0xfffb
80005f74:	82868693          	addi	a3,a3,-2008 # 90000798 <__clz_tab+0x168>
80005f78:	4290                	lw	a2,0(a3)
80005f7a:	42d4                	lw	a3,4(a3)
80005f7c:	8c52                	mv	s8,s4
80005f7e:	2fd010ef          	jal	ra,80007a7a <__adddf3>
80005f82:	57f2                	lw	a5,60(sp)
80005f84:	8a2a                	mv	s4,a0
80005f86:	992e                	add	s2,s2,a1
80005f88:	efe1                	bnez	a5,80006060 <_dtoa_r+0x556>
80005f8a:	0fffb797          	auipc	a5,0xfffb
80005f8e:	81678793          	addi	a5,a5,-2026 # 900007a0 <__clz_tab+0x170>
80005f92:	5852                	lw	a6,52(sp)
80005f94:	5702                	lw	a4,32(sp)
80005f96:	4390                	lw	a2,0(a5)
80005f98:	43d4                	lw	a3,4(a5)
80005f9a:	8542                	mv	a0,a6
80005f9c:	85ba                	mv	a1,a4
80005f9e:	722020ef          	jal	ra,800086c0 <__subdf3>
80005fa2:	8652                	mv	a2,s4
80005fa4:	86ca                	mv	a3,s2
80005fa6:	8c2a                	mv	s8,a0
80005fa8:	8cae                	mv	s9,a1
80005faa:	80ffe0ef          	jal	ra,800047b8 <__gedf2>
80005fae:	54a04663          	bgtz	a0,800064fa <_dtoa_r+0x9f0>
80005fb2:	800007b7          	lui	a5,0x80000
80005fb6:	0127c7b3          	xor	a5,a5,s2
80005fba:	8652                	mv	a2,s4
80005fbc:	86be                	mv	a3,a5
80005fbe:	8562                	mv	a0,s8
80005fc0:	85e6                	mv	a1,s9
80005fc2:	8a7fe0ef          	jal	ra,80004868 <__ledf2>
80005fc6:	52054763          	bltz	a0,800064f4 <_dtoa_r+0x9ea>
80005fca:	4a72                	lw	s4,28(sp)
80005fcc:	5c22                	lw	s8,40(sp)
80005fce:	47b6                	lw	a5,76(sp)
80005fd0:	3007c363          	bltz	a5,800062d6 <_dtoa_r+0x7cc>
80005fd4:	4739                	li	a4,14
80005fd6:	30874063          	blt	a4,s0,800062d6 <_dtoa_r+0x7cc>
80005fda:	00341713          	slli	a4,s0,0x3
80005fde:	0fffb797          	auipc	a5,0xfffb
80005fe2:	86a78793          	addi	a5,a5,-1942 # 90000848 <__mprec_tens>
80005fe6:	97ba                	add	a5,a5,a4
80005fe8:	0007ab03          	lw	s6,0(a5)
80005fec:	0047ab83          	lw	s7,4(a5)
80005ff0:	47b2                	lw	a5,12(sp)
80005ff2:	1e07de63          	bgez	a5,800061ee <_dtoa_r+0x6e4>
80005ff6:	1fb04c63          	bgtz	s11,800061ee <_dtoa_r+0x6e4>
80005ffa:	4e0d9d63          	bnez	s11,800064f4 <_dtoa_r+0x9ea>
80005ffe:	0fffa797          	auipc	a5,0xfffa
80006002:	7a278793          	addi	a5,a5,1954 # 900007a0 <__clz_tab+0x170>
80006006:	4390                	lw	a2,0(a5)
80006008:	43d4                	lw	a3,4(a5)
8000600a:	855a                	mv	a0,s6
8000600c:	85de                	mv	a1,s7
8000600e:	206020ef          	jal	ra,80008214 <__muldf3>
80006012:	8652                	mv	a2,s4
80006014:	86e2                	mv	a3,s8
80006016:	fa2fe0ef          	jal	ra,800047b8 <__gedf2>
8000601a:	4a81                	li	s5,0
8000601c:	4901                	li	s2,0
8000601e:	4a055363          	bgez	a0,800064c4 <_dtoa_r+0x9ba>
80006022:	4782                	lw	a5,0(sp)
80006024:	4702                	lw	a4,0(sp)
80006026:	0405                	addi	s0,s0,1
80006028:	00178a13          	addi	s4,a5,1
8000602c:	03100793          	li	a5,49
80006030:	00f70023          	sb	a5,0(a4)
80006034:	a961                	j	800064cc <_dtoa_r+0x9c2>
80006036:	001cf713          	andi	a4,s9,1
8000603a:	cb09                	beqz	a4,8000604c <_dtoa_r+0x542>
8000603c:	000d2603          	lw	a2,0(s10)
80006040:	004d2683          	lw	a3,4(s10)
80006044:	0905                	addi	s2,s2,1
80006046:	1ce020ef          	jal	ra,80008214 <__muldf3>
8000604a:	4785                	li	a5,1
8000604c:	401cdc93          	srai	s9,s9,0x1
80006050:	0d21                	addi	s10,s10,8
80006052:	b575                	j	80005efe <_dtoa_r+0x3f4>
80006054:	8d22                	mv	s10,s0
80006056:	87ee                	mv	a5,s11
80006058:	bde5                	j	80005f50 <_dtoa_r+0x446>
8000605a:	8d22                	mv	s10,s0
8000605c:	4781                	li	a5,0
8000605e:	bdcd                	j	80005f50 <_dtoa_r+0x446>
80006060:	fff78693          	addi	a3,a5,-1
80006064:	00369613          	slli	a2,a3,0x3
80006068:	0fffa697          	auipc	a3,0xfffa
8000606c:	7e068693          	addi	a3,a3,2016 # 90000848 <__mprec_tens>
80006070:	96b2                	add	a3,a3,a2
80006072:	4288                	lw	a0,0(a3)
80006074:	42cc                	lw	a1,4(a3)
80006076:	4682                	lw	a3,0(sp)
80006078:	97b6                	add	a5,a5,a3
8000607a:	da3e                	sw	a5,52(sp)
8000607c:	47c2                	lw	a5,16(sp)
8000607e:	cfcd                	beqz	a5,80006138 <_dtoa_r+0x62e>
80006080:	0fffa797          	auipc	a5,0xfffa
80006084:	72878793          	addi	a5,a5,1832 # 900007a8 <__clz_tab+0x178>
80006088:	862a                	mv	a2,a0
8000608a:	86ae                	mv	a3,a1
8000608c:	4388                	lw	a0,0(a5)
8000608e:	43cc                	lw	a1,4(a5)
80006090:	de4a                	sw	s2,60(sp)
80006092:	d052                	sw	s4,32(sp)
80006094:	98cfe0ef          	jal	ra,80004220 <__divdf3>
80006098:	5802                	lw	a6,32(sp)
8000609a:	5772                	lw	a4,60(sp)
8000609c:	0fffa917          	auipc	s2,0xfffa
800060a0:	f7c90913          	addi	s2,s2,-132 # 90000018 <_data+0x18>
800060a4:	8642                	mv	a2,a6
800060a6:	86ba                	mv	a3,a4
800060a8:	618020ef          	jal	ra,800086c0 <__subdf3>
800060ac:	4a02                	lw	s4,0(sp)
800060ae:	d02a                	sw	a0,32(sp)
800060b0:	d22e                	sw	a1,36(sp)
800060b2:	85e6                	mv	a1,s9
800060b4:	8562                	mv	a0,s8
800060b6:	585020ef          	jal	ra,80008e3a <__fixdfsi>
800060ba:	de2a                	sw	a0,60(sp)
800060bc:	5e7020ef          	jal	ra,80008ea2 <__floatsidf>
800060c0:	862a                	mv	a2,a0
800060c2:	86ae                	mv	a3,a1
800060c4:	8562                	mv	a0,s8
800060c6:	85e6                	mv	a1,s9
800060c8:	5f8020ef          	jal	ra,800086c0 <__subdf3>
800060cc:	57f2                	lw	a5,60(sp)
800060ce:	5602                	lw	a2,32(sp)
800060d0:	5692                	lw	a3,36(sp)
800060d2:	0a05                	addi	s4,s4,1
800060d4:	03078793          	addi	a5,a5,48
800060d8:	fefa0fa3          	sb	a5,-1(s4)
800060dc:	8c2a                	mv	s8,a0
800060de:	8cae                	mv	s9,a1
800060e0:	f88fe0ef          	jal	ra,80004868 <__ledf2>
800060e4:	0e054663          	bltz	a0,800061d0 <_dtoa_r+0x6c6>
800060e8:	0fffa797          	auipc	a5,0xfffa
800060ec:	f2878793          	addi	a5,a5,-216 # 90000010 <_data+0x10>
800060f0:	4388                	lw	a0,0(a5)
800060f2:	43cc                	lw	a1,4(a5)
800060f4:	8662                	mv	a2,s8
800060f6:	86e6                	mv	a3,s9
800060f8:	5c8020ef          	jal	ra,800086c0 <__subdf3>
800060fc:	5602                	lw	a2,32(sp)
800060fe:	5692                	lw	a3,36(sp)
80006100:	f68fe0ef          	jal	ra,80004868 <__ledf2>
80006104:	18054263          	bltz	a0,80006288 <_dtoa_r+0x77e>
80006108:	57d2                	lw	a5,52(sp)
8000610a:	ecfa00e3          	beq	s4,a5,80005fca <_dtoa_r+0x4c0>
8000610e:	00092603          	lw	a2,0(s2)
80006112:	00492683          	lw	a3,4(s2)
80006116:	5502                	lw	a0,32(sp)
80006118:	5592                	lw	a1,36(sp)
8000611a:	0fa020ef          	jal	ra,80008214 <__muldf3>
8000611e:	00092603          	lw	a2,0(s2)
80006122:	00492683          	lw	a3,4(s2)
80006126:	d02a                	sw	a0,32(sp)
80006128:	d22e                	sw	a1,36(sp)
8000612a:	8562                	mv	a0,s8
8000612c:	85e6                	mv	a1,s9
8000612e:	0e6020ef          	jal	ra,80008214 <__muldf3>
80006132:	8c2a                	mv	s8,a0
80006134:	8cae                	mv	s9,a1
80006136:	bfb5                	j	800060b2 <_dtoa_r+0x5a8>
80006138:	8652                	mv	a2,s4
8000613a:	86ca                	mv	a3,s2
8000613c:	0d8020ef          	jal	ra,80008214 <__muldf3>
80006140:	5a52                	lw	s4,52(sp)
80006142:	4902                	lw	s2,0(sp)
80006144:	d02a                	sw	a0,32(sp)
80006146:	d22e                	sw	a1,36(sp)
80006148:	85e6                	mv	a1,s9
8000614a:	8562                	mv	a0,s8
8000614c:	4ef020ef          	jal	ra,80008e3a <__fixdfsi>
80006150:	de2a                	sw	a0,60(sp)
80006152:	551020ef          	jal	ra,80008ea2 <__floatsidf>
80006156:	862a                	mv	a2,a0
80006158:	86ae                	mv	a3,a1
8000615a:	8562                	mv	a0,s8
8000615c:	85e6                	mv	a1,s9
8000615e:	562020ef          	jal	ra,800086c0 <__subdf3>
80006162:	5772                	lw	a4,60(sp)
80006164:	57d2                	lw	a5,52(sp)
80006166:	0905                	addi	s2,s2,1
80006168:	03070713          	addi	a4,a4,48
8000616c:	fee90fa3          	sb	a4,-1(s2)
80006170:	8c2a                	mv	s8,a0
80006172:	8cae                	mv	s9,a1
80006174:	06f91263          	bne	s2,a5,800061d8 <_dtoa_r+0x6ce>
80006178:	0fffa917          	auipc	s2,0xfffa
8000617c:	63090913          	addi	s2,s2,1584 # 900007a8 <__clz_tab+0x178>
80006180:	00092603          	lw	a2,0(s2)
80006184:	00492683          	lw	a3,4(s2)
80006188:	5502                	lw	a0,32(sp)
8000618a:	5592                	lw	a1,36(sp)
8000618c:	0ef010ef          	jal	ra,80007a7a <__adddf3>
80006190:	862a                	mv	a2,a0
80006192:	86ae                	mv	a3,a1
80006194:	8562                	mv	a0,s8
80006196:	85e6                	mv	a1,s9
80006198:	e20fe0ef          	jal	ra,800047b8 <__gedf2>
8000619c:	0ea04663          	bgtz	a0,80006288 <_dtoa_r+0x77e>
800061a0:	5602                	lw	a2,32(sp)
800061a2:	5692                	lw	a3,36(sp)
800061a4:	00092503          	lw	a0,0(s2)
800061a8:	00492583          	lw	a1,4(s2)
800061ac:	514020ef          	jal	ra,800086c0 <__subdf3>
800061b0:	862a                	mv	a2,a0
800061b2:	86ae                	mv	a3,a1
800061b4:	8562                	mv	a0,s8
800061b6:	85e6                	mv	a1,s9
800061b8:	eb0fe0ef          	jal	ra,80004868 <__ledf2>
800061bc:	03000793          	li	a5,48
800061c0:	e00555e3          	bgez	a0,80005fca <_dtoa_r+0x4c0>
800061c4:	fffa4703          	lbu	a4,-1(s4)
800061c8:	fffa0693          	addi	a3,s4,-1
800061cc:	00f70463          	beq	a4,a5,800061d4 <_dtoa_r+0x6ca>
800061d0:	846a                	mv	s0,s10
800061d2:	a859                	j	80006268 <_dtoa_r+0x75e>
800061d4:	8a36                	mv	s4,a3
800061d6:	b7fd                	j	800061c4 <_dtoa_r+0x6ba>
800061d8:	0fffa797          	auipc	a5,0xfffa
800061dc:	e4078793          	addi	a5,a5,-448 # 90000018 <_data+0x18>
800061e0:	4390                	lw	a2,0(a5)
800061e2:	43d4                	lw	a3,4(a5)
800061e4:	030020ef          	jal	ra,80008214 <__muldf3>
800061e8:	8c2a                	mv	s8,a0
800061ea:	8cae                	mv	s9,a1
800061ec:	bfb1                	j	80006148 <_dtoa_r+0x63e>
800061ee:	87e2                	mv	a5,s8
800061f0:	8cbe                	mv	s9,a5
800061f2:	4782                	lw	a5,0(sp)
800061f4:	8c52                	mv	s8,s4
800061f6:	0fffaa97          	auipc	s5,0xfffa
800061fa:	e22a8a93          	addi	s5,s5,-478 # 90000018 <_data+0x18>
800061fe:	00178913          	addi	s2,a5,1
80006202:	9dbe                	add	s11,s11,a5
80006204:	865a                	mv	a2,s6
80006206:	86de                	mv	a3,s7
80006208:	8562                	mv	a0,s8
8000620a:	85e6                	mv	a1,s9
8000620c:	814fe0ef          	jal	ra,80004220 <__divdf3>
80006210:	42b020ef          	jal	ra,80008e3a <__fixdfsi>
80006214:	8d2a                	mv	s10,a0
80006216:	48d020ef          	jal	ra,80008ea2 <__floatsidf>
8000621a:	865a                	mv	a2,s6
8000621c:	86de                	mv	a3,s7
8000621e:	7f7010ef          	jal	ra,80008214 <__muldf3>
80006222:	862a                	mv	a2,a0
80006224:	86ae                	mv	a3,a1
80006226:	8562                	mv	a0,s8
80006228:	85e6                	mv	a1,s9
8000622a:	496020ef          	jal	ra,800086c0 <__subdf3>
8000622e:	030d0793          	addi	a5,s10,48
80006232:	fef90fa3          	sb	a5,-1(s2)
80006236:	862a                	mv	a2,a0
80006238:	86ae                	mv	a3,a1
8000623a:	8a4a                	mv	s4,s2
8000623c:	072d9e63          	bne	s11,s2,800062b8 <_dtoa_r+0x7ae>
80006240:	03b010ef          	jal	ra,80007a7a <__adddf3>
80006244:	865a                	mv	a2,s6
80006246:	86de                	mv	a3,s7
80006248:	8c2a                	mv	s8,a0
8000624a:	8cae                	mv	s9,a1
8000624c:	d6cfe0ef          	jal	ra,800047b8 <__gedf2>
80006250:	02a04b63          	bgtz	a0,80006286 <_dtoa_r+0x77c>
80006254:	865a                	mv	a2,s6
80006256:	86de                	mv	a3,s7
80006258:	8562                	mv	a0,s8
8000625a:	85e6                	mv	a1,s9
8000625c:	74f010ef          	jal	ra,800081aa <__eqdf2>
80006260:	e501                	bnez	a0,80006268 <_dtoa_r+0x75e>
80006262:	001d7793          	andi	a5,s10,1
80006266:	e385                	bnez	a5,80006286 <_dtoa_r+0x77c>
80006268:	85ce                	mv	a1,s3
8000626a:	8526                	mv	a0,s1
8000626c:	269000ef          	jal	ra,80006cd4 <_Bfree>
80006270:	57c2                	lw	a5,48(sp)
80006272:	000a0023          	sb	zero,0(s4)
80006276:	0405                	addi	s0,s0,1
80006278:	c380                	sw	s0,0(a5)
8000627a:	47d2                	lw	a5,20(sp)
8000627c:	94078de3          	beqz	a5,80005bd6 <_dtoa_r+0xcc>
80006280:	0147a023          	sw	s4,0(a5)
80006284:	ba89                	j	80005bd6 <_dtoa_r+0xcc>
80006286:	8d22                	mv	s10,s0
80006288:	03900713          	li	a4,57
8000628c:	fffa4683          	lbu	a3,-1(s4)
80006290:	fffa0793          	addi	a5,s4,-1
80006294:	00e69a63          	bne	a3,a4,800062a8 <_dtoa_r+0x79e>
80006298:	4682                	lw	a3,0(sp)
8000629a:	00f69d63          	bne	a3,a5,800062b4 <_dtoa_r+0x7aa>
8000629e:	03000713          	li	a4,48
800062a2:	0d05                	addi	s10,s10,1
800062a4:	00e68023          	sb	a4,0(a3)
800062a8:	0007c703          	lbu	a4,0(a5)
800062ac:	0705                	addi	a4,a4,1
800062ae:	00e78023          	sb	a4,0(a5)
800062b2:	bf39                	j	800061d0 <_dtoa_r+0x6c6>
800062b4:	8a3e                	mv	s4,a5
800062b6:	bfd9                	j	8000628c <_dtoa_r+0x782>
800062b8:	000aa603          	lw	a2,0(s5)
800062bc:	004aa683          	lw	a3,4(s5)
800062c0:	0905                	addi	s2,s2,1
800062c2:	753010ef          	jal	ra,80008214 <__muldf3>
800062c6:	4601                	li	a2,0
800062c8:	4681                	li	a3,0
800062ca:	8c2a                	mv	s8,a0
800062cc:	8cae                	mv	s9,a1
800062ce:	6dd010ef          	jal	ra,800081aa <__eqdf2>
800062d2:	f90d                	bnez	a0,80006204 <_dtoa_r+0x6fa>
800062d4:	bf51                	j	80006268 <_dtoa_r+0x75e>
800062d6:	4742                	lw	a4,16(sp)
800062d8:	10070063          	beqz	a4,800063d8 <_dtoa_r+0x8ce>
800062dc:	4692                	lw	a3,4(sp)
800062de:	4705                	li	a4,1
800062e0:	0cd74563          	blt	a4,a3,800063aa <_dtoa_r+0x8a0>
800062e4:	5762                	lw	a4,56(sp)
800062e6:	43378793          	addi	a5,a5,1075
800062ea:	e709                	bnez	a4,800062f4 <_dtoa_r+0x7ea>
800062ec:	4726                	lw	a4,72(sp)
800062ee:	03600793          	li	a5,54
800062f2:	8f99                	sub	a5,a5,a4
800062f4:	8d56                	mv	s10,s5
800062f6:	8cda                	mv	s9,s6
800062f8:	4585                	li	a1,1
800062fa:	8526                	mv	a0,s1
800062fc:	9b3e                	add	s6,s6,a5
800062fe:	9bbe                	add	s7,s7,a5
80006300:	359000ef          	jal	ra,80006e58 <__i2b>
80006304:	892a                	mv	s2,a0
80006306:	01905e63          	blez	s9,80006322 <_dtoa_r+0x818>
8000630a:	01705c63          	blez	s7,80006322 <_dtoa_r+0x818>
8000630e:	87e6                	mv	a5,s9
80006310:	019bd363          	bge	s7,s9,80006316 <_dtoa_r+0x80c>
80006314:	87de                	mv	a5,s7
80006316:	40fb0b33          	sub	s6,s6,a5
8000631a:	40fc8cb3          	sub	s9,s9,a5
8000631e:	40fb8bb3          	sub	s7,s7,a5
80006322:	040a8063          	beqz	s5,80006362 <_dtoa_r+0x858>
80006326:	47c2                	lw	a5,16(sp)
80006328:	cfc5                	beqz	a5,800063e0 <_dtoa_r+0x8d6>
8000632a:	03a05463          	blez	s10,80006352 <_dtoa_r+0x848>
8000632e:	85ca                	mv	a1,s2
80006330:	866a                	mv	a2,s10
80006332:	8526                	mv	a0,s1
80006334:	483000ef          	jal	ra,80006fb6 <__pow5mult>
80006338:	864e                	mv	a2,s3
8000633a:	85aa                	mv	a1,a0
8000633c:	892a                	mv	s2,a0
8000633e:	8526                	mv	a0,s1
80006340:	333000ef          	jal	ra,80006e72 <__multiply>
80006344:	ce2a                	sw	a0,28(sp)
80006346:	85ce                	mv	a1,s3
80006348:	8526                	mv	a0,s1
8000634a:	18b000ef          	jal	ra,80006cd4 <_Bfree>
8000634e:	47f2                	lw	a5,28(sp)
80006350:	89be                	mv	s3,a5
80006352:	41aa8633          	sub	a2,s5,s10
80006356:	c611                	beqz	a2,80006362 <_dtoa_r+0x858>
80006358:	85ce                	mv	a1,s3
8000635a:	8526                	mv	a0,s1
8000635c:	45b000ef          	jal	ra,80006fb6 <__pow5mult>
80006360:	89aa                	mv	s3,a0
80006362:	4585                	li	a1,1
80006364:	8526                	mv	a0,s1
80006366:	2f3000ef          	jal	ra,80006e58 <__i2b>
8000636a:	47e2                	lw	a5,24(sp)
8000636c:	8aaa                	mv	s5,a0
8000636e:	06f05b63          	blez	a5,800063e4 <_dtoa_r+0x8da>
80006372:	863e                	mv	a2,a5
80006374:	85aa                	mv	a1,a0
80006376:	8526                	mv	a0,s1
80006378:	43f000ef          	jal	ra,80006fb6 <__pow5mult>
8000637c:	4712                	lw	a4,4(sp)
8000637e:	4785                	li	a5,1
80006380:	8aaa                	mv	s5,a0
80006382:	4d01                	li	s10,0
80006384:	06e7c863          	blt	a5,a4,800063f4 <_dtoa_r+0x8ea>
80006388:	4d01                	li	s10,0
8000638a:	060a1263          	bnez	s4,800063ee <_dtoa_r+0x8e4>
8000638e:	00cc1793          	slli	a5,s8,0xc
80006392:	8d52                	mv	s10,s4
80006394:	efa9                	bnez	a5,800063ee <_dtoa_r+0x8e4>
80006396:	7ff005b7          	lui	a1,0x7ff00
8000639a:	00bc7c33          	and	s8,s8,a1
8000639e:	040c0863          	beqz	s8,800063ee <_dtoa_r+0x8e4>
800063a2:	0b05                	addi	s6,s6,1
800063a4:	0b85                	addi	s7,s7,1
800063a6:	4d05                	li	s10,1
800063a8:	a099                	j	800063ee <_dtoa_r+0x8e4>
800063aa:	fffd8d13          	addi	s10,s11,-1
800063ae:	01aaca63          	blt	s5,s10,800063c2 <_dtoa_r+0x8b8>
800063b2:	41aa8d33          	sub	s10,s5,s10
800063b6:	000dde63          	bgez	s11,800063d2 <_dtoa_r+0x8c8>
800063ba:	41bb0cb3          	sub	s9,s6,s11
800063be:	4781                	li	a5,0
800063c0:	bf25                	j	800062f8 <_dtoa_r+0x7ee>
800063c2:	47e2                	lw	a5,24(sp)
800063c4:	415d0ab3          	sub	s5,s10,s5
800063c8:	97d6                	add	a5,a5,s5
800063ca:	cc3e                	sw	a5,24(sp)
800063cc:	8aea                	mv	s5,s10
800063ce:	4d01                	li	s10,0
800063d0:	b7dd                	j	800063b6 <_dtoa_r+0x8ac>
800063d2:	8cda                	mv	s9,s6
800063d4:	87ee                	mv	a5,s11
800063d6:	b70d                	j	800062f8 <_dtoa_r+0x7ee>
800063d8:	8d56                	mv	s10,s5
800063da:	8cda                	mv	s9,s6
800063dc:	4901                	li	s2,0
800063de:	b725                	j	80006306 <_dtoa_r+0x7fc>
800063e0:	8656                	mv	a2,s5
800063e2:	bf9d                	j	80006358 <_dtoa_r+0x84e>
800063e4:	4712                	lw	a4,4(sp)
800063e6:	4785                	li	a5,1
800063e8:	4d01                	li	s10,0
800063ea:	f8e7dfe3          	bge	a5,a4,80006388 <_dtoa_r+0x87e>
800063ee:	47e2                	lw	a5,24(sp)
800063f0:	4505                	li	a0,1
800063f2:	cf89                	beqz	a5,8000640c <_dtoa_r+0x902>
800063f4:	010aa783          	lw	a5,16(s5)
800063f8:	078d                	addi	a5,a5,3
800063fa:	078a                	slli	a5,a5,0x2
800063fc:	97d6                	add	a5,a5,s5
800063fe:	43c8                	lw	a0,4(a5)
80006400:	1a9000ef          	jal	ra,80006da8 <__hi0bits>
80006404:	02000793          	li	a5,32
80006408:	40a78533          	sub	a0,a5,a0
8000640c:	955e                	add	a0,a0,s7
8000640e:	897d                	andi	a0,a0,31
80006410:	c151                	beqz	a0,80006494 <_dtoa_r+0x98a>
80006412:	02000793          	li	a5,32
80006416:	8f89                	sub	a5,a5,a0
80006418:	4711                	li	a4,4
8000641a:	06f75a63          	bge	a4,a5,8000648e <_dtoa_r+0x984>
8000641e:	47f1                	li	a5,28
80006420:	40a78533          	sub	a0,a5,a0
80006424:	9b2a                	add	s6,s6,a0
80006426:	9caa                	add	s9,s9,a0
80006428:	9baa                	add	s7,s7,a0
8000642a:	01605863          	blez	s6,8000643a <_dtoa_r+0x930>
8000642e:	85ce                	mv	a1,s3
80006430:	865a                	mv	a2,s6
80006432:	8526                	mv	a0,s1
80006434:	43b000ef          	jal	ra,8000706e <__lshift>
80006438:	89aa                	mv	s3,a0
8000643a:	01705863          	blez	s7,8000644a <_dtoa_r+0x940>
8000643e:	85d6                	mv	a1,s5
80006440:	865e                	mv	a2,s7
80006442:	8526                	mv	a0,s1
80006444:	42b000ef          	jal	ra,8000706e <__lshift>
80006448:	8aaa                	mv	s5,a0
8000644a:	57b2                	lw	a5,44(sp)
8000644c:	c7b1                	beqz	a5,80006498 <_dtoa_r+0x98e>
8000644e:	85d6                	mv	a1,s5
80006450:	854e                	mv	a0,s3
80006452:	4eb000ef          	jal	ra,8000713c <__mcmp>
80006456:	04055163          	bgez	a0,80006498 <_dtoa_r+0x98e>
8000645a:	85ce                	mv	a1,s3
8000645c:	4681                	li	a3,0
8000645e:	4629                	li	a2,10
80006460:	8526                	mv	a0,s1
80006462:	0b5000ef          	jal	ra,80006d16 <__multadd>
80006466:	47c2                	lw	a5,16(sp)
80006468:	147d                	addi	s0,s0,-1
8000646a:	89aa                	mv	s3,a0
8000646c:	26078c63          	beqz	a5,800066e4 <_dtoa_r+0xbda>
80006470:	85ca                	mv	a1,s2
80006472:	4681                	li	a3,0
80006474:	4629                	li	a2,10
80006476:	8526                	mv	a0,s1
80006478:	09f000ef          	jal	ra,80006d16 <__multadd>
8000647c:	47a2                	lw	a5,8(sp)
8000647e:	892a                	mv	s2,a0
80006480:	08f04563          	bgtz	a5,8000650a <_dtoa_r+0xa00>
80006484:	4712                	lw	a4,4(sp)
80006486:	4789                	li	a5,2
80006488:	08e7d163          	bge	a5,a4,8000650a <_dtoa_r+0xa00>
8000648c:	a829                	j	800064a6 <_dtoa_r+0x99c>
8000648e:	f8e78ee3          	beq	a5,a4,8000642a <_dtoa_r+0x920>
80006492:	853e                	mv	a0,a5
80006494:	0571                	addi	a0,a0,28
80006496:	b779                	j	80006424 <_dtoa_r+0x91a>
80006498:	07b04563          	bgtz	s11,80006502 <_dtoa_r+0x9f8>
8000649c:	4712                	lw	a4,4(sp)
8000649e:	4789                	li	a5,2
800064a0:	06e7d163          	bge	a5,a4,80006502 <_dtoa_r+0x9f8>
800064a4:	c46e                	sw	s11,8(sp)
800064a6:	47a2                	lw	a5,8(sp)
800064a8:	ef91                	bnez	a5,800064c4 <_dtoa_r+0x9ba>
800064aa:	85d6                	mv	a1,s5
800064ac:	4681                	li	a3,0
800064ae:	4615                	li	a2,5
800064b0:	8526                	mv	a0,s1
800064b2:	065000ef          	jal	ra,80006d16 <__multadd>
800064b6:	8aaa                	mv	s5,a0
800064b8:	85aa                	mv	a1,a0
800064ba:	854e                	mv	a0,s3
800064bc:	481000ef          	jal	ra,8000713c <__mcmp>
800064c0:	b6a041e3          	bgtz	a0,80006022 <_dtoa_r+0x518>
800064c4:	47b2                	lw	a5,12(sp)
800064c6:	4a02                	lw	s4,0(sp)
800064c8:	fff7c413          	not	s0,a5
800064cc:	4b01                	li	s6,0
800064ce:	85d6                	mv	a1,s5
800064d0:	8526                	mv	a0,s1
800064d2:	003000ef          	jal	ra,80006cd4 <_Bfree>
800064d6:	d80909e3          	beqz	s2,80006268 <_dtoa_r+0x75e>
800064da:	000b0863          	beqz	s6,800064ea <_dtoa_r+0x9e0>
800064de:	012b0663          	beq	s6,s2,800064ea <_dtoa_r+0x9e0>
800064e2:	85da                	mv	a1,s6
800064e4:	8526                	mv	a0,s1
800064e6:	7ee000ef          	jal	ra,80006cd4 <_Bfree>
800064ea:	85ca                	mv	a1,s2
800064ec:	8526                	mv	a0,s1
800064ee:	7e6000ef          	jal	ra,80006cd4 <_Bfree>
800064f2:	bb9d                	j	80006268 <_dtoa_r+0x75e>
800064f4:	4a81                	li	s5,0
800064f6:	4901                	li	s2,0
800064f8:	b7f1                	j	800064c4 <_dtoa_r+0x9ba>
800064fa:	846a                	mv	s0,s10
800064fc:	4a81                	li	s5,0
800064fe:	4901                	li	s2,0
80006500:	b60d                	j	80006022 <_dtoa_r+0x518>
80006502:	47c2                	lw	a5,16(sp)
80006504:	c46e                	sw	s11,8(sp)
80006506:	1e078663          	beqz	a5,800066f2 <_dtoa_r+0xbe8>
8000650a:	01905863          	blez	s9,8000651a <_dtoa_r+0xa10>
8000650e:	85ca                	mv	a1,s2
80006510:	8666                	mv	a2,s9
80006512:	8526                	mv	a0,s1
80006514:	35b000ef          	jal	ra,8000706e <__lshift>
80006518:	892a                	mv	s2,a0
8000651a:	854a                	mv	a0,s2
8000651c:	020d0663          	beqz	s10,80006548 <_dtoa_r+0xa3e>
80006520:	00492583          	lw	a1,4(s2)
80006524:	8526                	mv	a0,s1
80006526:	728000ef          	jal	ra,80006c4e <_Balloc>
8000652a:	01092603          	lw	a2,16(s2)
8000652e:	8b2a                	mv	s6,a0
80006530:	00c90593          	addi	a1,s2,12
80006534:	0609                	addi	a2,a2,2
80006536:	060a                	slli	a2,a2,0x2
80006538:	0531                	addi	a0,a0,12
8000653a:	6ee000ef          	jal	ra,80006c28 <memcpy>
8000653e:	4605                	li	a2,1
80006540:	85da                	mv	a1,s6
80006542:	8526                	mv	a0,s1
80006544:	32b000ef          	jal	ra,8000706e <__lshift>
80006548:	4782                	lw	a5,0(sp)
8000654a:	4722                	lw	a4,8(sp)
8000654c:	8b4a                	mv	s6,s2
8000654e:	00178c13          	addi	s8,a5,1
80006552:	97ba                	add	a5,a5,a4
80006554:	c63e                	sw	a5,12(sp)
80006556:	001a7793          	andi	a5,s4,1
8000655a:	892a                	mv	s2,a0
8000655c:	c43e                	sw	a5,8(sp)
8000655e:	85d6                	mv	a1,s5
80006560:	854e                	mv	a0,s3
80006562:	c6eff0ef          	jal	ra,800059d0 <quorem>
80006566:	85da                	mv	a1,s6
80006568:	8d2a                	mv	s10,a0
8000656a:	03050d93          	addi	s11,a0,48
8000656e:	854e                	mv	a0,s3
80006570:	3cd000ef          	jal	ra,8000713c <__mcmp>
80006574:	864a                	mv	a2,s2
80006576:	8baa                	mv	s7,a0
80006578:	85d6                	mv	a1,s5
8000657a:	8526                	mv	a0,s1
8000657c:	3f3000ef          	jal	ra,8000716e <__mdiff>
80006580:	4550                	lw	a2,12(a0)
80006582:	fffc0c93          	addi	s9,s8,-1
80006586:	8a2a                	mv	s4,a0
80006588:	4705                	li	a4,1
8000658a:	e611                	bnez	a2,80006596 <_dtoa_r+0xa8c>
8000658c:	85aa                	mv	a1,a0
8000658e:	854e                	mv	a0,s3
80006590:	3ad000ef          	jal	ra,8000713c <__mcmp>
80006594:	872a                	mv	a4,a0
80006596:	85d2                	mv	a1,s4
80006598:	8526                	mv	a0,s1
8000659a:	c83a                	sw	a4,16(sp)
8000659c:	738000ef          	jal	ra,80006cd4 <_Bfree>
800065a0:	4792                	lw	a5,4(sp)
800065a2:	4742                	lw	a4,16(sp)
800065a4:	8a62                	mv	s4,s8
800065a6:	00e7e6b3          	or	a3,a5,a4
800065aa:	47a2                	lw	a5,8(sp)
800065ac:	8edd                	or	a3,a3,a5
800065ae:	ee81                	bnez	a3,800065c6 <_dtoa_r+0xabc>
800065b0:	03900713          	li	a4,57
800065b4:	04ed8863          	beq	s11,a4,80006604 <_dtoa_r+0xafa>
800065b8:	01705463          	blez	s7,800065c0 <_dtoa_r+0xab6>
800065bc:	031d0d93          	addi	s11,s10,49
800065c0:	01bc8023          	sb	s11,0(s9)
800065c4:	b729                	j	800064ce <_dtoa_r+0x9c4>
800065c6:	000bca63          	bltz	s7,800065da <_dtoa_r+0xad0>
800065ca:	4792                	lw	a5,4(sp)
800065cc:	0177ebb3          	or	s7,a5,s7
800065d0:	47a2                	lw	a5,8(sp)
800065d2:	00fbebb3          	or	s7,s7,a5
800065d6:	040b9563          	bnez	s7,80006620 <_dtoa_r+0xb16>
800065da:	fee053e3          	blez	a4,800065c0 <_dtoa_r+0xab6>
800065de:	85ce                	mv	a1,s3
800065e0:	4605                	li	a2,1
800065e2:	8526                	mv	a0,s1
800065e4:	28b000ef          	jal	ra,8000706e <__lshift>
800065e8:	85d6                	mv	a1,s5
800065ea:	89aa                	mv	s3,a0
800065ec:	351000ef          	jal	ra,8000713c <__mcmp>
800065f0:	00a04663          	bgtz	a0,800065fc <_dtoa_r+0xaf2>
800065f4:	f571                	bnez	a0,800065c0 <_dtoa_r+0xab6>
800065f6:	001df713          	andi	a4,s11,1
800065fa:	d379                	beqz	a4,800065c0 <_dtoa_r+0xab6>
800065fc:	03900713          	li	a4,57
80006600:	faed9ee3          	bne	s11,a4,800065bc <_dtoa_r+0xab2>
80006604:	03900793          	li	a5,57
80006608:	00fc8023          	sb	a5,0(s9)
8000660c:	03900693          	li	a3,57
80006610:	fffa4783          	lbu	a5,-1(s4)
80006614:	fffa0713          	addi	a4,s4,-1
80006618:	08d78c63          	beq	a5,a3,800066b0 <_dtoa_r+0xba6>
8000661c:	0785                	addi	a5,a5,1
8000661e:	a045                	j	800066be <_dtoa_r+0xbb4>
80006620:	00e05b63          	blez	a4,80006636 <_dtoa_r+0xb2c>
80006624:	03900713          	li	a4,57
80006628:	fced8ee3          	beq	s11,a4,80006604 <_dtoa_r+0xafa>
8000662c:	001d8793          	addi	a5,s11,1
80006630:	00fc8023          	sb	a5,0(s9)
80006634:	bd69                	j	800064ce <_dtoa_r+0x9c4>
80006636:	47b2                	lw	a5,12(sp)
80006638:	ffbc0fa3          	sb	s11,-1(s8)
8000663c:	05878163          	beq	a5,s8,8000667e <_dtoa_r+0xb74>
80006640:	85ce                	mv	a1,s3
80006642:	4681                	li	a3,0
80006644:	4629                	li	a2,10
80006646:	8526                	mv	a0,s1
80006648:	6ce000ef          	jal	ra,80006d16 <__multadd>
8000664c:	89aa                	mv	s3,a0
8000664e:	4681                	li	a3,0
80006650:	4629                	li	a2,10
80006652:	85da                	mv	a1,s6
80006654:	8526                	mv	a0,s1
80006656:	012b1863          	bne	s6,s2,80006666 <_dtoa_r+0xb5c>
8000665a:	6bc000ef          	jal	ra,80006d16 <__multadd>
8000665e:	8b2a                	mv	s6,a0
80006660:	892a                	mv	s2,a0
80006662:	0c05                	addi	s8,s8,1
80006664:	bded                	j	8000655e <_dtoa_r+0xa54>
80006666:	6b0000ef          	jal	ra,80006d16 <__multadd>
8000666a:	85ca                	mv	a1,s2
8000666c:	8b2a                	mv	s6,a0
8000666e:	4681                	li	a3,0
80006670:	4629                	li	a2,10
80006672:	8526                	mv	a0,s1
80006674:	6a2000ef          	jal	ra,80006d16 <__multadd>
80006678:	892a                	mv	s2,a0
8000667a:	b7e5                	j	80006662 <_dtoa_r+0xb58>
8000667c:	4b01                	li	s6,0
8000667e:	85ce                	mv	a1,s3
80006680:	4605                	li	a2,1
80006682:	8526                	mv	a0,s1
80006684:	1eb000ef          	jal	ra,8000706e <__lshift>
80006688:	85d6                	mv	a1,s5
8000668a:	89aa                	mv	s3,a0
8000668c:	2b1000ef          	jal	ra,8000713c <__mcmp>
80006690:	f6a04ee3          	bgtz	a0,8000660c <_dtoa_r+0xb02>
80006694:	e501                	bnez	a0,8000669c <_dtoa_r+0xb92>
80006696:	001df793          	andi	a5,s11,1
8000669a:	fbad                	bnez	a5,8000660c <_dtoa_r+0xb02>
8000669c:	03000793          	li	a5,48
800066a0:	fffa4703          	lbu	a4,-1(s4)
800066a4:	fffa0693          	addi	a3,s4,-1
800066a8:	e2f713e3          	bne	a4,a5,800064ce <_dtoa_r+0x9c4>
800066ac:	8a36                	mv	s4,a3
800066ae:	bfcd                	j	800066a0 <_dtoa_r+0xb96>
800066b0:	4782                	lw	a5,0(sp)
800066b2:	00e79963          	bne	a5,a4,800066c4 <_dtoa_r+0xbba>
800066b6:	4702                	lw	a4,0(sp)
800066b8:	0405                	addi	s0,s0,1
800066ba:	03100793          	li	a5,49
800066be:	00f70023          	sb	a5,0(a4)
800066c2:	b531                	j	800064ce <_dtoa_r+0x9c4>
800066c4:	8a3a                	mv	s4,a4
800066c6:	b7a9                	j	80006610 <_dtoa_r+0xb06>
800066c8:	4752                	lw	a4,20(sp)
800066ca:	0fffa797          	auipc	a5,0xfffa
800066ce:	0e678793          	addi	a5,a5,230 # 900007b0 <__clz_tab+0x180>
800066d2:	c03e                	sw	a5,0(sp)
800066d4:	0fffa797          	auipc	a5,0xfffa
800066d8:	0e478793          	addi	a5,a5,228 # 900007b8 <__clz_tab+0x188>
800066dc:	ce071b63          	bnez	a4,80005bd2 <_dtoa_r+0xc8>
800066e0:	cf6ff06f          	j	80005bd6 <_dtoa_r+0xcc>
800066e4:	47a2                	lw	a5,8(sp)
800066e6:	00f04663          	bgtz	a5,800066f2 <_dtoa_r+0xbe8>
800066ea:	4712                	lw	a4,4(sp)
800066ec:	4789                	li	a5,2
800066ee:	dae7cce3          	blt	a5,a4,800064a6 <_dtoa_r+0x99c>
800066f2:	4a02                	lw	s4,0(sp)
800066f4:	85d6                	mv	a1,s5
800066f6:	854e                	mv	a0,s3
800066f8:	ad8ff0ef          	jal	ra,800059d0 <quorem>
800066fc:	4782                	lw	a5,0(sp)
800066fe:	0a05                	addi	s4,s4,1
80006700:	03050d93          	addi	s11,a0,48
80006704:	40fa0733          	sub	a4,s4,a5
80006708:	47a2                	lw	a5,8(sp)
8000670a:	ffba0fa3          	sb	s11,-1(s4)
8000670e:	f6f757e3          	bge	a4,a5,8000667c <_dtoa_r+0xb72>
80006712:	85ce                	mv	a1,s3
80006714:	4681                	li	a3,0
80006716:	4629                	li	a2,10
80006718:	8526                	mv	a0,s1
8000671a:	5fc000ef          	jal	ra,80006d16 <__multadd>
8000671e:	89aa                	mv	s3,a0
80006720:	bfd1                	j	800066f4 <_dtoa_r+0xbea>

80006722 <__sflush_r>:
80006722:	00c5d783          	lhu	a5,12(a1) # 7ff0000c <__stack_size+0x7feff80c>
80006726:	1101                	addi	sp,sp,-32
80006728:	cc22                	sw	s0,24(sp)
8000672a:	ca26                	sw	s1,20(sp)
8000672c:	ce06                	sw	ra,28(sp)
8000672e:	c84a                	sw	s2,16(sp)
80006730:	c64e                	sw	s3,12(sp)
80006732:	0087f713          	andi	a4,a5,8
80006736:	84aa                	mv	s1,a0
80006738:	842e                	mv	s0,a1
8000673a:	e76d                	bnez	a4,80006824 <__sflush_r+0x102>
8000673c:	41d8                	lw	a4,4(a1)
8000673e:	00e04763          	bgtz	a4,8000674c <__sflush_r+0x2a>
80006742:	41b8                	lw	a4,64(a1)
80006744:	00e04463          	bgtz	a4,8000674c <__sflush_r+0x2a>
80006748:	4501                	li	a0,0
8000674a:	a0c9                	j	8000680c <__sflush_r+0xea>
8000674c:	5458                	lw	a4,44(s0)
8000674e:	df6d                	beqz	a4,80006748 <__sflush_r+0x26>
80006750:	0004a903          	lw	s2,0(s1)
80006754:	01379693          	slli	a3,a5,0x13
80006758:	0004a023          	sw	zero,0(s1)
8000675c:	0606df63          	bgez	a3,800067da <__sflush_r+0xb8>
80006760:	4868                	lw	a0,84(s0)
80006762:	00c45783          	lhu	a5,12(s0)
80006766:	8b91                	andi	a5,a5,4
80006768:	c799                	beqz	a5,80006776 <__sflush_r+0x54>
8000676a:	405c                	lw	a5,4(s0)
8000676c:	8d1d                	sub	a0,a0,a5
8000676e:	585c                	lw	a5,52(s0)
80006770:	c399                	beqz	a5,80006776 <__sflush_r+0x54>
80006772:	403c                	lw	a5,64(s0)
80006774:	8d1d                	sub	a0,a0,a5
80006776:	545c                	lw	a5,44(s0)
80006778:	500c                	lw	a1,32(s0)
8000677a:	862a                	mv	a2,a0
8000677c:	4681                	li	a3,0
8000677e:	8526                	mv	a0,s1
80006780:	9782                	jalr	a5
80006782:	57fd                	li	a5,-1
80006784:	00c45703          	lhu	a4,12(s0)
80006788:	00f51d63          	bne	a0,a5,800067a2 <__sflush_r+0x80>
8000678c:	4094                	lw	a3,0(s1)
8000678e:	47f5                	li	a5,29
80006790:	08d7e563          	bltu	a5,a3,8000681a <__sflush_r+0xf8>
80006794:	204007b7          	lui	a5,0x20400
80006798:	0785                	addi	a5,a5,1
8000679a:	00d7d7b3          	srl	a5,a5,a3
8000679e:	8b85                	andi	a5,a5,1
800067a0:	cfad                	beqz	a5,8000681a <__sflush_r+0xf8>
800067a2:	481c                	lw	a5,16(s0)
800067a4:	00042223          	sw	zero,4(s0)
800067a8:	c01c                	sw	a5,0(s0)
800067aa:	01371793          	slli	a5,a4,0x13
800067ae:	0007d863          	bgez	a5,800067be <__sflush_r+0x9c>
800067b2:	57fd                	li	a5,-1
800067b4:	00f51463          	bne	a0,a5,800067bc <__sflush_r+0x9a>
800067b8:	409c                	lw	a5,0(s1)
800067ba:	e391                	bnez	a5,800067be <__sflush_r+0x9c>
800067bc:	c868                	sw	a0,84(s0)
800067be:	584c                	lw	a1,52(s0)
800067c0:	0124a023          	sw	s2,0(s1)
800067c4:	d1d1                	beqz	a1,80006748 <__sflush_r+0x26>
800067c6:	04440793          	addi	a5,s0,68
800067ca:	00f58563          	beq	a1,a5,800067d4 <__sflush_r+0xb2>
800067ce:	8526                	mv	a0,s1
800067d0:	389000ef          	jal	ra,80007358 <_free_r>
800067d4:	02042a23          	sw	zero,52(s0)
800067d8:	bf85                	j	80006748 <__sflush_r+0x26>
800067da:	500c                	lw	a1,32(s0)
800067dc:	4685                	li	a3,1
800067de:	4601                	li	a2,0
800067e0:	8526                	mv	a0,s1
800067e2:	9702                	jalr	a4
800067e4:	57fd                	li	a5,-1
800067e6:	f6f51ee3          	bne	a0,a5,80006762 <__sflush_r+0x40>
800067ea:	409c                	lw	a5,0(s1)
800067ec:	dbbd                	beqz	a5,80006762 <__sflush_r+0x40>
800067ee:	4775                	li	a4,29
800067f0:	00e78563          	beq	a5,a4,800067fa <__sflush_r+0xd8>
800067f4:	4759                	li	a4,22
800067f6:	00e79563          	bne	a5,a4,80006800 <__sflush_r+0xde>
800067fa:	0124a023          	sw	s2,0(s1)
800067fe:	b7a9                	j	80006748 <__sflush_r+0x26>
80006800:	00c45783          	lhu	a5,12(s0)
80006804:	0407e793          	ori	a5,a5,64
80006808:	00f41623          	sh	a5,12(s0)
8000680c:	40f2                	lw	ra,28(sp)
8000680e:	4462                	lw	s0,24(sp)
80006810:	44d2                	lw	s1,20(sp)
80006812:	4942                	lw	s2,16(sp)
80006814:	49b2                	lw	s3,12(sp)
80006816:	6105                	addi	sp,sp,32
80006818:	8082                	ret
8000681a:	04076713          	ori	a4,a4,64
8000681e:	00e41623          	sh	a4,12(s0)
80006822:	b7ed                	j	8000680c <__sflush_r+0xea>
80006824:	0105a983          	lw	s3,16(a1)
80006828:	f20980e3          	beqz	s3,80006748 <__sflush_r+0x26>
8000682c:	0005a903          	lw	s2,0(a1)
80006830:	8b8d                	andi	a5,a5,3
80006832:	0135a023          	sw	s3,0(a1)
80006836:	41390933          	sub	s2,s2,s3
8000683a:	4701                	li	a4,0
8000683c:	e391                	bnez	a5,80006840 <__sflush_r+0x11e>
8000683e:	49d8                	lw	a4,20(a1)
80006840:	c418                	sw	a4,8(s0)
80006842:	f12053e3          	blez	s2,80006748 <__sflush_r+0x26>
80006846:	541c                	lw	a5,40(s0)
80006848:	500c                	lw	a1,32(s0)
8000684a:	86ca                	mv	a3,s2
8000684c:	864e                	mv	a2,s3
8000684e:	8526                	mv	a0,s1
80006850:	9782                	jalr	a5
80006852:	00a04a63          	bgtz	a0,80006866 <__sflush_r+0x144>
80006856:	00c45783          	lhu	a5,12(s0)
8000685a:	557d                	li	a0,-1
8000685c:	0407e793          	ori	a5,a5,64
80006860:	00f41623          	sh	a5,12(s0)
80006864:	b765                	j	8000680c <__sflush_r+0xea>
80006866:	99aa                	add	s3,s3,a0
80006868:	40a90933          	sub	s2,s2,a0
8000686c:	bfd9                	j	80006842 <__sflush_r+0x120>

8000686e <_fflush_r>:
8000686e:	499c                	lw	a5,16(a1)
80006870:	cfb9                	beqz	a5,800068ce <_fflush_r+0x60>
80006872:	1101                	addi	sp,sp,-32
80006874:	cc22                	sw	s0,24(sp)
80006876:	ce06                	sw	ra,28(sp)
80006878:	842a                	mv	s0,a0
8000687a:	c511                	beqz	a0,80006886 <_fflush_r+0x18>
8000687c:	4d1c                	lw	a5,24(a0)
8000687e:	e781                	bnez	a5,80006886 <_fflush_r+0x18>
80006880:	c62e                	sw	a1,12(sp)
80006882:	2221                	jal	8000698a <__sinit>
80006884:	45b2                	lw	a1,12(sp)
80006886:	0fffa797          	auipc	a5,0xfffa
8000688a:	f5a78793          	addi	a5,a5,-166 # 900007e0 <__sf_fake_stdin>
8000688e:	00f59b63          	bne	a1,a5,800068a4 <_fflush_r+0x36>
80006892:	404c                	lw	a1,4(s0)
80006894:	00c59783          	lh	a5,12(a1)
80006898:	c795                	beqz	a5,800068c4 <_fflush_r+0x56>
8000689a:	8522                	mv	a0,s0
8000689c:	4462                	lw	s0,24(sp)
8000689e:	40f2                	lw	ra,28(sp)
800068a0:	6105                	addi	sp,sp,32
800068a2:	b541                	j	80006722 <__sflush_r>
800068a4:	0fffa797          	auipc	a5,0xfffa
800068a8:	f5c78793          	addi	a5,a5,-164 # 90000800 <__sf_fake_stdout>
800068ac:	00f59463          	bne	a1,a5,800068b4 <_fflush_r+0x46>
800068b0:	440c                	lw	a1,8(s0)
800068b2:	b7cd                	j	80006894 <_fflush_r+0x26>
800068b4:	0fffa797          	auipc	a5,0xfffa
800068b8:	f0c78793          	addi	a5,a5,-244 # 900007c0 <__sf_fake_stderr>
800068bc:	fcf59ce3          	bne	a1,a5,80006894 <_fflush_r+0x26>
800068c0:	444c                	lw	a1,12(s0)
800068c2:	bfc9                	j	80006894 <_fflush_r+0x26>
800068c4:	40f2                	lw	ra,28(sp)
800068c6:	4462                	lw	s0,24(sp)
800068c8:	4501                	li	a0,0
800068ca:	6105                	addi	sp,sp,32
800068cc:	8082                	ret
800068ce:	4501                	li	a0,0
800068d0:	8082                	ret

800068d2 <std>:
800068d2:	1141                	addi	sp,sp,-16
800068d4:	c422                	sw	s0,8(sp)
800068d6:	c606                	sw	ra,12(sp)
800068d8:	842a                	mv	s0,a0
800068da:	00b51623          	sh	a1,12(a0)
800068de:	00c51723          	sh	a2,14(a0)
800068e2:	00052023          	sw	zero,0(a0)
800068e6:	00052223          	sw	zero,4(a0)
800068ea:	00052423          	sw	zero,8(a0)
800068ee:	06052223          	sw	zero,100(a0)
800068f2:	00052823          	sw	zero,16(a0)
800068f6:	00052a23          	sw	zero,20(a0)
800068fa:	00052c23          	sw	zero,24(a0)
800068fe:	4621                	li	a2,8
80006900:	4581                	li	a1,0
80006902:	05c50513          	addi	a0,a0,92
80006906:	2e25                	jal	80006c3e <memset>
80006908:	00001797          	auipc	a5,0x1
8000690c:	f7c78793          	addi	a5,a5,-132 # 80007884 <__sread>
80006910:	d05c                	sw	a5,36(s0)
80006912:	00001797          	auipc	a5,0x1
80006916:	fa278793          	addi	a5,a5,-94 # 800078b4 <__swrite>
8000691a:	d41c                	sw	a5,40(s0)
8000691c:	00001797          	auipc	a5,0x1
80006920:	fe878793          	addi	a5,a5,-24 # 80007904 <__sseek>
80006924:	d45c                	sw	a5,44(s0)
80006926:	00001797          	auipc	a5,0x1
8000692a:	01478793          	addi	a5,a5,20 # 8000793a <__sclose>
8000692e:	d000                	sw	s0,32(s0)
80006930:	d81c                	sw	a5,48(s0)
80006932:	40b2                	lw	ra,12(sp)
80006934:	4422                	lw	s0,8(sp)
80006936:	0141                	addi	sp,sp,16
80006938:	8082                	ret

8000693a <_cleanup_r>:
8000693a:	00000597          	auipc	a1,0x0
8000693e:	f3458593          	addi	a1,a1,-204 # 8000686e <_fflush_r>
80006942:	aa81                	j	80006a92 <_fwalk_reent>

80006944 <__sfmoreglue>:
80006944:	1141                	addi	sp,sp,-16
80006946:	c226                	sw	s1,4(sp)
80006948:	06800613          	li	a2,104
8000694c:	fff58493          	addi	s1,a1,-1
80006950:	02c484b3          	mul	s1,s1,a2
80006954:	c04a                	sw	s2,0(sp)
80006956:	892e                	mv	s2,a1
80006958:	c422                	sw	s0,8(sp)
8000695a:	c606                	sw	ra,12(sp)
8000695c:	07448593          	addi	a1,s1,116
80006960:	29d000ef          	jal	ra,800073fc <_malloc_r>
80006964:	842a                	mv	s0,a0
80006966:	c919                	beqz	a0,8000697c <__sfmoreglue+0x38>
80006968:	00052023          	sw	zero,0(a0)
8000696c:	01252223          	sw	s2,4(a0)
80006970:	0531                	addi	a0,a0,12
80006972:	c408                	sw	a0,8(s0)
80006974:	06848613          	addi	a2,s1,104
80006978:	4581                	li	a1,0
8000697a:	24d1                	jal	80006c3e <memset>
8000697c:	8522                	mv	a0,s0
8000697e:	40b2                	lw	ra,12(sp)
80006980:	4422                	lw	s0,8(sp)
80006982:	4492                	lw	s1,4(sp)
80006984:	4902                	lw	s2,0(sp)
80006986:	0141                	addi	sp,sp,16
80006988:	8082                	ret

8000698a <__sinit>:
8000698a:	4d1c                	lw	a5,24(a0)
8000698c:	e3bd                	bnez	a5,800069f2 <__sinit+0x68>
8000698e:	1141                	addi	sp,sp,-16
80006990:	c606                	sw	ra,12(sp)
80006992:	c422                	sw	s0,8(sp)
80006994:	00000797          	auipc	a5,0x0
80006998:	fa678793          	addi	a5,a5,-90 # 8000693a <_cleanup_r>
8000699c:	d51c                	sw	a5,40(a0)
8000699e:	00002797          	auipc	a5,0x2
800069a2:	79678793          	addi	a5,a5,1942 # 80009134 <_global_impure_ptr>
800069a6:	439c                	lw	a5,0(a5)
800069a8:	04052423          	sw	zero,72(a0)
800069ac:	04052623          	sw	zero,76(a0)
800069b0:	04052823          	sw	zero,80(a0)
800069b4:	00f51463          	bne	a0,a5,800069bc <__sinit+0x32>
800069b8:	4785                	li	a5,1
800069ba:	cd1c                	sw	a5,24(a0)
800069bc:	842a                	mv	s0,a0
800069be:	281d                	jal	800069f4 <__sfp>
800069c0:	c048                	sw	a0,4(s0)
800069c2:	8522                	mv	a0,s0
800069c4:	2805                	jal	800069f4 <__sfp>
800069c6:	c408                	sw	a0,8(s0)
800069c8:	8522                	mv	a0,s0
800069ca:	202d                	jal	800069f4 <__sfp>
800069cc:	c448                	sw	a0,12(s0)
800069ce:	4048                	lw	a0,4(s0)
800069d0:	4601                	li	a2,0
800069d2:	4591                	li	a1,4
800069d4:	3dfd                	jal	800068d2 <std>
800069d6:	4408                	lw	a0,8(s0)
800069d8:	4605                	li	a2,1
800069da:	45a5                	li	a1,9
800069dc:	3ddd                	jal	800068d2 <std>
800069de:	4448                	lw	a0,12(s0)
800069e0:	4609                	li	a2,2
800069e2:	45c9                	li	a1,18
800069e4:	35fd                	jal	800068d2 <std>
800069e6:	4785                	li	a5,1
800069e8:	cc1c                	sw	a5,24(s0)
800069ea:	40b2                	lw	ra,12(sp)
800069ec:	4422                	lw	s0,8(sp)
800069ee:	0141                	addi	sp,sp,16
800069f0:	8082                	ret
800069f2:	8082                	ret

800069f4 <__sfp>:
800069f4:	1141                	addi	sp,sp,-16
800069f6:	00002797          	auipc	a5,0x2
800069fa:	73e78793          	addi	a5,a5,1854 # 80009134 <_global_impure_ptr>
800069fe:	c226                	sw	s1,4(sp)
80006a00:	4384                	lw	s1,0(a5)
80006a02:	c04a                	sw	s2,0(sp)
80006a04:	c606                	sw	ra,12(sp)
80006a06:	4c9c                	lw	a5,24(s1)
80006a08:	c422                	sw	s0,8(sp)
80006a0a:	892a                	mv	s2,a0
80006a0c:	e399                	bnez	a5,80006a12 <__sfp+0x1e>
80006a0e:	8526                	mv	a0,s1
80006a10:	3fad                	jal	8000698a <__sinit>
80006a12:	04848493          	addi	s1,s1,72
80006a16:	4480                	lw	s0,8(s1)
80006a18:	40dc                	lw	a5,4(s1)
80006a1a:	17fd                	addi	a5,a5,-1
80006a1c:	0007d663          	bgez	a5,80006a28 <__sfp+0x34>
80006a20:	409c                	lw	a5,0(s1)
80006a22:	cfb1                	beqz	a5,80006a7e <__sfp+0x8a>
80006a24:	4084                	lw	s1,0(s1)
80006a26:	bfc5                	j	80006a16 <__sfp+0x22>
80006a28:	00c41703          	lh	a4,12(s0)
80006a2c:	e731                	bnez	a4,80006a78 <__sfp+0x84>
80006a2e:	77c1                	lui	a5,0xffff0
80006a30:	0785                	addi	a5,a5,1
80006a32:	06042223          	sw	zero,100(s0)
80006a36:	00042023          	sw	zero,0(s0)
80006a3a:	00042223          	sw	zero,4(s0)
80006a3e:	00042423          	sw	zero,8(s0)
80006a42:	c45c                	sw	a5,12(s0)
80006a44:	00042823          	sw	zero,16(s0)
80006a48:	00042a23          	sw	zero,20(s0)
80006a4c:	00042c23          	sw	zero,24(s0)
80006a50:	4621                	li	a2,8
80006a52:	4581                	li	a1,0
80006a54:	05c40513          	addi	a0,s0,92
80006a58:	22dd                	jal	80006c3e <memset>
80006a5a:	02042a23          	sw	zero,52(s0)
80006a5e:	02042c23          	sw	zero,56(s0)
80006a62:	04042423          	sw	zero,72(s0)
80006a66:	04042623          	sw	zero,76(s0)
80006a6a:	8522                	mv	a0,s0
80006a6c:	40b2                	lw	ra,12(sp)
80006a6e:	4422                	lw	s0,8(sp)
80006a70:	4492                	lw	s1,4(sp)
80006a72:	4902                	lw	s2,0(sp)
80006a74:	0141                	addi	sp,sp,16
80006a76:	8082                	ret
80006a78:	06840413          	addi	s0,s0,104
80006a7c:	bf79                	j	80006a1a <__sfp+0x26>
80006a7e:	4591                	li	a1,4
80006a80:	854a                	mv	a0,s2
80006a82:	35c9                	jal	80006944 <__sfmoreglue>
80006a84:	c088                	sw	a0,0(s1)
80006a86:	842a                	mv	s0,a0
80006a88:	fd51                	bnez	a0,80006a24 <__sfp+0x30>
80006a8a:	47b1                	li	a5,12
80006a8c:	00f92023          	sw	a5,0(s2)
80006a90:	bfe9                	j	80006a6a <__sfp+0x76>

80006a92 <_fwalk_reent>:
80006a92:	7179                	addi	sp,sp,-48
80006a94:	d422                	sw	s0,40(sp)
80006a96:	d04a                	sw	s2,32(sp)
80006a98:	cc52                	sw	s4,24(sp)
80006a9a:	ca56                	sw	s5,20(sp)
80006a9c:	c85a                	sw	s6,16(sp)
80006a9e:	c65e                	sw	s7,12(sp)
80006aa0:	d606                	sw	ra,44(sp)
80006aa2:	d226                	sw	s1,36(sp)
80006aa4:	ce4e                	sw	s3,28(sp)
80006aa6:	8a2a                	mv	s4,a0
80006aa8:	8aae                	mv	s5,a1
80006aaa:	04850413          	addi	s0,a0,72
80006aae:	4901                	li	s2,0
80006ab0:	4b05                	li	s6,1
80006ab2:	5bfd                	li	s7,-1
80006ab4:	ec09                	bnez	s0,80006ace <_fwalk_reent+0x3c>
80006ab6:	50b2                	lw	ra,44(sp)
80006ab8:	5422                	lw	s0,40(sp)
80006aba:	854a                	mv	a0,s2
80006abc:	5492                	lw	s1,36(sp)
80006abe:	5902                	lw	s2,32(sp)
80006ac0:	49f2                	lw	s3,28(sp)
80006ac2:	4a62                	lw	s4,24(sp)
80006ac4:	4ad2                	lw	s5,20(sp)
80006ac6:	4b42                	lw	s6,16(sp)
80006ac8:	4bb2                	lw	s7,12(sp)
80006aca:	6145                	addi	sp,sp,48
80006acc:	8082                	ret
80006ace:	4404                	lw	s1,8(s0)
80006ad0:	00442983          	lw	s3,4(s0)
80006ad4:	19fd                	addi	s3,s3,-1
80006ad6:	0009d463          	bgez	s3,80006ade <_fwalk_reent+0x4c>
80006ada:	4000                	lw	s0,0(s0)
80006adc:	bfe1                	j	80006ab4 <_fwalk_reent+0x22>
80006ade:	00c4d783          	lhu	a5,12(s1)
80006ae2:	00fb7b63          	bgeu	s6,a5,80006af8 <_fwalk_reent+0x66>
80006ae6:	00e49783          	lh	a5,14(s1)
80006aea:	01778763          	beq	a5,s7,80006af8 <_fwalk_reent+0x66>
80006aee:	85a6                	mv	a1,s1
80006af0:	8552                	mv	a0,s4
80006af2:	9a82                	jalr	s5
80006af4:	00a96933          	or	s2,s2,a0
80006af8:	06848493          	addi	s1,s1,104
80006afc:	bfe1                	j	80006ad4 <_fwalk_reent+0x42>

80006afe <_localeconv_r>:
80006afe:	0fffa517          	auipc	a0,0xfffa
80006b02:	0d250513          	addi	a0,a0,210 # 90000bd0 <__global_locale+0xf0>
80006b06:	8082                	ret

80006b08 <__swhatbuf_r>:
80006b08:	7119                	addi	sp,sp,-128
80006b0a:	daa6                	sw	s1,116(sp)
80006b0c:	84ae                	mv	s1,a1
80006b0e:	00e59583          	lh	a1,14(a1)
80006b12:	dca2                	sw	s0,120(sp)
80006b14:	de86                	sw	ra,124(sp)
80006b16:	8432                	mv	s0,a2
80006b18:	0005dc63          	bgez	a1,80006b30 <__swhatbuf_r+0x28>
80006b1c:	00c4d783          	lhu	a5,12(s1)
80006b20:	0006a023          	sw	zero,0(a3)
80006b24:	0807f793          	andi	a5,a5,128
80006b28:	e785                	bnez	a5,80006b50 <__swhatbuf_r+0x48>
80006b2a:	40000793          	li	a5,1024
80006b2e:	a01d                	j	80006b54 <__swhatbuf_r+0x4c>
80006b30:	0830                	addi	a2,sp,24
80006b32:	c636                	sw	a3,12(sp)
80006b34:	637000ef          	jal	ra,8000796a <_fstat_r>
80006b38:	46b2                	lw	a3,12(sp)
80006b3a:	fe0541e3          	bltz	a0,80006b1c <__swhatbuf_r+0x14>
80006b3e:	4772                	lw	a4,28(sp)
80006b40:	67bd                	lui	a5,0xf
80006b42:	8ff9                	and	a5,a5,a4
80006b44:	7779                	lui	a4,0xffffe
80006b46:	97ba                	add	a5,a5,a4
80006b48:	0017b793          	seqz	a5,a5
80006b4c:	c29c                	sw	a5,0(a3)
80006b4e:	bff1                	j	80006b2a <__swhatbuf_r+0x22>
80006b50:	04000793          	li	a5,64
80006b54:	c01c                	sw	a5,0(s0)
80006b56:	50f6                	lw	ra,124(sp)
80006b58:	5466                	lw	s0,120(sp)
80006b5a:	54d6                	lw	s1,116(sp)
80006b5c:	4501                	li	a0,0
80006b5e:	6109                	addi	sp,sp,128
80006b60:	8082                	ret

80006b62 <__smakebuf_r>:
80006b62:	00c5d783          	lhu	a5,12(a1)
80006b66:	1101                	addi	sp,sp,-32
80006b68:	cc22                	sw	s0,24(sp)
80006b6a:	ce06                	sw	ra,28(sp)
80006b6c:	ca26                	sw	s1,20(sp)
80006b6e:	c84a                	sw	s2,16(sp)
80006b70:	8b89                	andi	a5,a5,2
80006b72:	842e                	mv	s0,a1
80006b74:	cf89                	beqz	a5,80006b8e <__smakebuf_r+0x2c>
80006b76:	04740793          	addi	a5,s0,71
80006b7a:	c01c                	sw	a5,0(s0)
80006b7c:	c81c                	sw	a5,16(s0)
80006b7e:	4785                	li	a5,1
80006b80:	c85c                	sw	a5,20(s0)
80006b82:	40f2                	lw	ra,28(sp)
80006b84:	4462                	lw	s0,24(sp)
80006b86:	44d2                	lw	s1,20(sp)
80006b88:	4942                	lw	s2,16(sp)
80006b8a:	6105                	addi	sp,sp,32
80006b8c:	8082                	ret
80006b8e:	0074                	addi	a3,sp,12
80006b90:	0030                	addi	a2,sp,8
80006b92:	84aa                	mv	s1,a0
80006b94:	3f95                	jal	80006b08 <__swhatbuf_r>
80006b96:	45a2                	lw	a1,8(sp)
80006b98:	892a                	mv	s2,a0
80006b9a:	8526                	mv	a0,s1
80006b9c:	061000ef          	jal	ra,800073fc <_malloc_r>
80006ba0:	ed01                	bnez	a0,80006bb8 <__smakebuf_r+0x56>
80006ba2:	00c41783          	lh	a5,12(s0)
80006ba6:	2007f713          	andi	a4,a5,512
80006baa:	ff61                	bnez	a4,80006b82 <__smakebuf_r+0x20>
80006bac:	9bf1                	andi	a5,a5,-4
80006bae:	0027e793          	ori	a5,a5,2
80006bb2:	00f41623          	sh	a5,12(s0)
80006bb6:	b7c1                	j	80006b76 <__smakebuf_r+0x14>
80006bb8:	00000797          	auipc	a5,0x0
80006bbc:	d8278793          	addi	a5,a5,-638 # 8000693a <_cleanup_r>
80006bc0:	d49c                	sw	a5,40(s1)
80006bc2:	00c45783          	lhu	a5,12(s0)
80006bc6:	c008                	sw	a0,0(s0)
80006bc8:	c808                	sw	a0,16(s0)
80006bca:	0807e793          	ori	a5,a5,128
80006bce:	00f41623          	sh	a5,12(s0)
80006bd2:	47a2                	lw	a5,8(sp)
80006bd4:	c85c                	sw	a5,20(s0)
80006bd6:	47b2                	lw	a5,12(sp)
80006bd8:	cf91                	beqz	a5,80006bf4 <__smakebuf_r+0x92>
80006bda:	00e41583          	lh	a1,14(s0)
80006bde:	8526                	mv	a0,s1
80006be0:	5b7000ef          	jal	ra,80007996 <_isatty_r>
80006be4:	c901                	beqz	a0,80006bf4 <__smakebuf_r+0x92>
80006be6:	00c45783          	lhu	a5,12(s0)
80006bea:	9bf1                	andi	a5,a5,-4
80006bec:	0017e793          	ori	a5,a5,1
80006bf0:	00f41623          	sh	a5,12(s0)
80006bf4:	00c45783          	lhu	a5,12(s0)
80006bf8:	00f96933          	or	s2,s2,a5
80006bfc:	01241623          	sh	s2,12(s0)
80006c00:	b749                	j	80006b82 <__smakebuf_r+0x20>

80006c02 <malloc>:
80006c02:	80c18793          	addi	a5,gp,-2036 # 90000c5c <_impure_ptr>
80006c06:	85aa                	mv	a1,a0
80006c08:	4388                	lw	a0,0(a5)
80006c0a:	7f20006f          	j	800073fc <_malloc_r>

80006c0e <memchr>:
80006c0e:	0ff5f593          	andi	a1,a1,255
80006c12:	962a                	add	a2,a2,a0
80006c14:	00c51463          	bne	a0,a2,80006c1c <memchr+0xe>
80006c18:	4501                	li	a0,0
80006c1a:	8082                	ret
80006c1c:	00054783          	lbu	a5,0(a0)
80006c20:	feb78de3          	beq	a5,a1,80006c1a <memchr+0xc>
80006c24:	0505                	addi	a0,a0,1
80006c26:	b7fd                	j	80006c14 <memchr+0x6>

80006c28 <memcpy>:
80006c28:	832a                	mv	t1,a0
80006c2a:	ca09                	beqz	a2,80006c3c <memcpy+0x14>
80006c2c:	00058383          	lb	t2,0(a1)
80006c30:	00730023          	sb	t2,0(t1)
80006c34:	167d                	addi	a2,a2,-1
80006c36:	0305                	addi	t1,t1,1
80006c38:	0585                	addi	a1,a1,1
80006c3a:	fa6d                	bnez	a2,80006c2c <memcpy+0x4>
80006c3c:	8082                	ret

80006c3e <memset>:
80006c3e:	832a                	mv	t1,a0
80006c40:	c611                	beqz	a2,80006c4c <memset+0xe>
80006c42:	00b30023          	sb	a1,0(t1)
80006c46:	167d                	addi	a2,a2,-1
80006c48:	0305                	addi	t1,t1,1
80006c4a:	fe65                	bnez	a2,80006c42 <memset+0x4>
80006c4c:	8082                	ret

80006c4e <_Balloc>:
80006c4e:	515c                	lw	a5,36(a0)
80006c50:	1141                	addi	sp,sp,-16
80006c52:	c422                	sw	s0,8(sp)
80006c54:	c04a                	sw	s2,0(sp)
80006c56:	c606                	sw	ra,12(sp)
80006c58:	c226                	sw	s1,4(sp)
80006c5a:	842a                	mv	s0,a0
80006c5c:	892e                	mv	s2,a1
80006c5e:	ef81                	bnez	a5,80006c76 <_Balloc+0x28>
80006c60:	4541                	li	a0,16
80006c62:	3745                	jal	80006c02 <malloc>
80006c64:	d048                	sw	a0,36(s0)
80006c66:	00052223          	sw	zero,4(a0)
80006c6a:	00052423          	sw	zero,8(a0)
80006c6e:	00052023          	sw	zero,0(a0)
80006c72:	00052623          	sw	zero,12(a0)
80006c76:	5044                	lw	s1,36(s0)
80006c78:	44dc                	lw	a5,12(s1)
80006c7a:	c795                	beqz	a5,80006ca6 <_Balloc+0x58>
80006c7c:	5058                	lw	a4,36(s0)
80006c7e:	00291793          	slli	a5,s2,0x2
80006c82:	4758                	lw	a4,12(a4)
80006c84:	97ba                	add	a5,a5,a4
80006c86:	4388                	lw	a0,0(a5)
80006c88:	ed1d                	bnez	a0,80006cc6 <_Balloc+0x78>
80006c8a:	4485                	li	s1,1
80006c8c:	012494b3          	sll	s1,s1,s2
80006c90:	00548613          	addi	a2,s1,5
80006c94:	060a                	slli	a2,a2,0x2
80006c96:	4585                	li	a1,1
80006c98:	8522                	mv	a0,s0
80006c9a:	2d61                	jal	80007332 <_calloc_r>
80006c9c:	cd11                	beqz	a0,80006cb8 <_Balloc+0x6a>
80006c9e:	01252223          	sw	s2,4(a0)
80006ca2:	c504                	sw	s1,8(a0)
80006ca4:	a01d                	j	80006cca <_Balloc+0x7c>
80006ca6:	02100613          	li	a2,33
80006caa:	4591                	li	a1,4
80006cac:	8522                	mv	a0,s0
80006cae:	2551                	jal	80007332 <_calloc_r>
80006cb0:	505c                	lw	a5,36(s0)
80006cb2:	c4c8                	sw	a0,12(s1)
80006cb4:	47dc                	lw	a5,12(a5)
80006cb6:	f3f9                	bnez	a5,80006c7c <_Balloc+0x2e>
80006cb8:	4501                	li	a0,0
80006cba:	40b2                	lw	ra,12(sp)
80006cbc:	4422                	lw	s0,8(sp)
80006cbe:	4492                	lw	s1,4(sp)
80006cc0:	4902                	lw	s2,0(sp)
80006cc2:	0141                	addi	sp,sp,16
80006cc4:	8082                	ret
80006cc6:	4118                	lw	a4,0(a0)
80006cc8:	c398                	sw	a4,0(a5)
80006cca:	00052823          	sw	zero,16(a0)
80006cce:	00052623          	sw	zero,12(a0)
80006cd2:	b7e5                	j	80006cba <_Balloc+0x6c>

80006cd4 <_Bfree>:
80006cd4:	515c                	lw	a5,36(a0)
80006cd6:	1101                	addi	sp,sp,-32
80006cd8:	cc22                	sw	s0,24(sp)
80006cda:	ce06                	sw	ra,28(sp)
80006cdc:	842a                	mv	s0,a0
80006cde:	ef91                	bnez	a5,80006cfa <_Bfree+0x26>
80006ce0:	4541                	li	a0,16
80006ce2:	c62e                	sw	a1,12(sp)
80006ce4:	3f39                	jal	80006c02 <malloc>
80006ce6:	45b2                	lw	a1,12(sp)
80006ce8:	d048                	sw	a0,36(s0)
80006cea:	00052223          	sw	zero,4(a0)
80006cee:	00052423          	sw	zero,8(a0)
80006cf2:	00052023          	sw	zero,0(a0)
80006cf6:	00052623          	sw	zero,12(a0)
80006cfa:	c991                	beqz	a1,80006d0e <_Bfree+0x3a>
80006cfc:	5054                	lw	a3,36(s0)
80006cfe:	41dc                	lw	a5,4(a1)
80006d00:	00279713          	slli	a4,a5,0x2
80006d04:	46dc                	lw	a5,12(a3)
80006d06:	97ba                	add	a5,a5,a4
80006d08:	4398                	lw	a4,0(a5)
80006d0a:	c198                	sw	a4,0(a1)
80006d0c:	c38c                	sw	a1,0(a5)
80006d0e:	40f2                	lw	ra,28(sp)
80006d10:	4462                	lw	s0,24(sp)
80006d12:	6105                	addi	sp,sp,32
80006d14:	8082                	ret

80006d16 <__multadd>:
80006d16:	7179                	addi	sp,sp,-48
80006d18:	ce4e                	sw	s3,28(sp)
80006d1a:	89aa                	mv	s3,a0
80006d1c:	6541                	lui	a0,0x10
80006d1e:	d422                	sw	s0,40(sp)
80006d20:	d226                	sw	s1,36(sp)
80006d22:	842e                	mv	s0,a1
80006d24:	4984                	lw	s1,16(a1)
80006d26:	d606                	sw	ra,44(sp)
80006d28:	d04a                	sw	s2,32(sp)
80006d2a:	05d1                	addi	a1,a1,20
80006d2c:	4801                	li	a6,0
80006d2e:	157d                	addi	a0,a0,-1
80006d30:	419c                	lw	a5,0(a1)
80006d32:	0591                	addi	a1,a1,4
80006d34:	0805                	addi	a6,a6,1
80006d36:	00a7f733          	and	a4,a5,a0
80006d3a:	02c70733          	mul	a4,a4,a2
80006d3e:	83c1                	srli	a5,a5,0x10
80006d40:	02c787b3          	mul	a5,a5,a2
80006d44:	9736                	add	a4,a4,a3
80006d46:	01075693          	srli	a3,a4,0x10
80006d4a:	8f69                	and	a4,a4,a0
80006d4c:	97b6                	add	a5,a5,a3
80006d4e:	0107d693          	srli	a3,a5,0x10
80006d52:	07c2                	slli	a5,a5,0x10
80006d54:	97ba                	add	a5,a5,a4
80006d56:	fef5ae23          	sw	a5,-4(a1)
80006d5a:	fc984be3          	blt	a6,s1,80006d30 <__multadd+0x1a>
80006d5e:	ce8d                	beqz	a3,80006d98 <__multadd+0x82>
80006d60:	441c                	lw	a5,8(s0)
80006d62:	02f4c463          	blt	s1,a5,80006d8a <__multadd+0x74>
80006d66:	404c                	lw	a1,4(s0)
80006d68:	854e                	mv	a0,s3
80006d6a:	c636                	sw	a3,12(sp)
80006d6c:	0585                	addi	a1,a1,1
80006d6e:	35c5                	jal	80006c4e <_Balloc>
80006d70:	4810                	lw	a2,16(s0)
80006d72:	00c40593          	addi	a1,s0,12
80006d76:	892a                	mv	s2,a0
80006d78:	0609                	addi	a2,a2,2
80006d7a:	060a                	slli	a2,a2,0x2
80006d7c:	0531                	addi	a0,a0,12
80006d7e:	356d                	jal	80006c28 <memcpy>
80006d80:	85a2                	mv	a1,s0
80006d82:	854e                	mv	a0,s3
80006d84:	3f81                	jal	80006cd4 <_Bfree>
80006d86:	46b2                	lw	a3,12(sp)
80006d88:	844a                	mv	s0,s2
80006d8a:	00448793          	addi	a5,s1,4
80006d8e:	078a                	slli	a5,a5,0x2
80006d90:	97a2                	add	a5,a5,s0
80006d92:	c3d4                	sw	a3,4(a5)
80006d94:	0485                	addi	s1,s1,1
80006d96:	c804                	sw	s1,16(s0)
80006d98:	8522                	mv	a0,s0
80006d9a:	50b2                	lw	ra,44(sp)
80006d9c:	5422                	lw	s0,40(sp)
80006d9e:	5492                	lw	s1,36(sp)
80006da0:	5902                	lw	s2,32(sp)
80006da2:	49f2                	lw	s3,28(sp)
80006da4:	6145                	addi	sp,sp,48
80006da6:	8082                	ret

80006da8 <__hi0bits>:
80006da8:	7741                	lui	a4,0xffff0
80006daa:	8f69                	and	a4,a4,a0
80006dac:	87aa                	mv	a5,a0
80006dae:	4501                	li	a0,0
80006db0:	e319                	bnez	a4,80006db6 <__hi0bits+0xe>
80006db2:	07c2                	slli	a5,a5,0x10
80006db4:	4541                	li	a0,16
80006db6:	ff000737          	lui	a4,0xff000
80006dba:	8f7d                	and	a4,a4,a5
80006dbc:	e319                	bnez	a4,80006dc2 <__hi0bits+0x1a>
80006dbe:	0521                	addi	a0,a0,8
80006dc0:	07a2                	slli	a5,a5,0x8
80006dc2:	f0000737          	lui	a4,0xf0000
80006dc6:	8f7d                	and	a4,a4,a5
80006dc8:	e319                	bnez	a4,80006dce <__hi0bits+0x26>
80006dca:	0511                	addi	a0,a0,4
80006dcc:	0792                	slli	a5,a5,0x4
80006dce:	c0000737          	lui	a4,0xc0000
80006dd2:	8f7d                	and	a4,a4,a5
80006dd4:	e319                	bnez	a4,80006dda <__hi0bits+0x32>
80006dd6:	0509                	addi	a0,a0,2
80006dd8:	078a                	slli	a5,a5,0x2
80006dda:	0007c963          	bltz	a5,80006dec <__hi0bits+0x44>
80006dde:	00179713          	slli	a4,a5,0x1
80006de2:	0505                	addi	a0,a0,1
80006de4:	00074463          	bltz	a4,80006dec <__hi0bits+0x44>
80006de8:	02000513          	li	a0,32
80006dec:	8082                	ret

80006dee <__lo0bits>:
80006dee:	411c                	lw	a5,0(a0)
80006df0:	0077f713          	andi	a4,a5,7
80006df4:	c30d                	beqz	a4,80006e16 <__lo0bits+0x28>
80006df6:	0017f693          	andi	a3,a5,1
80006dfa:	4701                	li	a4,0
80006dfc:	e699                	bnez	a3,80006e0a <__lo0bits+0x1c>
80006dfe:	0027f713          	andi	a4,a5,2
80006e02:	c711                	beqz	a4,80006e0e <__lo0bits+0x20>
80006e04:	8385                	srli	a5,a5,0x1
80006e06:	c11c                	sw	a5,0(a0)
80006e08:	4705                	li	a4,1
80006e0a:	853a                	mv	a0,a4
80006e0c:	8082                	ret
80006e0e:	8389                	srli	a5,a5,0x2
80006e10:	c11c                	sw	a5,0(a0)
80006e12:	4709                	li	a4,2
80006e14:	bfdd                	j	80006e0a <__lo0bits+0x1c>
80006e16:	01079693          	slli	a3,a5,0x10
80006e1a:	82c1                	srli	a3,a3,0x10
80006e1c:	4701                	li	a4,0
80006e1e:	e299                	bnez	a3,80006e24 <__lo0bits+0x36>
80006e20:	83c1                	srli	a5,a5,0x10
80006e22:	4741                	li	a4,16
80006e24:	0ff7f693          	andi	a3,a5,255
80006e28:	e299                	bnez	a3,80006e2e <__lo0bits+0x40>
80006e2a:	0721                	addi	a4,a4,8
80006e2c:	83a1                	srli	a5,a5,0x8
80006e2e:	00f7f693          	andi	a3,a5,15
80006e32:	e299                	bnez	a3,80006e38 <__lo0bits+0x4a>
80006e34:	0711                	addi	a4,a4,4
80006e36:	8391                	srli	a5,a5,0x4
80006e38:	0037f693          	andi	a3,a5,3
80006e3c:	e299                	bnez	a3,80006e42 <__lo0bits+0x54>
80006e3e:	0709                	addi	a4,a4,2
80006e40:	8389                	srli	a5,a5,0x2
80006e42:	0017f693          	andi	a3,a5,1
80006e46:	e681                	bnez	a3,80006e4e <__lo0bits+0x60>
80006e48:	8385                	srli	a5,a5,0x1
80006e4a:	0705                	addi	a4,a4,1
80006e4c:	c399                	beqz	a5,80006e52 <__lo0bits+0x64>
80006e4e:	c11c                	sw	a5,0(a0)
80006e50:	bf6d                	j	80006e0a <__lo0bits+0x1c>
80006e52:	02000713          	li	a4,32
80006e56:	bf55                	j	80006e0a <__lo0bits+0x1c>

80006e58 <__i2b>:
80006e58:	1141                	addi	sp,sp,-16
80006e5a:	c422                	sw	s0,8(sp)
80006e5c:	842e                	mv	s0,a1
80006e5e:	4585                	li	a1,1
80006e60:	c606                	sw	ra,12(sp)
80006e62:	33f5                	jal	80006c4e <_Balloc>
80006e64:	c940                	sw	s0,20(a0)
80006e66:	40b2                	lw	ra,12(sp)
80006e68:	4422                	lw	s0,8(sp)
80006e6a:	4705                	li	a4,1
80006e6c:	c918                	sw	a4,16(a0)
80006e6e:	0141                	addi	sp,sp,16
80006e70:	8082                	ret

80006e72 <__multiply>:
80006e72:	4998                	lw	a4,16(a1)
80006e74:	4a1c                	lw	a5,16(a2)
80006e76:	7179                	addi	sp,sp,-48
80006e78:	d226                	sw	s1,36(sp)
80006e7a:	d606                	sw	ra,44(sp)
80006e7c:	d422                	sw	s0,40(sp)
80006e7e:	d04a                	sw	s2,32(sp)
80006e80:	ce4e                	sw	s3,28(sp)
80006e82:	84ae                	mv	s1,a1
80006e84:	00f75463          	bge	a4,a5,80006e8c <__multiply+0x1a>
80006e88:	84b2                	mv	s1,a2
80006e8a:	862e                	mv	a2,a1
80006e8c:	0104a983          	lw	s3,16(s1)
80006e90:	01062903          	lw	s2,16(a2) # 10010 <__stack_size+0xf810>
80006e94:	449c                	lw	a5,8(s1)
80006e96:	40cc                	lw	a1,4(s1)
80006e98:	01298433          	add	s0,s3,s2
80006e9c:	0087d363          	bge	a5,s0,80006ea2 <__multiply+0x30>
80006ea0:	0585                	addi	a1,a1,1
80006ea2:	c632                	sw	a2,12(sp)
80006ea4:	dabff0ef          	jal	ra,80006c4e <_Balloc>
80006ea8:	4632                	lw	a2,12(sp)
80006eaa:	01450813          	addi	a6,a0,20 # 10014 <__stack_size+0xf814>
80006eae:	00241313          	slli	t1,s0,0x2
80006eb2:	9342                	add	t1,t1,a6
80006eb4:	87c2                	mv	a5,a6
80006eb6:	0267ed63          	bltu	a5,t1,80006ef0 <__multiply+0x7e>
80006eba:	01448593          	addi	a1,s1,20
80006ebe:	00299893          	slli	a7,s3,0x2
80006ec2:	0651                	addi	a2,a2,20
80006ec4:	00291e13          	slli	t3,s2,0x2
80006ec8:	66c1                	lui	a3,0x10
80006eca:	98ae                	add	a7,a7,a1
80006ecc:	9e32                	add	t3,t3,a2
80006ece:	16fd                	addi	a3,a3,-1
80006ed0:	03c66463          	bltu	a2,t3,80006ef8 <__multiply+0x86>
80006ed4:	00805663          	blez	s0,80006ee0 <__multiply+0x6e>
80006ed8:	1371                	addi	t1,t1,-4
80006eda:	00032783          	lw	a5,0(t1)
80006ede:	cbf1                	beqz	a5,80006fb2 <__multiply+0x140>
80006ee0:	c900                	sw	s0,16(a0)
80006ee2:	50b2                	lw	ra,44(sp)
80006ee4:	5422                	lw	s0,40(sp)
80006ee6:	5492                	lw	s1,36(sp)
80006ee8:	5902                	lw	s2,32(sp)
80006eea:	49f2                	lw	s3,28(sp)
80006eec:	6145                	addi	sp,sp,48
80006eee:	8082                	ret
80006ef0:	0007a023          	sw	zero,0(a5)
80006ef4:	0791                	addi	a5,a5,4
80006ef6:	b7c1                	j	80006eb6 <__multiply+0x44>
80006ef8:	00062f83          	lw	t6,0(a2)
80006efc:	00dfffb3          	and	t6,t6,a3
80006f00:	040f8a63          	beqz	t6,80006f54 <__multiply+0xe2>
80006f04:	8f42                	mv	t5,a6
80006f06:	82ae                	mv	t0,a1
80006f08:	4481                	li	s1,0
80006f0a:	0002a703          	lw	a4,0(t0)
80006f0e:	000f2383          	lw	t2,0(t5) # 10000 <__stack_size+0xf800>
80006f12:	0f11                	addi	t5,t5,4
80006f14:	00d77eb3          	and	t4,a4,a3
80006f18:	03fe8eb3          	mul	t4,t4,t6
80006f1c:	00d3f7b3          	and	a5,t2,a3
80006f20:	0103d393          	srli	t2,t2,0x10
80006f24:	0291                	addi	t0,t0,4
80006f26:	9ebe                	add	t4,t4,a5
80006f28:	01075793          	srli	a5,a4,0x10
80006f2c:	03f787b3          	mul	a5,a5,t6
80006f30:	9ea6                	add	t4,t4,s1
80006f32:	010ed713          	srli	a4,t4,0x10
80006f36:	00defeb3          	and	t4,t4,a3
80006f3a:	979e                	add	a5,a5,t2
80006f3c:	97ba                	add	a5,a5,a4
80006f3e:	0107d493          	srli	s1,a5,0x10
80006f42:	07c2                	slli	a5,a5,0x10
80006f44:	01d7e7b3          	or	a5,a5,t4
80006f48:	feff2e23          	sw	a5,-4(t5)
80006f4c:	fb12efe3          	bltu	t0,a7,80006f0a <__multiply+0x98>
80006f50:	009f2023          	sw	s1,0(t5)
80006f54:	00265283          	lhu	t0,2(a2)
80006f58:	04028a63          	beqz	t0,80006fac <__multiply+0x13a>
80006f5c:	00082783          	lw	a5,0(a6)
80006f60:	8ec2                	mv	t4,a6
80006f62:	8f2e                	mv	t5,a1
80006f64:	4f81                	li	t6,0
80006f66:	000f2703          	lw	a4,0(t5)
80006f6a:	002ed383          	lhu	t2,2(t4)
80006f6e:	8ff5                	and	a5,a5,a3
80006f70:	8f75                	and	a4,a4,a3
80006f72:	02570733          	mul	a4,a4,t0
80006f76:	0e91                	addi	t4,t4,4
80006f78:	0f11                	addi	t5,t5,4
80006f7a:	971e                	add	a4,a4,t2
80006f7c:	977e                	add	a4,a4,t6
80006f7e:	01071f93          	slli	t6,a4,0x10
80006f82:	00ffe7b3          	or	a5,t6,a5
80006f86:	fefeae23          	sw	a5,-4(t4)
80006f8a:	ffef5783          	lhu	a5,-2(t5)
80006f8e:	000eaf83          	lw	t6,0(t4)
80006f92:	8341                	srli	a4,a4,0x10
80006f94:	025787b3          	mul	a5,a5,t0
80006f98:	00dfffb3          	and	t6,t6,a3
80006f9c:	97fe                	add	a5,a5,t6
80006f9e:	97ba                	add	a5,a5,a4
80006fa0:	0107df93          	srli	t6,a5,0x10
80006fa4:	fd1f61e3          	bltu	t5,a7,80006f66 <__multiply+0xf4>
80006fa8:	00fea023          	sw	a5,0(t4)
80006fac:	0611                	addi	a2,a2,4
80006fae:	0811                	addi	a6,a6,4
80006fb0:	b705                	j	80006ed0 <__multiply+0x5e>
80006fb2:	147d                	addi	s0,s0,-1
80006fb4:	b705                	j	80006ed4 <__multiply+0x62>

80006fb6 <__pow5mult>:
80006fb6:	1101                	addi	sp,sp,-32
80006fb8:	ca26                	sw	s1,20(sp)
80006fba:	c84a                	sw	s2,16(sp)
80006fbc:	c64e                	sw	s3,12(sp)
80006fbe:	ce06                	sw	ra,28(sp)
80006fc0:	cc22                	sw	s0,24(sp)
80006fc2:	c452                	sw	s4,8(sp)
80006fc4:	00367793          	andi	a5,a2,3
80006fc8:	892a                	mv	s2,a0
80006fca:	84b2                	mv	s1,a2
80006fcc:	89ae                	mv	s3,a1
80006fce:	cf89                	beqz	a5,80006fe8 <__pow5mult+0x32>
80006fd0:	17fd                	addi	a5,a5,-1
80006fd2:	0fffa717          	auipc	a4,0xfffa
80006fd6:	93e70713          	addi	a4,a4,-1730 # 90000910 <p05.3310>
80006fda:	078a                	slli	a5,a5,0x2
80006fdc:	97ba                	add	a5,a5,a4
80006fde:	4390                	lw	a2,0(a5)
80006fe0:	4681                	li	a3,0
80006fe2:	d35ff0ef          	jal	ra,80006d16 <__multadd>
80006fe6:	89aa                	mv	s3,a0
80006fe8:	8489                	srai	s1,s1,0x2
80006fea:	c8ad                	beqz	s1,8000705c <__pow5mult+0xa6>
80006fec:	02492783          	lw	a5,36(s2)
80006ff0:	ef91                	bnez	a5,8000700c <__pow5mult+0x56>
80006ff2:	4541                	li	a0,16
80006ff4:	c0fff0ef          	jal	ra,80006c02 <malloc>
80006ff8:	02a92223          	sw	a0,36(s2)
80006ffc:	00052223          	sw	zero,4(a0)
80007000:	00052423          	sw	zero,8(a0)
80007004:	00052023          	sw	zero,0(a0)
80007008:	00052623          	sw	zero,12(a0)
8000700c:	02492a03          	lw	s4,36(s2)
80007010:	008a2403          	lw	s0,8(s4)
80007014:	e811                	bnez	s0,80007028 <__pow5mult+0x72>
80007016:	27100593          	li	a1,625
8000701a:	854a                	mv	a0,s2
8000701c:	3d35                	jal	80006e58 <__i2b>
8000701e:	00aa2423          	sw	a0,8(s4)
80007022:	842a                	mv	s0,a0
80007024:	00052023          	sw	zero,0(a0)
80007028:	0014f793          	andi	a5,s1,1
8000702c:	cb99                	beqz	a5,80007042 <__pow5mult+0x8c>
8000702e:	85ce                	mv	a1,s3
80007030:	8622                	mv	a2,s0
80007032:	854a                	mv	a0,s2
80007034:	3d3d                	jal	80006e72 <__multiply>
80007036:	8a2a                	mv	s4,a0
80007038:	85ce                	mv	a1,s3
8000703a:	854a                	mv	a0,s2
8000703c:	c99ff0ef          	jal	ra,80006cd4 <_Bfree>
80007040:	89d2                	mv	s3,s4
80007042:	8485                	srai	s1,s1,0x1
80007044:	cc81                	beqz	s1,8000705c <__pow5mult+0xa6>
80007046:	4008                	lw	a0,0(s0)
80007048:	e901                	bnez	a0,80007058 <__pow5mult+0xa2>
8000704a:	8622                	mv	a2,s0
8000704c:	85a2                	mv	a1,s0
8000704e:	854a                	mv	a0,s2
80007050:	350d                	jal	80006e72 <__multiply>
80007052:	c008                	sw	a0,0(s0)
80007054:	00052023          	sw	zero,0(a0)
80007058:	842a                	mv	s0,a0
8000705a:	b7f9                	j	80007028 <__pow5mult+0x72>
8000705c:	40f2                	lw	ra,28(sp)
8000705e:	4462                	lw	s0,24(sp)
80007060:	854e                	mv	a0,s3
80007062:	44d2                	lw	s1,20(sp)
80007064:	4942                	lw	s2,16(sp)
80007066:	49b2                	lw	s3,12(sp)
80007068:	4a22                	lw	s4,8(sp)
8000706a:	6105                	addi	sp,sp,32
8000706c:	8082                	ret

8000706e <__lshift>:
8000706e:	7179                	addi	sp,sp,-48
80007070:	d226                	sw	s1,36(sp)
80007072:	84ae                	mv	s1,a1
80007074:	ce4e                	sw	s3,28(sp)
80007076:	0104a983          	lw	s3,16(s1)
8000707a:	d422                	sw	s0,40(sp)
8000707c:	41cc                	lw	a1,4(a1)
8000707e:	40565413          	srai	s0,a2,0x5
80007082:	449c                	lw	a5,8(s1)
80007084:	99a2                	add	s3,s3,s0
80007086:	d04a                	sw	s2,32(sp)
80007088:	ca56                	sw	s5,20(sp)
8000708a:	d606                	sw	ra,44(sp)
8000708c:	cc52                	sw	s4,24(sp)
8000708e:	8aaa                	mv	s5,a0
80007090:	00198913          	addi	s2,s3,1
80007094:	0927c463          	blt	a5,s2,8000711c <__lshift+0xae>
80007098:	8556                	mv	a0,s5
8000709a:	c632                	sw	a2,12(sp)
8000709c:	bb3ff0ef          	jal	ra,80006c4e <_Balloc>
800070a0:	4632                	lw	a2,12(sp)
800070a2:	01450793          	addi	a5,a0,20
800070a6:	8a2a                	mv	s4,a0
800070a8:	86be                	mv	a3,a5
800070aa:	4701                	li	a4,0
800070ac:	0691                	addi	a3,a3,4
800070ae:	06874a63          	blt	a4,s0,80007122 <__lshift+0xb4>
800070b2:	00045363          	bgez	s0,800070b8 <__lshift+0x4a>
800070b6:	4401                	li	s0,0
800070b8:	4894                	lw	a3,16(s1)
800070ba:	040a                	slli	s0,s0,0x2
800070bc:	00878733          	add	a4,a5,s0
800070c0:	068a                	slli	a3,a3,0x2
800070c2:	01448793          	addi	a5,s1,20
800070c6:	8a7d                	andi	a2,a2,31
800070c8:	96be                	add	a3,a3,a5
800070ca:	c225                	beqz	a2,8000712a <__lshift+0xbc>
800070cc:	02000813          	li	a6,32
800070d0:	40c80833          	sub	a6,a6,a2
800070d4:	4581                	li	a1,0
800070d6:	4388                	lw	a0,0(a5)
800070d8:	0711                	addi	a4,a4,4
800070da:	0791                	addi	a5,a5,4
800070dc:	00c51533          	sll	a0,a0,a2
800070e0:	8dc9                	or	a1,a1,a0
800070e2:	feb72e23          	sw	a1,-4(a4)
800070e6:	ffc7a583          	lw	a1,-4(a5)
800070ea:	0105d5b3          	srl	a1,a1,a6
800070ee:	fed7e4e3          	bltu	a5,a3,800070d6 <__lshift+0x68>
800070f2:	c30c                	sw	a1,0(a4)
800070f4:	c199                	beqz	a1,800070fa <__lshift+0x8c>
800070f6:	00298913          	addi	s2,s3,2
800070fa:	197d                	addi	s2,s2,-1
800070fc:	012a2823          	sw	s2,16(s4)
80007100:	8556                	mv	a0,s5
80007102:	85a6                	mv	a1,s1
80007104:	bd1ff0ef          	jal	ra,80006cd4 <_Bfree>
80007108:	50b2                	lw	ra,44(sp)
8000710a:	5422                	lw	s0,40(sp)
8000710c:	8552                	mv	a0,s4
8000710e:	5492                	lw	s1,36(sp)
80007110:	5902                	lw	s2,32(sp)
80007112:	49f2                	lw	s3,28(sp)
80007114:	4a62                	lw	s4,24(sp)
80007116:	4ad2                	lw	s5,20(sp)
80007118:	6145                	addi	sp,sp,48
8000711a:	8082                	ret
8000711c:	0585                	addi	a1,a1,1
8000711e:	0786                	slli	a5,a5,0x1
80007120:	bf95                	j	80007094 <__lshift+0x26>
80007122:	fe06ae23          	sw	zero,-4(a3) # fffc <__stack_size+0xf7fc>
80007126:	0705                	addi	a4,a4,1
80007128:	b751                	j	800070ac <__lshift+0x3e>
8000712a:	0791                	addi	a5,a5,4
8000712c:	ffc7a603          	lw	a2,-4(a5)
80007130:	0711                	addi	a4,a4,4
80007132:	fec72e23          	sw	a2,-4(a4)
80007136:	fed7eae3          	bltu	a5,a3,8000712a <__lshift+0xbc>
8000713a:	b7c1                	j	800070fa <__lshift+0x8c>

8000713c <__mcmp>:
8000713c:	491c                	lw	a5,16(a0)
8000713e:	4998                	lw	a4,16(a1)
80007140:	8f99                	sub	a5,a5,a4
80007142:	e38d                	bnez	a5,80007164 <__mcmp+0x28>
80007144:	070a                	slli	a4,a4,0x2
80007146:	0551                	addi	a0,a0,20
80007148:	05d1                	addi	a1,a1,20
8000714a:	00e506b3          	add	a3,a0,a4
8000714e:	95ba                	add	a1,a1,a4
80007150:	16f1                	addi	a3,a3,-4
80007152:	15f1                	addi	a1,a1,-4
80007154:	4290                	lw	a2,0(a3)
80007156:	4198                	lw	a4,0(a1)
80007158:	00e60863          	beq	a2,a4,80007168 <__mcmp+0x2c>
8000715c:	57fd                	li	a5,-1
8000715e:	00e66363          	bltu	a2,a4,80007164 <__mcmp+0x28>
80007162:	4785                	li	a5,1
80007164:	853e                	mv	a0,a5
80007166:	8082                	ret
80007168:	fed564e3          	bltu	a0,a3,80007150 <__mcmp+0x14>
8000716c:	bfe5                	j	80007164 <__mcmp+0x28>

8000716e <__mdiff>:
8000716e:	1101                	addi	sp,sp,-32
80007170:	ca26                	sw	s1,20(sp)
80007172:	84ae                	mv	s1,a1
80007174:	c64e                	sw	s3,12(sp)
80007176:	85b2                	mv	a1,a2
80007178:	89aa                	mv	s3,a0
8000717a:	8526                	mv	a0,s1
8000717c:	cc22                	sw	s0,24(sp)
8000717e:	ce06                	sw	ra,28(sp)
80007180:	c84a                	sw	s2,16(sp)
80007182:	8432                	mv	s0,a2
80007184:	3f65                	jal	8000713c <__mcmp>
80007186:	e105                	bnez	a0,800071a6 <__mdiff+0x38>
80007188:	4581                	li	a1,0
8000718a:	854e                	mv	a0,s3
8000718c:	ac3ff0ef          	jal	ra,80006c4e <_Balloc>
80007190:	4785                	li	a5,1
80007192:	c91c                	sw	a5,16(a0)
80007194:	00052a23          	sw	zero,20(a0)
80007198:	40f2                	lw	ra,28(sp)
8000719a:	4462                	lw	s0,24(sp)
8000719c:	44d2                	lw	s1,20(sp)
8000719e:	4942                	lw	s2,16(sp)
800071a0:	49b2                	lw	s3,12(sp)
800071a2:	6105                	addi	sp,sp,32
800071a4:	8082                	ret
800071a6:	4905                	li	s2,1
800071a8:	00054663          	bltz	a0,800071b4 <__mdiff+0x46>
800071ac:	87a2                	mv	a5,s0
800071ae:	4901                	li	s2,0
800071b0:	8426                	mv	s0,s1
800071b2:	84be                	mv	s1,a5
800071b4:	404c                	lw	a1,4(s0)
800071b6:	854e                	mv	a0,s3
800071b8:	a97ff0ef          	jal	ra,80006c4e <_Balloc>
800071bc:	01042303          	lw	t1,16(s0)
800071c0:	0104a883          	lw	a7,16(s1)
800071c4:	01440613          	addi	a2,s0,20
800071c8:	00231e13          	slli	t3,t1,0x2
800071cc:	01448813          	addi	a6,s1,20
800071d0:	088a                	slli	a7,a7,0x2
800071d2:	6ec1                	lui	t4,0x10
800071d4:	01252623          	sw	s2,12(a0)
800071d8:	9e32                	add	t3,t3,a2
800071da:	98c2                	add	a7,a7,a6
800071dc:	01450693          	addi	a3,a0,20
800071e0:	4f01                	li	t5,0
800071e2:	1efd                	addi	t4,t4,-1
800071e4:	4218                	lw	a4,0(a2)
800071e6:	00082f83          	lw	t6,0(a6)
800071ea:	0691                	addi	a3,a3,4
800071ec:	01d775b3          	and	a1,a4,t4
800071f0:	01dff7b3          	and	a5,t6,t4
800071f4:	95fa                	add	a1,a1,t5
800071f6:	8d9d                	sub	a1,a1,a5
800071f8:	010fdf93          	srli	t6,t6,0x10
800071fc:	01075793          	srli	a5,a4,0x10
80007200:	41f787b3          	sub	a5,a5,t6
80007204:	4105d713          	srai	a4,a1,0x10
80007208:	97ba                	add	a5,a5,a4
8000720a:	4107df13          	srai	t5,a5,0x10
8000720e:	01d5f5b3          	and	a1,a1,t4
80007212:	07c2                	slli	a5,a5,0x10
80007214:	8fcd                	or	a5,a5,a1
80007216:	0811                	addi	a6,a6,4
80007218:	fef6ae23          	sw	a5,-4(a3)
8000721c:	0611                	addi	a2,a2,4
8000721e:	fd1863e3          	bltu	a6,a7,800071e4 <__mdiff+0x76>
80007222:	65c1                	lui	a1,0x10
80007224:	15fd                	addi	a1,a1,-1
80007226:	01c66863          	bltu	a2,t3,80007236 <__mdiff+0xc8>
8000722a:	16f1                	addi	a3,a3,-4
8000722c:	429c                	lw	a5,0(a3)
8000722e:	c795                	beqz	a5,8000725a <__mdiff+0xec>
80007230:	00652823          	sw	t1,16(a0)
80007234:	b795                	j	80007198 <__mdiff+0x2a>
80007236:	421c                	lw	a5,0(a2)
80007238:	0691                	addi	a3,a3,4
8000723a:	0611                	addi	a2,a2,4
8000723c:	00b7f733          	and	a4,a5,a1
80007240:	977a                	add	a4,a4,t5
80007242:	41075813          	srai	a6,a4,0x10
80007246:	83c1                	srli	a5,a5,0x10
80007248:	97c2                	add	a5,a5,a6
8000724a:	4107df13          	srai	t5,a5,0x10
8000724e:	8f6d                	and	a4,a4,a1
80007250:	07c2                	slli	a5,a5,0x10
80007252:	8fd9                	or	a5,a5,a4
80007254:	fef6ae23          	sw	a5,-4(a3)
80007258:	b7f9                	j	80007226 <__mdiff+0xb8>
8000725a:	137d                	addi	t1,t1,-1
8000725c:	b7f9                	j	8000722a <__mdiff+0xbc>

8000725e <__d2b>:
8000725e:	7179                	addi	sp,sp,-48
80007260:	d422                	sw	s0,40(sp)
80007262:	842e                	mv	s0,a1
80007264:	4585                	li	a1,1
80007266:	d226                	sw	s1,36(sp)
80007268:	d04a                	sw	s2,32(sp)
8000726a:	84b2                	mv	s1,a2
8000726c:	ce4e                	sw	s3,28(sp)
8000726e:	cc52                	sw	s4,24(sp)
80007270:	893a                	mv	s2,a4
80007272:	d606                	sw	ra,44(sp)
80007274:	8a36                	mv	s4,a3
80007276:	9d9ff0ef          	jal	ra,80006c4e <_Balloc>
8000727a:	00100737          	lui	a4,0x100
8000727e:	fff70793          	addi	a5,a4,-1 # fffff <__stack_size+0xff7ff>
80007282:	8fe5                	and	a5,a5,s1
80007284:	80d1                	srli	s1,s1,0x14
80007286:	7ff4f493          	andi	s1,s1,2047
8000728a:	89aa                	mv	s3,a0
8000728c:	e0b5                	bnez	s1,800072f0 <__d2b+0x92>
8000728e:	c63e                	sw	a5,12(sp)
80007290:	c42d                	beqz	s0,800072fa <__d2b+0x9c>
80007292:	0028                	addi	a0,sp,8
80007294:	c422                	sw	s0,8(sp)
80007296:	b59ff0ef          	jal	ra,80006dee <__lo0bits>
8000729a:	46a2                	lw	a3,8(sp)
8000729c:	cd21                	beqz	a0,800072f4 <__d2b+0x96>
8000729e:	4732                	lw	a4,12(sp)
800072a0:	02000793          	li	a5,32
800072a4:	8f89                	sub	a5,a5,a0
800072a6:	00f717b3          	sll	a5,a4,a5
800072aa:	8fd5                	or	a5,a5,a3
800072ac:	00a75733          	srl	a4,a4,a0
800072b0:	00f9aa23          	sw	a5,20(s3)
800072b4:	c63a                	sw	a4,12(sp)
800072b6:	4432                	lw	s0,12(sp)
800072b8:	0089ac23          	sw	s0,24(s3)
800072bc:	00803433          	snez	s0,s0
800072c0:	0405                	addi	s0,s0,1
800072c2:	0089a823          	sw	s0,16(s3)
800072c6:	c4b9                	beqz	s1,80007314 <__d2b+0xb6>
800072c8:	bcd48493          	addi	s1,s1,-1075
800072cc:	94aa                	add	s1,s1,a0
800072ce:	03500793          	li	a5,53
800072d2:	009a2023          	sw	s1,0(s4)
800072d6:	40a78533          	sub	a0,a5,a0
800072da:	00a92023          	sw	a0,0(s2)
800072de:	50b2                	lw	ra,44(sp)
800072e0:	5422                	lw	s0,40(sp)
800072e2:	854e                	mv	a0,s3
800072e4:	5492                	lw	s1,36(sp)
800072e6:	5902                	lw	s2,32(sp)
800072e8:	49f2                	lw	s3,28(sp)
800072ea:	4a62                	lw	s4,24(sp)
800072ec:	6145                	addi	sp,sp,48
800072ee:	8082                	ret
800072f0:	8fd9                	or	a5,a5,a4
800072f2:	bf71                	j	8000728e <__d2b+0x30>
800072f4:	00d9aa23          	sw	a3,20(s3)
800072f8:	bf7d                	j	800072b6 <__d2b+0x58>
800072fa:	0068                	addi	a0,sp,12
800072fc:	af3ff0ef          	jal	ra,80006dee <__lo0bits>
80007300:	47b2                	lw	a5,12(sp)
80007302:	02050513          	addi	a0,a0,32
80007306:	4405                	li	s0,1
80007308:	00f9aa23          	sw	a5,20(s3)
8000730c:	4785                	li	a5,1
8000730e:	00f9a823          	sw	a5,16(s3)
80007312:	bf55                	j	800072c6 <__d2b+0x68>
80007314:	00241793          	slli	a5,s0,0x2
80007318:	bce50513          	addi	a0,a0,-1074
8000731c:	97ce                	add	a5,a5,s3
8000731e:	00aa2023          	sw	a0,0(s4)
80007322:	4b88                	lw	a0,16(a5)
80007324:	0416                	slli	s0,s0,0x5
80007326:	a83ff0ef          	jal	ra,80006da8 <__hi0bits>
8000732a:	8c09                	sub	s0,s0,a0
8000732c:	00892023          	sw	s0,0(s2)
80007330:	b77d                	j	800072de <__d2b+0x80>

80007332 <_calloc_r>:
80007332:	02c58633          	mul	a2,a1,a2
80007336:	1101                	addi	sp,sp,-32
80007338:	cc22                	sw	s0,24(sp)
8000733a:	ce06                	sw	ra,28(sp)
8000733c:	85b2                	mv	a1,a2
8000733e:	c632                	sw	a2,12(sp)
80007340:	2875                	jal	800073fc <_malloc_r>
80007342:	842a                	mv	s0,a0
80007344:	c509                	beqz	a0,8000734e <_calloc_r+0x1c>
80007346:	4632                	lw	a2,12(sp)
80007348:	4581                	li	a1,0
8000734a:	8f5ff0ef          	jal	ra,80006c3e <memset>
8000734e:	8522                	mv	a0,s0
80007350:	40f2                	lw	ra,28(sp)
80007352:	4462                	lw	s0,24(sp)
80007354:	6105                	addi	sp,sp,32
80007356:	8082                	ret

80007358 <_free_r>:
80007358:	c1cd                	beqz	a1,800073fa <_free_r+0xa2>
8000735a:	ffc5a783          	lw	a5,-4(a1) # fffc <__stack_size+0xf7fc>
8000735e:	1141                	addi	sp,sp,-16
80007360:	c422                	sw	s0,8(sp)
80007362:	c606                	sw	ra,12(sp)
80007364:	c226                	sw	s1,4(sp)
80007366:	ffc58413          	addi	s0,a1,-4
8000736a:	0007d363          	bgez	a5,80007370 <_free_r+0x18>
8000736e:	943e                	add	s0,s0,a5
80007370:	84aa                	mv	s1,a0
80007372:	2d5d                	jal	80007a28 <__malloc_lock>
80007374:	83418793          	addi	a5,gp,-1996 # 90000c84 <__malloc_free_list>
80007378:	439c                	lw	a5,0(a5)
8000737a:	eb99                	bnez	a5,80007390 <_free_r+0x38>
8000737c:	00042223          	sw	zero,4(s0)
80007380:	8281aa23          	sw	s0,-1996(gp) # 90000c84 <__malloc_free_list>
80007384:	4422                	lw	s0,8(sp)
80007386:	40b2                	lw	ra,12(sp)
80007388:	8526                	mv	a0,s1
8000738a:	4492                	lw	s1,4(sp)
8000738c:	0141                	addi	sp,sp,16
8000738e:	ad71                	j	80007a2a <__malloc_unlock>
80007390:	00f47e63          	bgeu	s0,a5,800073ac <_free_r+0x54>
80007394:	4014                	lw	a3,0(s0)
80007396:	00d40733          	add	a4,s0,a3
8000739a:	00e79663          	bne	a5,a4,800073a6 <_free_r+0x4e>
8000739e:	4398                	lw	a4,0(a5)
800073a0:	43dc                	lw	a5,4(a5)
800073a2:	9736                	add	a4,a4,a3
800073a4:	c018                	sw	a4,0(s0)
800073a6:	c05c                	sw	a5,4(s0)
800073a8:	bfe1                	j	80007380 <_free_r+0x28>
800073aa:	87ba                	mv	a5,a4
800073ac:	43d8                	lw	a4,4(a5)
800073ae:	c319                	beqz	a4,800073b4 <_free_r+0x5c>
800073b0:	fee47de3          	bgeu	s0,a4,800073aa <_free_r+0x52>
800073b4:	4394                	lw	a3,0(a5)
800073b6:	00d78633          	add	a2,a5,a3
800073ba:	00861f63          	bne	a2,s0,800073d8 <_free_r+0x80>
800073be:	4010                	lw	a2,0(s0)
800073c0:	96b2                	add	a3,a3,a2
800073c2:	c394                	sw	a3,0(a5)
800073c4:	00d78633          	add	a2,a5,a3
800073c8:	fac71ee3          	bne	a4,a2,80007384 <_free_r+0x2c>
800073cc:	4310                	lw	a2,0(a4)
800073ce:	4358                	lw	a4,4(a4)
800073d0:	96b2                	add	a3,a3,a2
800073d2:	c394                	sw	a3,0(a5)
800073d4:	c3d8                	sw	a4,4(a5)
800073d6:	b77d                	j	80007384 <_free_r+0x2c>
800073d8:	00c47563          	bgeu	s0,a2,800073e2 <_free_r+0x8a>
800073dc:	47b1                	li	a5,12
800073de:	c09c                	sw	a5,0(s1)
800073e0:	b755                	j	80007384 <_free_r+0x2c>
800073e2:	4010                	lw	a2,0(s0)
800073e4:	00c406b3          	add	a3,s0,a2
800073e8:	00d71663          	bne	a4,a3,800073f4 <_free_r+0x9c>
800073ec:	4314                	lw	a3,0(a4)
800073ee:	4358                	lw	a4,4(a4)
800073f0:	96b2                	add	a3,a3,a2
800073f2:	c014                	sw	a3,0(s0)
800073f4:	c058                	sw	a4,4(s0)
800073f6:	c3c0                	sw	s0,4(a5)
800073f8:	b771                	j	80007384 <_free_r+0x2c>
800073fa:	8082                	ret

800073fc <_malloc_r>:
800073fc:	1101                	addi	sp,sp,-32
800073fe:	ca26                	sw	s1,20(sp)
80007400:	00358493          	addi	s1,a1,3
80007404:	98f1                	andi	s1,s1,-4
80007406:	ce06                	sw	ra,28(sp)
80007408:	cc22                	sw	s0,24(sp)
8000740a:	c84a                	sw	s2,16(sp)
8000740c:	c64e                	sw	s3,12(sp)
8000740e:	04a1                	addi	s1,s1,8
80007410:	47b1                	li	a5,12
80007412:	04f4f163          	bgeu	s1,a5,80007454 <_malloc_r+0x58>
80007416:	44b1                	li	s1,12
80007418:	04b4e063          	bltu	s1,a1,80007458 <_malloc_r+0x5c>
8000741c:	892a                	mv	s2,a0
8000741e:	2529                	jal	80007a28 <__malloc_lock>
80007420:	83418793          	addi	a5,gp,-1996 # 90000c84 <__malloc_free_list>
80007424:	4398                	lw	a4,0(a5)
80007426:	843a                	mv	s0,a4
80007428:	e031                	bnez	s0,8000746c <_malloc_r+0x70>
8000742a:	83818793          	addi	a5,gp,-1992 # 90000c88 <__malloc_sbrk_start>
8000742e:	439c                	lw	a5,0(a5)
80007430:	e791                	bnez	a5,8000743c <_malloc_r+0x40>
80007432:	4581                	li	a1,0
80007434:	854a                	mv	a0,s2
80007436:	2115                	jal	8000785a <_sbrk_r>
80007438:	82a1ac23          	sw	a0,-1992(gp) # 90000c88 <__malloc_sbrk_start>
8000743c:	85a6                	mv	a1,s1
8000743e:	854a                	mv	a0,s2
80007440:	2929                	jal	8000785a <_sbrk_r>
80007442:	59fd                	li	s3,-1
80007444:	07351763          	bne	a0,s3,800074b2 <_malloc_r+0xb6>
80007448:	47b1                	li	a5,12
8000744a:	00f92023          	sw	a5,0(s2)
8000744e:	854a                	mv	a0,s2
80007450:	2be9                	jal	80007a2a <__malloc_unlock>
80007452:	a029                	j	8000745c <_malloc_r+0x60>
80007454:	fc04d2e3          	bgez	s1,80007418 <_malloc_r+0x1c>
80007458:	47b1                	li	a5,12
8000745a:	c11c                	sw	a5,0(a0)
8000745c:	4501                	li	a0,0
8000745e:	40f2                	lw	ra,28(sp)
80007460:	4462                	lw	s0,24(sp)
80007462:	44d2                	lw	s1,20(sp)
80007464:	4942                	lw	s2,16(sp)
80007466:	49b2                	lw	s3,12(sp)
80007468:	6105                	addi	sp,sp,32
8000746a:	8082                	ret
8000746c:	401c                	lw	a5,0(s0)
8000746e:	8f85                	sub	a5,a5,s1
80007470:	0207ce63          	bltz	a5,800074ac <_malloc_r+0xb0>
80007474:	46ad                	li	a3,11
80007476:	00f6f663          	bgeu	a3,a5,80007482 <_malloc_r+0x86>
8000747a:	c01c                	sw	a5,0(s0)
8000747c:	943e                	add	s0,s0,a5
8000747e:	c004                	sw	s1,0(s0)
80007480:	a031                	j	8000748c <_malloc_r+0x90>
80007482:	405c                	lw	a5,4(s0)
80007484:	02871263          	bne	a4,s0,800074a8 <_malloc_r+0xac>
80007488:	82f1aa23          	sw	a5,-1996(gp) # 90000c84 <__malloc_free_list>
8000748c:	854a                	mv	a0,s2
8000748e:	2b71                	jal	80007a2a <__malloc_unlock>
80007490:	00b40513          	addi	a0,s0,11
80007494:	00440793          	addi	a5,s0,4
80007498:	9961                	andi	a0,a0,-8
8000749a:	40f50733          	sub	a4,a0,a5
8000749e:	d361                	beqz	a4,8000745e <_malloc_r+0x62>
800074a0:	943a                	add	s0,s0,a4
800074a2:	8f89                	sub	a5,a5,a0
800074a4:	c01c                	sw	a5,0(s0)
800074a6:	bf65                	j	8000745e <_malloc_r+0x62>
800074a8:	c35c                	sw	a5,4(a4)
800074aa:	b7cd                	j	8000748c <_malloc_r+0x90>
800074ac:	8722                	mv	a4,s0
800074ae:	4040                	lw	s0,4(s0)
800074b0:	bfa5                	j	80007428 <_malloc_r+0x2c>
800074b2:	00350413          	addi	s0,a0,3
800074b6:	9871                	andi	s0,s0,-4
800074b8:	fc8503e3          	beq	a0,s0,8000747e <_malloc_r+0x82>
800074bc:	40a405b3          	sub	a1,s0,a0
800074c0:	854a                	mv	a0,s2
800074c2:	2e61                	jal	8000785a <_sbrk_r>
800074c4:	fb351de3          	bne	a0,s3,8000747e <_malloc_r+0x82>
800074c8:	b741                	j	80007448 <_malloc_r+0x4c>

800074ca <__sfputc_r>:
800074ca:	461c                	lw	a5,8(a2)
800074cc:	17fd                	addi	a5,a5,-1
800074ce:	c61c                	sw	a5,8(a2)
800074d0:	0007da63          	bgez	a5,800074e4 <__sfputc_r+0x1a>
800074d4:	4e18                	lw	a4,24(a2)
800074d6:	00e7c563          	blt	a5,a4,800074e0 <__sfputc_r+0x16>
800074da:	47a9                	li	a5,10
800074dc:	00f59463          	bne	a1,a5,800074e4 <__sfputc_r+0x1a>
800074e0:	9aafe06f          	j	8000568a <__swbuf_r>
800074e4:	421c                	lw	a5,0(a2)
800074e6:	852e                	mv	a0,a1
800074e8:	00178713          	addi	a4,a5,1
800074ec:	c218                	sw	a4,0(a2)
800074ee:	00b78023          	sb	a1,0(a5)
800074f2:	8082                	ret

800074f4 <__sfputs_r>:
800074f4:	1101                	addi	sp,sp,-32
800074f6:	cc22                	sw	s0,24(sp)
800074f8:	ca26                	sw	s1,20(sp)
800074fa:	c84a                	sw	s2,16(sp)
800074fc:	c64e                	sw	s3,12(sp)
800074fe:	c452                	sw	s4,8(sp)
80007500:	ce06                	sw	ra,28(sp)
80007502:	892a                	mv	s2,a0
80007504:	89ae                	mv	s3,a1
80007506:	8432                	mv	s0,a2
80007508:	00d604b3          	add	s1,a2,a3
8000750c:	5a7d                	li	s4,-1
8000750e:	00941463          	bne	s0,s1,80007516 <__sfputs_r+0x22>
80007512:	4501                	li	a0,0
80007514:	a809                	j	80007526 <__sfputs_r+0x32>
80007516:	00044583          	lbu	a1,0(s0)
8000751a:	864e                	mv	a2,s3
8000751c:	854a                	mv	a0,s2
8000751e:	3775                	jal	800074ca <__sfputc_r>
80007520:	0405                	addi	s0,s0,1
80007522:	ff4516e3          	bne	a0,s4,8000750e <__sfputs_r+0x1a>
80007526:	40f2                	lw	ra,28(sp)
80007528:	4462                	lw	s0,24(sp)
8000752a:	44d2                	lw	s1,20(sp)
8000752c:	4942                	lw	s2,16(sp)
8000752e:	49b2                	lw	s3,12(sp)
80007530:	4a22                	lw	s4,8(sp)
80007532:	6105                	addi	sp,sp,32
80007534:	8082                	ret

80007536 <_vfiprintf_r>:
80007536:	7135                	addi	sp,sp,-160
80007538:	cd22                	sw	s0,152(sp)
8000753a:	cb26                	sw	s1,148(sp)
8000753c:	c94a                	sw	s2,144(sp)
8000753e:	c74e                	sw	s3,140(sp)
80007540:	cf06                	sw	ra,156(sp)
80007542:	c552                	sw	s4,136(sp)
80007544:	c356                	sw	s5,132(sp)
80007546:	c15a                	sw	s6,128(sp)
80007548:	dede                	sw	s7,124(sp)
8000754a:	dce2                	sw	s8,120(sp)
8000754c:	dae6                	sw	s9,116(sp)
8000754e:	89aa                	mv	s3,a0
80007550:	84ae                	mv	s1,a1
80007552:	8932                	mv	s2,a2
80007554:	8436                	mv	s0,a3
80007556:	c509                	beqz	a0,80007560 <_vfiprintf_r+0x2a>
80007558:	4d1c                	lw	a5,24(a0)
8000755a:	e399                	bnez	a5,80007560 <_vfiprintf_r+0x2a>
8000755c:	c2eff0ef          	jal	ra,8000698a <__sinit>
80007560:	0fff9797          	auipc	a5,0xfff9
80007564:	28078793          	addi	a5,a5,640 # 900007e0 <__sf_fake_stdin>
80007568:	0cf49c63          	bne	s1,a5,80007640 <_vfiprintf_r+0x10a>
8000756c:	0049a483          	lw	s1,4(s3)
80007570:	00c4d783          	lhu	a5,12(s1)
80007574:	8ba1                	andi	a5,a5,8
80007576:	c7fd                	beqz	a5,80007664 <_vfiprintf_r+0x12e>
80007578:	489c                	lw	a5,16(s1)
8000757a:	c7ed                	beqz	a5,80007664 <_vfiprintf_r+0x12e>
8000757c:	02000793          	li	a5,32
80007580:	02f104a3          	sb	a5,41(sp)
80007584:	03000793          	li	a5,48
80007588:	d202                	sw	zero,36(sp)
8000758a:	02f10523          	sb	a5,42(sp)
8000758e:	c622                	sw	s0,12(sp)
80007590:	02500b93          	li	s7,37
80007594:	0fff9a97          	auipc	s5,0xfff9
80007598:	388a8a93          	addi	s5,s5,904 # 9000091c <p05.3310+0xc>
8000759c:	4c05                	li	s8,1
8000759e:	4b29                	li	s6,10
800075a0:	844a                	mv	s0,s2
800075a2:	00044783          	lbu	a5,0(s0)
800075a6:	c399                	beqz	a5,800075ac <_vfiprintf_r+0x76>
800075a8:	0f779163          	bne	a5,s7,8000768a <_vfiprintf_r+0x154>
800075ac:	41240cb3          	sub	s9,s0,s2
800075b0:	000c8d63          	beqz	s9,800075ca <_vfiprintf_r+0x94>
800075b4:	86e6                	mv	a3,s9
800075b6:	864a                	mv	a2,s2
800075b8:	85a6                	mv	a1,s1
800075ba:	854e                	mv	a0,s3
800075bc:	3f25                	jal	800074f4 <__sfputs_r>
800075be:	57fd                	li	a5,-1
800075c0:	1ef50763          	beq	a0,a5,800077ae <_vfiprintf_r+0x278>
800075c4:	5692                	lw	a3,36(sp)
800075c6:	96e6                	add	a3,a3,s9
800075c8:	d236                	sw	a3,36(sp)
800075ca:	00044783          	lbu	a5,0(s0)
800075ce:	1e078063          	beqz	a5,800077ae <_vfiprintf_r+0x278>
800075d2:	57fd                	li	a5,-1
800075d4:	00140913          	addi	s2,s0,1
800075d8:	c802                	sw	zero,16(sp)
800075da:	ce02                	sw	zero,28(sp)
800075dc:	ca3e                	sw	a5,20(sp)
800075de:	cc02                	sw	zero,24(sp)
800075e0:	040109a3          	sb	zero,83(sp)
800075e4:	d482                	sw	zero,104(sp)
800075e6:	00094583          	lbu	a1,0(s2)
800075ea:	4615                	li	a2,5
800075ec:	8556                	mv	a0,s5
800075ee:	e20ff0ef          	jal	ra,80006c0e <memchr>
800075f2:	00190413          	addi	s0,s2,1
800075f6:	47c2                	lw	a5,16(sp)
800075f8:	e959                	bnez	a0,8000768e <_vfiprintf_r+0x158>
800075fa:	0107f713          	andi	a4,a5,16
800075fe:	c709                	beqz	a4,80007608 <_vfiprintf_r+0xd2>
80007600:	02000713          	li	a4,32
80007604:	04e109a3          	sb	a4,83(sp)
80007608:	0087f713          	andi	a4,a5,8
8000760c:	c709                	beqz	a4,80007616 <_vfiprintf_r+0xe0>
8000760e:	02b00713          	li	a4,43
80007612:	04e109a3          	sb	a4,83(sp)
80007616:	00094683          	lbu	a3,0(s2)
8000761a:	02a00713          	li	a4,42
8000761e:	08e68063          	beq	a3,a4,8000769e <_vfiprintf_r+0x168>
80007622:	47f2                	lw	a5,28(sp)
80007624:	844a                	mv	s0,s2
80007626:	4681                	li	a3,0
80007628:	4625                	li	a2,9
8000762a:	00044703          	lbu	a4,0(s0)
8000762e:	00140593          	addi	a1,s0,1
80007632:	fd070713          	addi	a4,a4,-48
80007636:	0ae67963          	bgeu	a2,a4,800076e8 <_vfiprintf_r+0x1b2>
8000763a:	cab5                	beqz	a3,800076ae <_vfiprintf_r+0x178>
8000763c:	ce3e                	sw	a5,28(sp)
8000763e:	a885                	j	800076ae <_vfiprintf_r+0x178>
80007640:	0fff9797          	auipc	a5,0xfff9
80007644:	1c078793          	addi	a5,a5,448 # 90000800 <__sf_fake_stdout>
80007648:	00f49563          	bne	s1,a5,80007652 <_vfiprintf_r+0x11c>
8000764c:	0089a483          	lw	s1,8(s3)
80007650:	b705                	j	80007570 <_vfiprintf_r+0x3a>
80007652:	0fff9797          	auipc	a5,0xfff9
80007656:	16e78793          	addi	a5,a5,366 # 900007c0 <__sf_fake_stderr>
8000765a:	f0f49be3          	bne	s1,a5,80007570 <_vfiprintf_r+0x3a>
8000765e:	00c9a483          	lw	s1,12(s3)
80007662:	b739                	j	80007570 <_vfiprintf_r+0x3a>
80007664:	85a6                	mv	a1,s1
80007666:	854e                	mv	a0,s3
80007668:	916fe0ef          	jal	ra,8000577e <__swsetup_r>
8000766c:	d901                	beqz	a0,8000757c <_vfiprintf_r+0x46>
8000766e:	557d                	li	a0,-1
80007670:	40fa                	lw	ra,156(sp)
80007672:	446a                	lw	s0,152(sp)
80007674:	44da                	lw	s1,148(sp)
80007676:	494a                	lw	s2,144(sp)
80007678:	49ba                	lw	s3,140(sp)
8000767a:	4a2a                	lw	s4,136(sp)
8000767c:	4a9a                	lw	s5,132(sp)
8000767e:	4b0a                	lw	s6,128(sp)
80007680:	5bf6                	lw	s7,124(sp)
80007682:	5c66                	lw	s8,120(sp)
80007684:	5cd6                	lw	s9,116(sp)
80007686:	610d                	addi	sp,sp,160
80007688:	8082                	ret
8000768a:	0405                	addi	s0,s0,1
8000768c:	bf19                	j	800075a2 <_vfiprintf_r+0x6c>
8000768e:	41550533          	sub	a0,a0,s5
80007692:	00ac1533          	sll	a0,s8,a0
80007696:	8fc9                	or	a5,a5,a0
80007698:	c83e                	sw	a5,16(sp)
8000769a:	8922                	mv	s2,s0
8000769c:	b7a9                	j	800075e6 <_vfiprintf_r+0xb0>
8000769e:	4732                	lw	a4,12(sp)
800076a0:	00470693          	addi	a3,a4,4
800076a4:	4318                	lw	a4,0(a4)
800076a6:	c636                	sw	a3,12(sp)
800076a8:	02074963          	bltz	a4,800076da <_vfiprintf_r+0x1a4>
800076ac:	ce3a                	sw	a4,28(sp)
800076ae:	00044703          	lbu	a4,0(s0)
800076b2:	02e00793          	li	a5,46
800076b6:	04f71f63          	bne	a4,a5,80007714 <_vfiprintf_r+0x1de>
800076ba:	00144703          	lbu	a4,1(s0)
800076be:	02a00793          	li	a5,42
800076c2:	02f71b63          	bne	a4,a5,800076f8 <_vfiprintf_r+0x1c2>
800076c6:	47b2                	lw	a5,12(sp)
800076c8:	0409                	addi	s0,s0,2
800076ca:	00478713          	addi	a4,a5,4
800076ce:	439c                	lw	a5,0(a5)
800076d0:	c63a                	sw	a4,12(sp)
800076d2:	0207c163          	bltz	a5,800076f4 <_vfiprintf_r+0x1be>
800076d6:	ca3e                	sw	a5,20(sp)
800076d8:	a835                	j	80007714 <_vfiprintf_r+0x1de>
800076da:	40e00733          	neg	a4,a4
800076de:	0027e793          	ori	a5,a5,2
800076e2:	ce3a                	sw	a4,28(sp)
800076e4:	c83e                	sw	a5,16(sp)
800076e6:	b7e1                	j	800076ae <_vfiprintf_r+0x178>
800076e8:	036787b3          	mul	a5,a5,s6
800076ec:	4685                	li	a3,1
800076ee:	842e                	mv	s0,a1
800076f0:	97ba                	add	a5,a5,a4
800076f2:	bf25                	j	8000762a <_vfiprintf_r+0xf4>
800076f4:	57fd                	li	a5,-1
800076f6:	b7c5                	j	800076d6 <_vfiprintf_r+0x1a0>
800076f8:	0405                	addi	s0,s0,1
800076fa:	ca02                	sw	zero,20(sp)
800076fc:	4681                	li	a3,0
800076fe:	4781                	li	a5,0
80007700:	4625                	li	a2,9
80007702:	00044703          	lbu	a4,0(s0)
80007706:	00140593          	addi	a1,s0,1
8000770a:	fd070713          	addi	a4,a4,-48
8000770e:	06e67863          	bgeu	a2,a4,8000777e <_vfiprintf_r+0x248>
80007712:	f2f1                	bnez	a3,800076d6 <_vfiprintf_r+0x1a0>
80007714:	00044583          	lbu	a1,0(s0)
80007718:	460d                	li	a2,3
8000771a:	0fff9517          	auipc	a0,0xfff9
8000771e:	20a50513          	addi	a0,a0,522 # 90000924 <p05.3310+0x14>
80007722:	cecff0ef          	jal	ra,80006c0e <memchr>
80007726:	cd11                	beqz	a0,80007742 <_vfiprintf_r+0x20c>
80007728:	0fff9797          	auipc	a5,0xfff9
8000772c:	1fc78793          	addi	a5,a5,508 # 90000924 <p05.3310+0x14>
80007730:	8d1d                	sub	a0,a0,a5
80007732:	04000793          	li	a5,64
80007736:	00a797b3          	sll	a5,a5,a0
8000773a:	4542                	lw	a0,16(sp)
8000773c:	0405                	addi	s0,s0,1
8000773e:	8d5d                	or	a0,a0,a5
80007740:	c82a                	sw	a0,16(sp)
80007742:	00044583          	lbu	a1,0(s0)
80007746:	4619                	li	a2,6
80007748:	0fff9517          	auipc	a0,0xfff9
8000774c:	1e050513          	addi	a0,a0,480 # 90000928 <p05.3310+0x18>
80007750:	00140913          	addi	s2,s0,1
80007754:	02b10423          	sb	a1,40(sp)
80007758:	cb6ff0ef          	jal	ra,80006c0e <memchr>
8000775c:	c12d                	beqz	a0,800077be <_vfiprintf_r+0x288>
8000775e:	ffffd797          	auipc	a5,0xffffd
80007762:	53a78793          	addi	a5,a5,1338 # 80004c98 <_printf_float>
80007766:	e795                	bnez	a5,80007792 <_vfiprintf_r+0x25c>
80007768:	4742                	lw	a4,16(sp)
8000776a:	47b2                	lw	a5,12(sp)
8000776c:	10077713          	andi	a4,a4,256
80007770:	cf09                	beqz	a4,8000778a <_vfiprintf_r+0x254>
80007772:	0791                	addi	a5,a5,4
80007774:	c63e                	sw	a5,12(sp)
80007776:	5792                	lw	a5,36(sp)
80007778:	97d2                	add	a5,a5,s4
8000777a:	d23e                	sw	a5,36(sp)
8000777c:	b515                	j	800075a0 <_vfiprintf_r+0x6a>
8000777e:	036787b3          	mul	a5,a5,s6
80007782:	4685                	li	a3,1
80007784:	842e                	mv	s0,a1
80007786:	97ba                	add	a5,a5,a4
80007788:	bfad                	j	80007702 <_vfiprintf_r+0x1cc>
8000778a:	079d                	addi	a5,a5,7
8000778c:	9be1                	andi	a5,a5,-8
8000778e:	07a1                	addi	a5,a5,8
80007790:	b7d5                	j	80007774 <_vfiprintf_r+0x23e>
80007792:	0078                	addi	a4,sp,12
80007794:	00000697          	auipc	a3,0x0
80007798:	d6068693          	addi	a3,a3,-672 # 800074f4 <__sfputs_r>
8000779c:	8626                	mv	a2,s1
8000779e:	080c                	addi	a1,sp,16
800077a0:	854e                	mv	a0,s3
800077a2:	cf6fd0ef          	jal	ra,80004c98 <_printf_float>
800077a6:	57fd                	li	a5,-1
800077a8:	8a2a                	mv	s4,a0
800077aa:	fcf516e3          	bne	a0,a5,80007776 <_vfiprintf_r+0x240>
800077ae:	00c4d783          	lhu	a5,12(s1)
800077b2:	0407f793          	andi	a5,a5,64
800077b6:	ea079ce3          	bnez	a5,8000766e <_vfiprintf_r+0x138>
800077ba:	5512                	lw	a0,36(sp)
800077bc:	bd55                	j	80007670 <_vfiprintf_r+0x13a>
800077be:	0078                	addi	a4,sp,12
800077c0:	00000697          	auipc	a3,0x0
800077c4:	d3468693          	addi	a3,a3,-716 # 800074f4 <__sfputs_r>
800077c8:	8626                	mv	a2,s1
800077ca:	080c                	addi	a1,sp,16
800077cc:	854e                	mv	a0,s3
800077ce:	a9ffd0ef          	jal	ra,8000526c <_printf_i>
800077d2:	bfd1                	j	800077a6 <_vfiprintf_r+0x270>

800077d4 <_putc_r>:
800077d4:	1101                	addi	sp,sp,-32
800077d6:	cc22                	sw	s0,24(sp)
800077d8:	ce06                	sw	ra,28(sp)
800077da:	842a                	mv	s0,a0
800077dc:	c909                	beqz	a0,800077ee <_putc_r+0x1a>
800077de:	4d1c                	lw	a5,24(a0)
800077e0:	e799                	bnez	a5,800077ee <_putc_r+0x1a>
800077e2:	c632                	sw	a2,12(sp)
800077e4:	c42e                	sw	a1,8(sp)
800077e6:	9a4ff0ef          	jal	ra,8000698a <__sinit>
800077ea:	4632                	lw	a2,12(sp)
800077ec:	45a2                	lw	a1,8(sp)
800077ee:	0fff9797          	auipc	a5,0xfff9
800077f2:	ff278793          	addi	a5,a5,-14 # 900007e0 <__sf_fake_stdin>
800077f6:	02f61663          	bne	a2,a5,80007822 <_putc_r+0x4e>
800077fa:	4050                	lw	a2,4(s0)
800077fc:	461c                	lw	a5,8(a2)
800077fe:	17fd                	addi	a5,a5,-1
80007800:	c61c                	sw	a5,8(a2)
80007802:	0407d063          	bgez	a5,80007842 <_putc_r+0x6e>
80007806:	4e18                	lw	a4,24(a2)
80007808:	00e7c763          	blt	a5,a4,80007816 <_putc_r+0x42>
8000780c:	0ff5f793          	andi	a5,a1,255
80007810:	4729                	li	a4,10
80007812:	02e79863          	bne	a5,a4,80007842 <_putc_r+0x6e>
80007816:	8522                	mv	a0,s0
80007818:	4462                	lw	s0,24(sp)
8000781a:	40f2                	lw	ra,28(sp)
8000781c:	6105                	addi	sp,sp,32
8000781e:	e6dfd06f          	j	8000568a <__swbuf_r>
80007822:	0fff9797          	auipc	a5,0xfff9
80007826:	fde78793          	addi	a5,a5,-34 # 90000800 <__sf_fake_stdout>
8000782a:	00f61463          	bne	a2,a5,80007832 <_putc_r+0x5e>
8000782e:	4410                	lw	a2,8(s0)
80007830:	b7f1                	j	800077fc <_putc_r+0x28>
80007832:	0fff9797          	auipc	a5,0xfff9
80007836:	f8e78793          	addi	a5,a5,-114 # 900007c0 <__sf_fake_stderr>
8000783a:	fcf611e3          	bne	a2,a5,800077fc <_putc_r+0x28>
8000783e:	4450                	lw	a2,12(s0)
80007840:	bf75                	j	800077fc <_putc_r+0x28>
80007842:	421c                	lw	a5,0(a2)
80007844:	0ff5f513          	andi	a0,a1,255
80007848:	00178713          	addi	a4,a5,1
8000784c:	c218                	sw	a4,0(a2)
8000784e:	00b78023          	sb	a1,0(a5)
80007852:	40f2                	lw	ra,28(sp)
80007854:	4462                	lw	s0,24(sp)
80007856:	6105                	addi	sp,sp,32
80007858:	8082                	ret

8000785a <_sbrk_r>:
8000785a:	1141                	addi	sp,sp,-16
8000785c:	c422                	sw	s0,8(sp)
8000785e:	842a                	mv	s0,a0
80007860:	852e                	mv	a0,a1
80007862:	8c01a423          	sw	zero,-1848(gp) # 90000d18 <errno>
80007866:	c606                	sw	ra,12(sp)
80007868:	92dfc0ef          	jal	ra,80004194 <_sbrk>
8000786c:	57fd                	li	a5,-1
8000786e:	00f51763          	bne	a0,a5,8000787c <_sbrk_r+0x22>
80007872:	8c818793          	addi	a5,gp,-1848 # 90000d18 <errno>
80007876:	439c                	lw	a5,0(a5)
80007878:	c391                	beqz	a5,8000787c <_sbrk_r+0x22>
8000787a:	c01c                	sw	a5,0(s0)
8000787c:	40b2                	lw	ra,12(sp)
8000787e:	4422                	lw	s0,8(sp)
80007880:	0141                	addi	sp,sp,16
80007882:	8082                	ret

80007884 <__sread>:
80007884:	1141                	addi	sp,sp,-16
80007886:	c422                	sw	s0,8(sp)
80007888:	842e                	mv	s0,a1
8000788a:	00e59583          	lh	a1,14(a1)
8000788e:	c606                	sw	ra,12(sp)
80007890:	2a71                	jal	80007a2c <_read_r>
80007892:	00054963          	bltz	a0,800078a4 <__sread+0x20>
80007896:	487c                	lw	a5,84(s0)
80007898:	97aa                	add	a5,a5,a0
8000789a:	c87c                	sw	a5,84(s0)
8000789c:	40b2                	lw	ra,12(sp)
8000789e:	4422                	lw	s0,8(sp)
800078a0:	0141                	addi	sp,sp,16
800078a2:	8082                	ret
800078a4:	00c45783          	lhu	a5,12(s0)
800078a8:	777d                	lui	a4,0xfffff
800078aa:	177d                	addi	a4,a4,-1
800078ac:	8ff9                	and	a5,a5,a4
800078ae:	00f41623          	sh	a5,12(s0)
800078b2:	b7ed                	j	8000789c <__sread+0x18>

800078b4 <__swrite>:
800078b4:	00c5d783          	lhu	a5,12(a1)
800078b8:	1101                	addi	sp,sp,-32
800078ba:	cc22                	sw	s0,24(sp)
800078bc:	ca26                	sw	s1,20(sp)
800078be:	c84a                	sw	s2,16(sp)
800078c0:	c64e                	sw	s3,12(sp)
800078c2:	ce06                	sw	ra,28(sp)
800078c4:	1007f793          	andi	a5,a5,256
800078c8:	84aa                	mv	s1,a0
800078ca:	842e                	mv	s0,a1
800078cc:	8932                	mv	s2,a2
800078ce:	89b6                	mv	s3,a3
800078d0:	c791                	beqz	a5,800078dc <__swrite+0x28>
800078d2:	00e59583          	lh	a1,14(a1)
800078d6:	4689                	li	a3,2
800078d8:	4601                	li	a2,0
800078da:	20dd                	jal	800079c0 <_lseek_r>
800078dc:	00c45783          	lhu	a5,12(s0)
800078e0:	777d                	lui	a4,0xfffff
800078e2:	177d                	addi	a4,a4,-1
800078e4:	8ff9                	and	a5,a5,a4
800078e6:	00f41623          	sh	a5,12(s0)
800078ea:	00e41583          	lh	a1,14(s0)
800078ee:	4462                	lw	s0,24(sp)
800078f0:	40f2                	lw	ra,28(sp)
800078f2:	86ce                	mv	a3,s3
800078f4:	864a                	mv	a2,s2
800078f6:	49b2                	lw	s3,12(sp)
800078f8:	4942                	lw	s2,16(sp)
800078fa:	8526                	mv	a0,s1
800078fc:	44d2                	lw	s1,20(sp)
800078fe:	6105                	addi	sp,sp,32
80007900:	e51fd06f          	j	80005750 <_write_r>

80007904 <__sseek>:
80007904:	1141                	addi	sp,sp,-16
80007906:	c422                	sw	s0,8(sp)
80007908:	842e                	mv	s0,a1
8000790a:	00e59583          	lh	a1,14(a1)
8000790e:	c606                	sw	ra,12(sp)
80007910:	2845                	jal	800079c0 <_lseek_r>
80007912:	57fd                	li	a5,-1
80007914:	00c45703          	lhu	a4,12(s0)
80007918:	00f51b63          	bne	a0,a5,8000792e <__sseek+0x2a>
8000791c:	77fd                	lui	a5,0xfffff
8000791e:	17fd                	addi	a5,a5,-1
80007920:	8ff9                	and	a5,a5,a4
80007922:	00f41623          	sh	a5,12(s0)
80007926:	40b2                	lw	ra,12(sp)
80007928:	4422                	lw	s0,8(sp)
8000792a:	0141                	addi	sp,sp,16
8000792c:	8082                	ret
8000792e:	6785                	lui	a5,0x1
80007930:	8fd9                	or	a5,a5,a4
80007932:	00f41623          	sh	a5,12(s0)
80007936:	c868                	sw	a0,84(s0)
80007938:	b7fd                	j	80007926 <__sseek+0x22>

8000793a <__sclose>:
8000793a:	00e59583          	lh	a1,14(a1)
8000793e:	a009                	j	80007940 <_close_r>

80007940 <_close_r>:
80007940:	1141                	addi	sp,sp,-16
80007942:	c422                	sw	s0,8(sp)
80007944:	842a                	mv	s0,a0
80007946:	852e                	mv	a0,a1
80007948:	8c01a423          	sw	zero,-1848(gp) # 90000d18 <errno>
8000794c:	c606                	sw	ra,12(sp)
8000794e:	ef6fc0ef          	jal	ra,80004044 <_close>
80007952:	57fd                	li	a5,-1
80007954:	00f51763          	bne	a0,a5,80007962 <_close_r+0x22>
80007958:	8c818793          	addi	a5,gp,-1848 # 90000d18 <errno>
8000795c:	439c                	lw	a5,0(a5)
8000795e:	c391                	beqz	a5,80007962 <_close_r+0x22>
80007960:	c01c                	sw	a5,0(s0)
80007962:	40b2                	lw	ra,12(sp)
80007964:	4422                	lw	s0,8(sp)
80007966:	0141                	addi	sp,sp,16
80007968:	8082                	ret

8000796a <_fstat_r>:
8000796a:	1141                	addi	sp,sp,-16
8000796c:	c422                	sw	s0,8(sp)
8000796e:	842a                	mv	s0,a0
80007970:	852e                	mv	a0,a1
80007972:	85b2                	mv	a1,a2
80007974:	8c01a423          	sw	zero,-1848(gp) # 90000d18 <errno>
80007978:	c606                	sw	ra,12(sp)
8000797a:	fcefc0ef          	jal	ra,80004148 <_fstat>
8000797e:	57fd                	li	a5,-1
80007980:	00f51763          	bne	a0,a5,8000798e <_fstat_r+0x24>
80007984:	8c818793          	addi	a5,gp,-1848 # 90000d18 <errno>
80007988:	439c                	lw	a5,0(a5)
8000798a:	c391                	beqz	a5,8000798e <_fstat_r+0x24>
8000798c:	c01c                	sw	a5,0(s0)
8000798e:	40b2                	lw	ra,12(sp)
80007990:	4422                	lw	s0,8(sp)
80007992:	0141                	addi	sp,sp,16
80007994:	8082                	ret

80007996 <_isatty_r>:
80007996:	1141                	addi	sp,sp,-16
80007998:	c422                	sw	s0,8(sp)
8000799a:	842a                	mv	s0,a0
8000799c:	852e                	mv	a0,a1
8000799e:	8c01a423          	sw	zero,-1848(gp) # 90000d18 <errno>
800079a2:	c606                	sw	ra,12(sp)
800079a4:	fc4fc0ef          	jal	ra,80004168 <_isatty>
800079a8:	57fd                	li	a5,-1
800079aa:	00f51763          	bne	a0,a5,800079b8 <_isatty_r+0x22>
800079ae:	8c818793          	addi	a5,gp,-1848 # 90000d18 <errno>
800079b2:	439c                	lw	a5,0(a5)
800079b4:	c391                	beqz	a5,800079b8 <_isatty_r+0x22>
800079b6:	c01c                	sw	a5,0(s0)
800079b8:	40b2                	lw	ra,12(sp)
800079ba:	4422                	lw	s0,8(sp)
800079bc:	0141                	addi	sp,sp,16
800079be:	8082                	ret

800079c0 <_lseek_r>:
800079c0:	1141                	addi	sp,sp,-16
800079c2:	c422                	sw	s0,8(sp)
800079c4:	842a                	mv	s0,a0
800079c6:	852e                	mv	a0,a1
800079c8:	85b2                	mv	a1,a2
800079ca:	8636                	mv	a2,a3
800079cc:	8c01a423          	sw	zero,-1848(gp) # 90000d18 <errno>
800079d0:	c606                	sw	ra,12(sp)
800079d2:	fa2fc0ef          	jal	ra,80004174 <_lseek>
800079d6:	57fd                	li	a5,-1
800079d8:	00f51763          	bne	a0,a5,800079e6 <_lseek_r+0x26>
800079dc:	8c818793          	addi	a5,gp,-1848 # 90000d18 <errno>
800079e0:	439c                	lw	a5,0(a5)
800079e2:	c391                	beqz	a5,800079e6 <_lseek_r+0x26>
800079e4:	c01c                	sw	a5,0(s0)
800079e6:	40b2                	lw	ra,12(sp)
800079e8:	4422                	lw	s0,8(sp)
800079ea:	0141                	addi	sp,sp,16
800079ec:	8082                	ret

800079ee <__ascii_mbtowc>:
800079ee:	e185                	bnez	a1,80007a0e <__ascii_mbtowc+0x20>
800079f0:	1141                	addi	sp,sp,-16
800079f2:	006c                	addi	a1,sp,12
800079f4:	4501                	li	a0,0
800079f6:	ca11                	beqz	a2,80007a0a <__ascii_mbtowc+0x1c>
800079f8:	5579                	li	a0,-2
800079fa:	ca81                	beqz	a3,80007a0a <__ascii_mbtowc+0x1c>
800079fc:	00064783          	lbu	a5,0(a2)
80007a00:	c19c                	sw	a5,0(a1)
80007a02:	00064503          	lbu	a0,0(a2)
80007a06:	00a03533          	snez	a0,a0
80007a0a:	0141                	addi	sp,sp,16
80007a0c:	8082                	ret
80007a0e:	4501                	li	a0,0
80007a10:	ca19                	beqz	a2,80007a26 <__ascii_mbtowc+0x38>
80007a12:	5579                	li	a0,-2
80007a14:	ca89                	beqz	a3,80007a26 <__ascii_mbtowc+0x38>
80007a16:	00064783          	lbu	a5,0(a2)
80007a1a:	c19c                	sw	a5,0(a1)
80007a1c:	00064503          	lbu	a0,0(a2)
80007a20:	00a03533          	snez	a0,a0
80007a24:	8082                	ret
80007a26:	8082                	ret

80007a28 <__malloc_lock>:
80007a28:	8082                	ret

80007a2a <__malloc_unlock>:
80007a2a:	8082                	ret

80007a2c <_read_r>:
80007a2c:	1141                	addi	sp,sp,-16
80007a2e:	c422                	sw	s0,8(sp)
80007a30:	842a                	mv	s0,a0
80007a32:	852e                	mv	a0,a1
80007a34:	85b2                	mv	a1,a2
80007a36:	8636                	mv	a2,a3
80007a38:	8c01a423          	sw	zero,-1848(gp) # 90000d18 <errno>
80007a3c:	c606                	sw	ra,12(sp)
80007a3e:	f4efc0ef          	jal	ra,8000418c <_read>
80007a42:	57fd                	li	a5,-1
80007a44:	00f51763          	bne	a0,a5,80007a52 <_read_r+0x26>
80007a48:	8c818793          	addi	a5,gp,-1848 # 90000d18 <errno>
80007a4c:	439c                	lw	a5,0(a5)
80007a4e:	c391                	beqz	a5,80007a52 <_read_r+0x26>
80007a50:	c01c                	sw	a5,0(s0)
80007a52:	40b2                	lw	ra,12(sp)
80007a54:	4422                	lw	s0,8(sp)
80007a56:	0141                	addi	sp,sp,16
80007a58:	8082                	ret

80007a5a <__ascii_wctomb>:
80007a5a:	cd91                	beqz	a1,80007a76 <__ascii_wctomb+0x1c>
80007a5c:	0ff00793          	li	a5,255
80007a60:	00c7f763          	bgeu	a5,a2,80007a6e <__ascii_wctomb+0x14>
80007a64:	08a00793          	li	a5,138
80007a68:	c11c                	sw	a5,0(a0)
80007a6a:	557d                	li	a0,-1
80007a6c:	8082                	ret
80007a6e:	00c58023          	sb	a2,0(a1)
80007a72:	4505                	li	a0,1
80007a74:	8082                	ret
80007a76:	4501                	li	a0,0
80007a78:	8082                	ret

80007a7a <__adddf3>:
80007a7a:	00100837          	lui	a6,0x100
80007a7e:	1101                	addi	sp,sp,-32
80007a80:	187d                	addi	a6,a6,-1
80007a82:	00b87733          	and	a4,a6,a1
80007a86:	ca26                	sw	s1,20(sp)
80007a88:	00d87833          	and	a6,a6,a3
80007a8c:	0145d493          	srli	s1,a1,0x14
80007a90:	0146d313          	srli	t1,a3,0x14
80007a94:	00371e13          	slli	t3,a4,0x3
80007a98:	c64e                	sw	s3,12(sp)
80007a9a:	01d55713          	srli	a4,a0,0x1d
80007a9e:	080e                	slli	a6,a6,0x3
80007aa0:	01d65793          	srli	a5,a2,0x1d
80007aa4:	7ff4f493          	andi	s1,s1,2047
80007aa8:	7ff37313          	andi	t1,t1,2047
80007aac:	ce06                	sw	ra,28(sp)
80007aae:	cc22                	sw	s0,24(sp)
80007ab0:	c84a                	sw	s2,16(sp)
80007ab2:	01f5d993          	srli	s3,a1,0x1f
80007ab6:	01f6de93          	srli	t4,a3,0x1f
80007aba:	01c76733          	or	a4,a4,t3
80007abe:	00351f13          	slli	t5,a0,0x3
80007ac2:	0107e833          	or	a6,a5,a6
80007ac6:	00361f93          	slli	t6,a2,0x3
80007aca:	40648e33          	sub	t3,s1,t1
80007ace:	19d98063          	beq	s3,t4,80007c4e <__adddf3+0x1d4>
80007ad2:	13c05663          	blez	t3,80007bfe <__adddf3+0x184>
80007ad6:	1c030463          	beqz	t1,80007c9e <__adddf3+0x224>
80007ada:	008006b7          	lui	a3,0x800
80007ade:	7ff00793          	li	a5,2047
80007ae2:	00d86833          	or	a6,a6,a3
80007ae6:	36f48f63          	beq	s1,a5,80007e64 <__adddf3+0x3ea>
80007aea:	03800793          	li	a5,56
80007aee:	35c7c063          	blt	a5,t3,80007e2e <__adddf3+0x3b4>
80007af2:	47fd                	li	a5,31
80007af4:	47c7cd63          	blt	a5,t3,80007f6e <__adddf3+0x4f4>
80007af8:	02000513          	li	a0,32
80007afc:	41c50533          	sub	a0,a0,t3
80007b00:	01cfd7b3          	srl	a5,t6,t3
80007b04:	00a816b3          	sll	a3,a6,a0
80007b08:	00af9933          	sll	s2,t6,a0
80007b0c:	8edd                	or	a3,a3,a5
80007b0e:	01203933          	snez	s2,s2
80007b12:	01c857b3          	srl	a5,a6,t3
80007b16:	0126e933          	or	s2,a3,s2
80007b1a:	8f1d                	sub	a4,a4,a5
80007b1c:	412f0933          	sub	s2,t5,s2
80007b20:	012f37b3          	sltu	a5,t5,s2
80007b24:	40f70633          	sub	a2,a4,a5
80007b28:	00861793          	slli	a5,a2,0x8
80007b2c:	2407d463          	bgez	a5,80007d74 <__adddf3+0x2fa>
80007b30:	00800737          	lui	a4,0x800
80007b34:	177d                	addi	a4,a4,-1
80007b36:	00e67433          	and	s0,a2,a4
80007b3a:	2c040c63          	beqz	s0,80007e12 <__adddf3+0x398>
80007b3e:	8522                	mv	a0,s0
80007b40:	e8dfc0ef          	jal	ra,800049cc <__clzsi2>
80007b44:	ff850713          	addi	a4,a0,-8
80007b48:	02000793          	li	a5,32
80007b4c:	8f99                	sub	a5,a5,a4
80007b4e:	00f957b3          	srl	a5,s2,a5
80007b52:	00e41633          	sll	a2,s0,a4
80007b56:	8fd1                	or	a5,a5,a2
80007b58:	00e91933          	sll	s2,s2,a4
80007b5c:	2a974163          	blt	a4,s1,80007dfe <__adddf3+0x384>
80007b60:	40970533          	sub	a0,a4,s1
80007b64:	00150613          	addi	a2,a0,1
80007b68:	477d                	li	a4,31
80007b6a:	38c74d63          	blt	a4,a2,80007f04 <__adddf3+0x48a>
80007b6e:	02000713          	li	a4,32
80007b72:	8f11                	sub	a4,a4,a2
80007b74:	00c956b3          	srl	a3,s2,a2
80007b78:	00e91933          	sll	s2,s2,a4
80007b7c:	00e79733          	sll	a4,a5,a4
80007b80:	8f55                	or	a4,a4,a3
80007b82:	01203933          	snez	s2,s2
80007b86:	01276933          	or	s2,a4,s2
80007b8a:	00c7d633          	srl	a2,a5,a2
80007b8e:	4481                	li	s1,0
80007b90:	00797793          	andi	a5,s2,7
80007b94:	cf81                	beqz	a5,80007bac <__adddf3+0x132>
80007b96:	00f97713          	andi	a4,s2,15
80007b9a:	4791                	li	a5,4
80007b9c:	00f70863          	beq	a4,a5,80007bac <__adddf3+0x132>
80007ba0:	00490713          	addi	a4,s2,4
80007ba4:	01273933          	sltu	s2,a4,s2
80007ba8:	964a                	add	a2,a2,s2
80007baa:	893a                	mv	s2,a4
80007bac:	00861793          	slli	a5,a2,0x8
80007bb0:	1c07d663          	bgez	a5,80007d7c <__adddf3+0x302>
80007bb4:	00148513          	addi	a0,s1,1
80007bb8:	7ff00793          	li	a5,2047
80007bbc:	85ce                	mv	a1,s3
80007bbe:	20f50463          	beq	a0,a5,80007dc6 <__adddf3+0x34c>
80007bc2:	ff8007b7          	lui	a5,0xff800
80007bc6:	17fd                	addi	a5,a5,-1
80007bc8:	8ff1                	and	a5,a5,a2
80007bca:	01d79893          	slli	a7,a5,0x1d
80007bce:	00395913          	srli	s2,s2,0x3
80007bd2:	07a6                	slli	a5,a5,0x9
80007bd4:	0128e8b3          	or	a7,a7,s2
80007bd8:	83b1                	srli	a5,a5,0xc
80007bda:	7ff57513          	andi	a0,a0,2047
80007bde:	00c79693          	slli	a3,a5,0xc
80007be2:	0552                	slli	a0,a0,0x14
80007be4:	40f2                	lw	ra,28(sp)
80007be6:	4462                	lw	s0,24(sp)
80007be8:	82b1                	srli	a3,a3,0xc
80007bea:	05fe                	slli	a1,a1,0x1f
80007bec:	8ec9                	or	a3,a3,a0
80007bee:	8ecd                	or	a3,a3,a1
80007bf0:	44d2                	lw	s1,20(sp)
80007bf2:	4942                	lw	s2,16(sp)
80007bf4:	49b2                	lw	s3,12(sp)
80007bf6:	8546                	mv	a0,a7
80007bf8:	85b6                	mv	a1,a3
80007bfa:	6105                	addi	sp,sp,32
80007bfc:	8082                	ret
80007bfe:	0a0e1e63          	bnez	t3,80007cba <__adddf3+0x240>
80007c02:	00148313          	addi	t1,s1,1
80007c06:	7fe37313          	andi	t1,t1,2046
80007c0a:	22031763          	bnez	t1,80007e38 <__adddf3+0x3be>
80007c0e:	01e767b3          	or	a5,a4,t5
80007c12:	01f868b3          	or	a7,a6,t6
80007c16:	1a049d63          	bnez	s1,80007dd0 <__adddf3+0x356>
80007c1a:	40078763          	beqz	a5,80008028 <__adddf3+0x5ae>
80007c1e:	44088663          	beqz	a7,8000806a <__adddf3+0x5f0>
80007c22:	41ff0933          	sub	s2,t5,t6
80007c26:	410707b3          	sub	a5,a4,a6
80007c2a:	012f3633          	sltu	a2,t5,s2
80007c2e:	40c78633          	sub	a2,a5,a2
80007c32:	00861793          	slli	a5,a2,0x8
80007c36:	4c07d663          	bgez	a5,80008102 <__adddf3+0x688>
80007c3a:	41ef8933          	sub	s2,t6,t5
80007c3e:	40e807b3          	sub	a5,a6,a4
80007c42:	012fb633          	sltu	a2,t6,s2
80007c46:	40c78633          	sub	a2,a5,a2
80007c4a:	89f6                	mv	s3,t4
80007c4c:	b791                	j	80007b90 <__adddf3+0x116>
80007c4e:	0fc05063          	blez	t3,80007d2e <__adddf3+0x2b4>
80007c52:	0c030063          	beqz	t1,80007d12 <__adddf3+0x298>
80007c56:	008006b7          	lui	a3,0x800
80007c5a:	7ff00793          	li	a5,2047
80007c5e:	00d86833          	or	a6,a6,a3
80007c62:	3af48a63          	beq	s1,a5,80008016 <__adddf3+0x59c>
80007c66:	03800793          	li	a5,56
80007c6a:	13c7cb63          	blt	a5,t3,80007da0 <__adddf3+0x326>
80007c6e:	47fd                	li	a5,31
80007c70:	35c7df63          	bge	a5,t3,80007fce <__adddf3+0x554>
80007c74:	fe0e0913          	addi	s2,t3,-32
80007c78:	02000793          	li	a5,32
80007c7c:	012856b3          	srl	a3,a6,s2
80007c80:	00fe0a63          	beq	t3,a5,80007c94 <__adddf3+0x21a>
80007c84:	04000913          	li	s2,64
80007c88:	41c90933          	sub	s2,s2,t3
80007c8c:	01281933          	sll	s2,a6,s2
80007c90:	012fefb3          	or	t6,t6,s2
80007c94:	01f03933          	snez	s2,t6
80007c98:	00d96933          	or	s2,s2,a3
80007c9c:	a231                	j	80007da8 <__adddf3+0x32e>
80007c9e:	01f867b3          	or	a5,a6,t6
80007ca2:	1c078a63          	beqz	a5,80007e76 <__adddf3+0x3fc>
80007ca6:	fffe0793          	addi	a5,t3,-1
80007caa:	38078c63          	beqz	a5,80008042 <__adddf3+0x5c8>
80007cae:	7ff00693          	li	a3,2047
80007cb2:	1ade0963          	beq	t3,a3,80007e64 <__adddf3+0x3ea>
80007cb6:	8e3e                	mv	t3,a5
80007cb8:	bd0d                	j	80007aea <__adddf3+0x70>
80007cba:	409305b3          	sub	a1,t1,s1
80007cbe:	22049163          	bnez	s1,80007ee0 <__adddf3+0x466>
80007cc2:	01e767b3          	or	a5,a4,t5
80007cc6:	32078763          	beqz	a5,80007ff4 <__adddf3+0x57a>
80007cca:	fff58793          	addi	a5,a1,-1
80007cce:	44078163          	beqz	a5,80008110 <__adddf3+0x696>
80007cd2:	7ff00693          	li	a3,2047
80007cd6:	20d58c63          	beq	a1,a3,80007eee <__adddf3+0x474>
80007cda:	85be                	mv	a1,a5
80007cdc:	03800793          	li	a5,56
80007ce0:	2ab7cc63          	blt	a5,a1,80007f98 <__adddf3+0x51e>
80007ce4:	47fd                	li	a5,31
80007ce6:	3cb7cf63          	blt	a5,a1,800080c4 <__adddf3+0x64a>
80007cea:	02000793          	li	a5,32
80007cee:	8f8d                	sub	a5,a5,a1
80007cf0:	00f71933          	sll	s2,a4,a5
80007cf4:	00bf56b3          	srl	a3,t5,a1
80007cf8:	00ff17b3          	sll	a5,t5,a5
80007cfc:	00d96933          	or	s2,s2,a3
80007d00:	00f037b3          	snez	a5,a5
80007d04:	00b75733          	srl	a4,a4,a1
80007d08:	00f96933          	or	s2,s2,a5
80007d0c:	40e80833          	sub	a6,a6,a4
80007d10:	ac41                	j	80007fa0 <__adddf3+0x526>
80007d12:	01f867b3          	or	a5,a6,t6
80007d16:	34078063          	beqz	a5,80008056 <__adddf3+0x5dc>
80007d1a:	fffe0793          	addi	a5,t3,-1
80007d1e:	20078a63          	beqz	a5,80007f32 <__adddf3+0x4b8>
80007d22:	7ff00693          	li	a3,2047
80007d26:	2ede0863          	beq	t3,a3,80008016 <__adddf3+0x59c>
80007d2a:	8e3e                	mv	t3,a5
80007d2c:	bf2d                	j	80007c66 <__adddf3+0x1ec>
80007d2e:	140e1e63          	bnez	t3,80007e8a <__adddf3+0x410>
80007d32:	00148693          	addi	a3,s1,1
80007d36:	7fe6f793          	andi	a5,a3,2046
80007d3a:	34079163          	bnez	a5,8000807c <__adddf3+0x602>
80007d3e:	01e767b3          	or	a5,a4,t5
80007d42:	2c049563          	bnez	s1,8000800c <__adddf3+0x592>
80007d46:	3e078063          	beqz	a5,80008126 <__adddf3+0x6ac>
80007d4a:	01f867b3          	or	a5,a6,t6
80007d4e:	30078e63          	beqz	a5,8000806a <__adddf3+0x5f0>
80007d52:	01ff0933          	add	s2,t5,t6
80007d56:	010707b3          	add	a5,a4,a6
80007d5a:	01e93f33          	sltu	t5,s2,t5
80007d5e:	01e78633          	add	a2,a5,t5
80007d62:	00861793          	slli	a5,a2,0x8
80007d66:	0007d763          	bgez	a5,80007d74 <__adddf3+0x2fa>
80007d6a:	ff8007b7          	lui	a5,0xff800
80007d6e:	17fd                	addi	a5,a5,-1
80007d70:	8e7d                	and	a2,a2,a5
80007d72:	4485                	li	s1,1
80007d74:	00797793          	andi	a5,s2,7
80007d78:	e0079fe3          	bnez	a5,80007b96 <__adddf3+0x11c>
80007d7c:	01d61793          	slli	a5,a2,0x1d
80007d80:	00395893          	srli	a7,s2,0x3
80007d84:	00f8e8b3          	or	a7,a7,a5
80007d88:	00365793          	srli	a5,a2,0x3
80007d8c:	7ff00713          	li	a4,2047
80007d90:	04e48d63          	beq	s1,a4,80007dea <__adddf3+0x370>
80007d94:	07b2                	slli	a5,a5,0xc
80007d96:	83b1                	srli	a5,a5,0xc
80007d98:	7ff4f513          	andi	a0,s1,2047
80007d9c:	85ce                	mv	a1,s3
80007d9e:	b581                	j	80007bde <__adddf3+0x164>
80007da0:	01f86933          	or	s2,a6,t6
80007da4:	01203933          	snez	s2,s2
80007da8:	997a                	add	s2,s2,t5
80007daa:	01e937b3          	sltu	a5,s2,t5
80007dae:	00e78633          	add	a2,a5,a4
80007db2:	00861793          	slli	a5,a2,0x8
80007db6:	fa07dfe3          	bgez	a5,80007d74 <__adddf3+0x2fa>
80007dba:	0485                	addi	s1,s1,1
80007dbc:	7ff00793          	li	a5,2047
80007dc0:	18f49663          	bne	s1,a5,80007f4c <__adddf3+0x4d2>
80007dc4:	85ce                	mv	a1,s3
80007dc6:	7ff00513          	li	a0,2047
80007dca:	4781                	li	a5,0
80007dcc:	4881                	li	a7,0
80007dce:	bd01                	j	80007bde <__adddf3+0x164>
80007dd0:	ebc1                	bnez	a5,80007e60 <__adddf3+0x3e6>
80007dd2:	3a088463          	beqz	a7,8000817a <__adddf3+0x700>
80007dd6:	00361693          	slli	a3,a2,0x3
80007dda:	01d81793          	slli	a5,a6,0x1d
80007dde:	828d                	srli	a3,a3,0x3
80007de0:	00d7e8b3          	or	a7,a5,a3
80007de4:	89f6                	mv	s3,t4
80007de6:	00385793          	srli	a5,a6,0x3
80007dea:	00f8e7b3          	or	a5,a7,a5
80007dee:	dbf9                	beqz	a5,80007dc4 <__adddf3+0x34a>
80007df0:	4581                	li	a1,0
80007df2:	7ff00513          	li	a0,2047
80007df6:	000807b7          	lui	a5,0x80
80007dfa:	4881                	li	a7,0
80007dfc:	b3cd                	j	80007bde <__adddf3+0x164>
80007dfe:	ff800637          	lui	a2,0xff800
80007e02:	167d                	addi	a2,a2,-1
80007e04:	8e7d                	and	a2,a2,a5
80007e06:	00797793          	andi	a5,s2,7
80007e0a:	8c99                	sub	s1,s1,a4
80007e0c:	d80795e3          	bnez	a5,80007b96 <__adddf3+0x11c>
80007e10:	b7b5                	j	80007d7c <__adddf3+0x302>
80007e12:	854a                	mv	a0,s2
80007e14:	bb9fc0ef          	jal	ra,800049cc <__clzsi2>
80007e18:	01850713          	addi	a4,a0,24
80007e1c:	47fd                	li	a5,31
80007e1e:	d2e7d5e3          	bge	a5,a4,80007b48 <__adddf3+0xce>
80007e22:	ff850613          	addi	a2,a0,-8
80007e26:	00c917b3          	sll	a5,s2,a2
80007e2a:	4901                	li	s2,0
80007e2c:	bb05                	j	80007b5c <__adddf3+0xe2>
80007e2e:	01f86933          	or	s2,a6,t6
80007e32:	01203933          	snez	s2,s2
80007e36:	b1dd                	j	80007b1c <__adddf3+0xa2>
80007e38:	41ff0933          	sub	s2,t5,t6
80007e3c:	41070633          	sub	a2,a4,a6
80007e40:	012f3433          	sltu	s0,t5,s2
80007e44:	40860433          	sub	s0,a2,s0
80007e48:	00841793          	slli	a5,s0,0x8
80007e4c:	2407cd63          	bltz	a5,800080a6 <__adddf3+0x62c>
80007e50:	008968b3          	or	a7,s2,s0
80007e54:	ce0893e3          	bnez	a7,80007b3a <__adddf3+0xc0>
80007e58:	4781                	li	a5,0
80007e5a:	4981                	li	s3,0
80007e5c:	4481                	li	s1,0
80007e5e:	bf1d                	j	80007d94 <__adddf3+0x31a>
80007e60:	f80898e3          	bnez	a7,80007df0 <__adddf3+0x376>
80007e64:	050e                	slli	a0,a0,0x3
80007e66:	01d71793          	slli	a5,a4,0x1d
80007e6a:	810d                	srli	a0,a0,0x3
80007e6c:	00a7e8b3          	or	a7,a5,a0
80007e70:	00375793          	srli	a5,a4,0x3
80007e74:	bf9d                	j	80007dea <__adddf3+0x370>
80007e76:	050e                	slli	a0,a0,0x3
80007e78:	01d71793          	slli	a5,a4,0x1d
80007e7c:	810d                	srli	a0,a0,0x3
80007e7e:	00a7e8b3          	or	a7,a5,a0
80007e82:	84f2                	mv	s1,t3
80007e84:	00375793          	srli	a5,a4,0x3
80007e88:	b711                	j	80007d8c <__adddf3+0x312>
80007e8a:	40930533          	sub	a0,t1,s1
80007e8e:	12048263          	beqz	s1,80007fb2 <__adddf3+0x538>
80007e92:	008006b7          	lui	a3,0x800
80007e96:	7ff00793          	li	a5,2047
80007e9a:	8f55                	or	a4,a4,a3
80007e9c:	2ef30d63          	beq	t1,a5,80008196 <__adddf3+0x71c>
80007ea0:	03800793          	li	a5,56
80007ea4:	20a7cb63          	blt	a5,a0,800080ba <__adddf3+0x640>
80007ea8:	47fd                	li	a5,31
80007eaa:	2aa7c363          	blt	a5,a0,80008150 <__adddf3+0x6d6>
80007eae:	02000793          	li	a5,32
80007eb2:	8f89                	sub	a5,a5,a0
80007eb4:	00f71933          	sll	s2,a4,a5
80007eb8:	00af56b3          	srl	a3,t5,a0
80007ebc:	00ff17b3          	sll	a5,t5,a5
80007ec0:	00d96933          	or	s2,s2,a3
80007ec4:	00f037b3          	snez	a5,a5
80007ec8:	00a75733          	srl	a4,a4,a0
80007ecc:	00f96933          	or	s2,s2,a5
80007ed0:	983a                	add	a6,a6,a4
80007ed2:	997e                	add	s2,s2,t6
80007ed4:	01f937b3          	sltu	a5,s2,t6
80007ed8:	01078633          	add	a2,a5,a6
80007edc:	849a                	mv	s1,t1
80007ede:	bdd1                	j	80007db2 <__adddf3+0x338>
80007ee0:	008006b7          	lui	a3,0x800
80007ee4:	7ff00793          	li	a5,2047
80007ee8:	8f55                	or	a4,a4,a3
80007eea:	def319e3          	bne	t1,a5,80007cdc <__adddf3+0x262>
80007eee:	00361793          	slli	a5,a2,0x3
80007ef2:	838d                	srli	a5,a5,0x3
80007ef4:	01d81893          	slli	a7,a6,0x1d
80007ef8:	0117e8b3          	or	a7,a5,a7
80007efc:	89f6                	mv	s3,t4
80007efe:	00385793          	srli	a5,a6,0x3
80007f02:	b5e5                	j	80007dea <__adddf3+0x370>
80007f04:	fe150713          	addi	a4,a0,-31
80007f08:	02000693          	li	a3,32
80007f0c:	00e7d733          	srl	a4,a5,a4
80007f10:	00d60a63          	beq	a2,a3,80007f24 <__adddf3+0x4aa>
80007f14:	04000693          	li	a3,64
80007f18:	40c68633          	sub	a2,a3,a2
80007f1c:	00c79633          	sll	a2,a5,a2
80007f20:	00c96933          	or	s2,s2,a2
80007f24:	01203933          	snez	s2,s2
80007f28:	00e96933          	or	s2,s2,a4
80007f2c:	4601                	li	a2,0
80007f2e:	4481                	li	s1,0
80007f30:	b591                	j	80007d74 <__adddf3+0x2fa>
80007f32:	01ff0933          	add	s2,t5,t6
80007f36:	010707b3          	add	a5,a4,a6
80007f3a:	01e93633          	sltu	a2,s2,t5
80007f3e:	963e                	add	a2,a2,a5
80007f40:	00861793          	slli	a5,a2,0x8
80007f44:	4485                	li	s1,1
80007f46:	e207d7e3          	bgez	a5,80007d74 <__adddf3+0x2fa>
80007f4a:	4489                	li	s1,2
80007f4c:	ff8007b7          	lui	a5,0xff800
80007f50:	17fd                	addi	a5,a5,-1
80007f52:	8ff1                	and	a5,a5,a2
80007f54:	00195713          	srli	a4,s2,0x1
80007f58:	00197913          	andi	s2,s2,1
80007f5c:	01276933          	or	s2,a4,s2
80007f60:	01f79893          	slli	a7,a5,0x1f
80007f64:	0128e933          	or	s2,a7,s2
80007f68:	0017d613          	srli	a2,a5,0x1
80007f6c:	b115                	j	80007b90 <__adddf3+0x116>
80007f6e:	fe0e0913          	addi	s2,t3,-32
80007f72:	02000793          	li	a5,32
80007f76:	012856b3          	srl	a3,a6,s2
80007f7a:	00fe0a63          	beq	t3,a5,80007f8e <__adddf3+0x514>
80007f7e:	04000913          	li	s2,64
80007f82:	41c90933          	sub	s2,s2,t3
80007f86:	01281933          	sll	s2,a6,s2
80007f8a:	012fefb3          	or	t6,t6,s2
80007f8e:	01f03933          	snez	s2,t6
80007f92:	00d96933          	or	s2,s2,a3
80007f96:	b659                	j	80007b1c <__adddf3+0xa2>
80007f98:	01e76933          	or	s2,a4,t5
80007f9c:	01203933          	snez	s2,s2
80007fa0:	412f8933          	sub	s2,t6,s2
80007fa4:	012fb7b3          	sltu	a5,t6,s2
80007fa8:	40f80633          	sub	a2,a6,a5
80007fac:	849a                	mv	s1,t1
80007fae:	89f6                	mv	s3,t4
80007fb0:	bea5                	j	80007b28 <__adddf3+0xae>
80007fb2:	01e767b3          	or	a5,a4,t5
80007fb6:	18078263          	beqz	a5,8000813a <__adddf3+0x6c0>
80007fba:	fff50793          	addi	a5,a0,-1
80007fbe:	1c078463          	beqz	a5,80008186 <__adddf3+0x70c>
80007fc2:	7ff00693          	li	a3,2047
80007fc6:	12d50463          	beq	a0,a3,800080ee <__adddf3+0x674>
80007fca:	853e                	mv	a0,a5
80007fcc:	bdd1                	j	80007ea0 <__adddf3+0x426>
80007fce:	02000793          	li	a5,32
80007fd2:	41c787b3          	sub	a5,a5,t3
80007fd6:	00f816b3          	sll	a3,a6,a5
80007fda:	00ff9933          	sll	s2,t6,a5
80007fde:	01cfd633          	srl	a2,t6,t3
80007fe2:	8ed1                	or	a3,a3,a2
80007fe4:	01203933          	snez	s2,s2
80007fe8:	01c857b3          	srl	a5,a6,t3
80007fec:	0126e933          	or	s2,a3,s2
80007ff0:	973e                	add	a4,a4,a5
80007ff2:	bb5d                	j	80007da8 <__adddf3+0x32e>
80007ff4:	00361793          	slli	a5,a2,0x3
80007ff8:	838d                	srli	a5,a5,0x3
80007ffa:	01d81893          	slli	a7,a6,0x1d
80007ffe:	0117e8b3          	or	a7,a5,a7
80008002:	84ae                	mv	s1,a1
80008004:	00385793          	srli	a5,a6,0x3
80008008:	89f6                	mv	s3,t4
8000800a:	b349                	j	80007d8c <__adddf3+0x312>
8000800c:	c3ed                	beqz	a5,800080ee <__adddf3+0x674>
8000800e:	01f86933          	or	s2,a6,t6
80008012:	dc091fe3          	bnez	s2,80007df0 <__adddf3+0x376>
80008016:	050e                	slli	a0,a0,0x3
80008018:	01d71793          	slli	a5,a4,0x1d
8000801c:	810d                	srli	a0,a0,0x3
8000801e:	00f568b3          	or	a7,a0,a5
80008022:	00375793          	srli	a5,a4,0x3
80008026:	b3d1                	j	80007dea <__adddf3+0x370>
80008028:	0e088163          	beqz	a7,8000810a <__adddf3+0x690>
8000802c:	00361693          	slli	a3,a2,0x3
80008030:	01d81793          	slli	a5,a6,0x1d
80008034:	828d                	srli	a3,a3,0x3
80008036:	00d7e8b3          	or	a7,a5,a3
8000803a:	89f6                	mv	s3,t4
8000803c:	00385793          	srli	a5,a6,0x3
80008040:	bb91                	j	80007d94 <__adddf3+0x31a>
80008042:	41ff0933          	sub	s2,t5,t6
80008046:	410707b3          	sub	a5,a4,a6
8000804a:	012f3f33          	sltu	t5,t5,s2
8000804e:	41e78633          	sub	a2,a5,t5
80008052:	4485                	li	s1,1
80008054:	bcd1                	j	80007b28 <__adddf3+0xae>
80008056:	050e                	slli	a0,a0,0x3
80008058:	01d71793          	slli	a5,a4,0x1d
8000805c:	810d                	srli	a0,a0,0x3
8000805e:	00f568b3          	or	a7,a0,a5
80008062:	84f2                	mv	s1,t3
80008064:	00375793          	srli	a5,a4,0x3
80008068:	b315                	j	80007d8c <__adddf3+0x312>
8000806a:	050e                	slli	a0,a0,0x3
8000806c:	01d71793          	slli	a5,a4,0x1d
80008070:	810d                	srli	a0,a0,0x3
80008072:	00a7e8b3          	or	a7,a5,a0
80008076:	00375793          	srli	a5,a4,0x3
8000807a:	bb29                	j	80007d94 <__adddf3+0x31a>
8000807c:	7ff00793          	li	a5,2047
80008080:	d4f682e3          	beq	a3,a5,80007dc4 <__adddf3+0x34a>
80008084:	01ff0933          	add	s2,t5,t6
80008088:	01e93633          	sltu	a2,s2,t5
8000808c:	010707b3          	add	a5,a4,a6
80008090:	97b2                	add	a5,a5,a2
80008092:	01f79893          	slli	a7,a5,0x1f
80008096:	00195913          	srli	s2,s2,0x1
8000809a:	0128e933          	or	s2,a7,s2
8000809e:	0017d613          	srli	a2,a5,0x1
800080a2:	84b6                	mv	s1,a3
800080a4:	b9c1                	j	80007d74 <__adddf3+0x2fa>
800080a6:	41ef8933          	sub	s2,t6,t5
800080aa:	40e80733          	sub	a4,a6,a4
800080ae:	012fb633          	sltu	a2,t6,s2
800080b2:	40c70433          	sub	s0,a4,a2
800080b6:	89f6                	mv	s3,t4
800080b8:	b449                	j	80007b3a <__adddf3+0xc0>
800080ba:	01e76933          	or	s2,a4,t5
800080be:	01203933          	snez	s2,s2
800080c2:	bd01                	j	80007ed2 <__adddf3+0x458>
800080c4:	fe058793          	addi	a5,a1,-32
800080c8:	02000693          	li	a3,32
800080cc:	00f757b3          	srl	a5,a4,a5
800080d0:	00d58a63          	beq	a1,a3,800080e4 <__adddf3+0x66a>
800080d4:	04000693          	li	a3,64
800080d8:	40b685b3          	sub	a1,a3,a1
800080dc:	00b71733          	sll	a4,a4,a1
800080e0:	00ef6f33          	or	t5,t5,a4
800080e4:	01e03933          	snez	s2,t5
800080e8:	00f96933          	or	s2,s2,a5
800080ec:	bd55                	j	80007fa0 <__adddf3+0x526>
800080ee:	00361793          	slli	a5,a2,0x3
800080f2:	838d                	srli	a5,a5,0x3
800080f4:	01d81893          	slli	a7,a6,0x1d
800080f8:	0117e8b3          	or	a7,a5,a7
800080fc:	00385793          	srli	a5,a6,0x3
80008100:	b1ed                	j	80007dea <__adddf3+0x370>
80008102:	00c968b3          	or	a7,s2,a2
80008106:	c60897e3          	bnez	a7,80007d74 <__adddf3+0x2fa>
8000810a:	4781                	li	a5,0
8000810c:	4981                	li	s3,0
8000810e:	b159                	j	80007d94 <__adddf3+0x31a>
80008110:	41ef8933          	sub	s2,t6,t5
80008114:	40e807b3          	sub	a5,a6,a4
80008118:	012fb633          	sltu	a2,t6,s2
8000811c:	40c78633          	sub	a2,a5,a2
80008120:	89f6                	mv	s3,t4
80008122:	4485                	li	s1,1
80008124:	b411                	j	80007b28 <__adddf3+0xae>
80008126:	00361693          	slli	a3,a2,0x3
8000812a:	01d81793          	slli	a5,a6,0x1d
8000812e:	828d                	srli	a3,a3,0x3
80008130:	00d7e8b3          	or	a7,a5,a3
80008134:	00385793          	srli	a5,a6,0x3
80008138:	b9b1                	j	80007d94 <__adddf3+0x31a>
8000813a:	00361693          	slli	a3,a2,0x3
8000813e:	01d81793          	slli	a5,a6,0x1d
80008142:	828d                	srli	a3,a3,0x3
80008144:	00d7e8b3          	or	a7,a5,a3
80008148:	84aa                	mv	s1,a0
8000814a:	00385793          	srli	a5,a6,0x3
8000814e:	b93d                	j	80007d8c <__adddf3+0x312>
80008150:	fe050793          	addi	a5,a0,-32
80008154:	02000693          	li	a3,32
80008158:	00f757b3          	srl	a5,a4,a5
8000815c:	00d50a63          	beq	a0,a3,80008170 <__adddf3+0x6f6>
80008160:	04000693          	li	a3,64
80008164:	40a68533          	sub	a0,a3,a0
80008168:	00a71733          	sll	a4,a4,a0
8000816c:	00ef6f33          	or	t5,t5,a4
80008170:	01e03933          	snez	s2,t5
80008174:	00f96933          	or	s2,s2,a5
80008178:	bba9                	j	80007ed2 <__adddf3+0x458>
8000817a:	4581                	li	a1,0
8000817c:	7ff00513          	li	a0,2047
80008180:	000807b7          	lui	a5,0x80
80008184:	bca9                	j	80007bde <__adddf3+0x164>
80008186:	01ff0933          	add	s2,t5,t6
8000818a:	010707b3          	add	a5,a4,a6
8000818e:	01f93633          	sltu	a2,s2,t6
80008192:	963e                	add	a2,a2,a5
80008194:	b375                	j	80007f40 <__adddf3+0x4c6>
80008196:	00361693          	slli	a3,a2,0x3
8000819a:	01d81793          	slli	a5,a6,0x1d
8000819e:	828d                	srli	a3,a3,0x3
800081a0:	00d7e8b3          	or	a7,a5,a3
800081a4:	00385793          	srli	a5,a6,0x3
800081a8:	b189                	j	80007dea <__adddf3+0x370>

800081aa <__eqdf2>:
800081aa:	0145d713          	srli	a4,a1,0x14
800081ae:	001007b7          	lui	a5,0x100
800081b2:	17fd                	addi	a5,a5,-1
800081b4:	0146d813          	srli	a6,a3,0x14
800081b8:	7ff77713          	andi	a4,a4,2047
800081bc:	7ff00893          	li	a7,2047
800081c0:	00b7fe33          	and	t3,a5,a1
800081c4:	8eaa                	mv	t4,a0
800081c6:	8ff5                	and	a5,a5,a3
800081c8:	81fd                	srli	a1,a1,0x1f
800081ca:	8f32                	mv	t5,a2
800081cc:	7ff87813          	andi	a6,a6,2047
800081d0:	82fd                	srli	a3,a3,0x1f
800081d2:	01170b63          	beq	a4,a7,800081e8 <__eqdf2+0x3e>
800081d6:	4305                	li	t1,1
800081d8:	01180663          	beq	a6,a7,800081e4 <__eqdf2+0x3a>
800081dc:	01071463          	bne	a4,a6,800081e4 <__eqdf2+0x3a>
800081e0:	00fe0d63          	beq	t3,a5,800081fa <__eqdf2+0x50>
800081e4:	851a                	mv	a0,t1
800081e6:	8082                	ret
800081e8:	00ae68b3          	or	a7,t3,a0
800081ec:	4305                	li	t1,1
800081ee:	fe089be3          	bnez	a7,800081e4 <__eqdf2+0x3a>
800081f2:	fee819e3          	bne	a6,a4,800081e4 <__eqdf2+0x3a>
800081f6:	8fd1                	or	a5,a5,a2
800081f8:	f7f5                	bnez	a5,800081e4 <__eqdf2+0x3a>
800081fa:	4305                	li	t1,1
800081fc:	ffee94e3          	bne	t4,t5,800081e4 <__eqdf2+0x3a>
80008200:	4301                	li	t1,0
80008202:	fed581e3          	beq	a1,a3,800081e4 <__eqdf2+0x3a>
80008206:	4305                	li	t1,1
80008208:	ff71                	bnez	a4,800081e4 <__eqdf2+0x3a>
8000820a:	00ae6533          	or	a0,t3,a0
8000820e:	00a03333          	snez	t1,a0
80008212:	bfc9                	j	800081e4 <__eqdf2+0x3a>

80008214 <__muldf3>:
80008214:	7139                	addi	sp,sp,-64
80008216:	0145d793          	srli	a5,a1,0x14
8000821a:	dc22                	sw	s0,56(sp)
8000821c:	d84a                	sw	s2,48(sp)
8000821e:	d452                	sw	s4,40(sp)
80008220:	00c59413          	slli	s0,a1,0xc
80008224:	de06                	sw	ra,60(sp)
80008226:	da26                	sw	s1,52(sp)
80008228:	d64e                	sw	s3,44(sp)
8000822a:	d256                	sw	s5,36(sp)
8000822c:	d05a                	sw	s6,32(sp)
8000822e:	ce5e                	sw	s7,28(sp)
80008230:	7ff7f793          	andi	a5,a5,2047
80008234:	892a                	mv	s2,a0
80008236:	8031                	srli	s0,s0,0xc
80008238:	01f5da13          	srli	s4,a1,0x1f
8000823c:	cbfd                	beqz	a5,80008332 <__muldf3+0x11e>
8000823e:	7ff00713          	li	a4,2047
80008242:	18e78363          	beq	a5,a4,800083c8 <__muldf3+0x1b4>
80008246:	00341513          	slli	a0,s0,0x3
8000824a:	01d95413          	srli	s0,s2,0x1d
8000824e:	8c49                	or	s0,s0,a0
80008250:	00800537          	lui	a0,0x800
80008254:	8c49                	or	s0,s0,a0
80008256:	00391493          	slli	s1,s2,0x3
8000825a:	c0178b13          	addi	s6,a5,-1023 # ffc01 <__stack_size+0xff401>
8000825e:	4981                	li	s3,0
80008260:	4b81                	li	s7,0
80008262:	0146d793          	srli	a5,a3,0x14
80008266:	00c69913          	slli	s2,a3,0xc
8000826a:	7ff7f793          	andi	a5,a5,2047
8000826e:	00c95913          	srli	s2,s2,0xc
80008272:	01f6da93          	srli	s5,a3,0x1f
80008276:	10078a63          	beqz	a5,8000838a <__muldf3+0x176>
8000827a:	7ff00713          	li	a4,2047
8000827e:	04e78463          	beq	a5,a4,800082c6 <__muldf3+0xb2>
80008282:	00391513          	slli	a0,s2,0x3
80008286:	01d65913          	srli	s2,a2,0x1d
8000828a:	00a96933          	or	s2,s2,a0
8000828e:	c0178793          	addi	a5,a5,-1023
80008292:	00800537          	lui	a0,0x800
80008296:	00a96933          	or	s2,s2,a0
8000829a:	00361593          	slli	a1,a2,0x3
8000829e:	9b3e                	add	s6,s6,a5
800082a0:	4801                	li	a6,0
800082a2:	015a46b3          	xor	a3,s4,s5
800082a6:	47bd                	li	a5,15
800082a8:	8536                	mv	a0,a3
800082aa:	001b0613          	addi	a2,s6,1
800082ae:	1737e563          	bltu	a5,s3,80008418 <__muldf3+0x204>
800082b2:	0fff8797          	auipc	a5,0xfff8
800082b6:	78e78793          	addi	a5,a5,1934 # 90000a40 <_ctype_+0x104>
800082ba:	098a                	slli	s3,s3,0x2
800082bc:	99be                	add	s3,s3,a5
800082be:	0009a703          	lw	a4,0(s3)
800082c2:	973e                	add	a4,a4,a5
800082c4:	8702                	jr	a4
800082c6:	00c965b3          	or	a1,s2,a2
800082ca:	7ffb0b13          	addi	s6,s6,2047
800082ce:	12059663          	bnez	a1,800083fa <__muldf3+0x1e6>
800082d2:	0029e993          	ori	s3,s3,2
800082d6:	4901                	li	s2,0
800082d8:	4809                	li	a6,2
800082da:	b7e1                	j	800082a2 <__muldf3+0x8e>
800082dc:	4681                	li	a3,0
800082de:	7ff00793          	li	a5,2047
800082e2:	00080437          	lui	s0,0x80
800082e6:	4481                	li	s1,0
800082e8:	0432                	slli	s0,s0,0xc
800082ea:	07d2                	slli	a5,a5,0x14
800082ec:	8031                	srli	s0,s0,0xc
800082ee:	06fe                	slli	a3,a3,0x1f
800082f0:	8c5d                	or	s0,s0,a5
800082f2:	8c55                	or	s0,s0,a3
800082f4:	85a2                	mv	a1,s0
800082f6:	50f2                	lw	ra,60(sp)
800082f8:	5462                	lw	s0,56(sp)
800082fa:	8526                	mv	a0,s1
800082fc:	5942                	lw	s2,48(sp)
800082fe:	54d2                	lw	s1,52(sp)
80008300:	59b2                	lw	s3,44(sp)
80008302:	5a22                	lw	s4,40(sp)
80008304:	5a92                	lw	s5,36(sp)
80008306:	5b02                	lw	s6,32(sp)
80008308:	4bf2                	lw	s7,28(sp)
8000830a:	6121                	addi	sp,sp,64
8000830c:	8082                	ret
8000830e:	8556                	mv	a0,s5
80008310:	844a                	mv	s0,s2
80008312:	84ae                	mv	s1,a1
80008314:	8bc2                	mv	s7,a6
80008316:	4789                	li	a5,2
80008318:	0efb8a63          	beq	s7,a5,8000840c <__muldf3+0x1f8>
8000831c:	478d                	li	a5,3
8000831e:	fafb8fe3          	beq	s7,a5,800082dc <__muldf3+0xc8>
80008322:	4785                	li	a5,1
80008324:	86aa                	mv	a3,a0
80008326:	38fb9b63          	bne	s7,a5,800086bc <__muldf3+0x4a8>
8000832a:	4781                	li	a5,0
8000832c:	4401                	li	s0,0
8000832e:	4481                	li	s1,0
80008330:	bf65                	j	800082e8 <__muldf3+0xd4>
80008332:	00a464b3          	or	s1,s0,a0
80008336:	cccd                	beqz	s1,800083f0 <__muldf3+0x1dc>
80008338:	c636                	sw	a3,12(sp)
8000833a:	c432                	sw	a2,8(sp)
8000833c:	2a040a63          	beqz	s0,800085f0 <__muldf3+0x3dc>
80008340:	8522                	mv	a0,s0
80008342:	e8afc0ef          	jal	ra,800049cc <__clzsi2>
80008346:	4622                	lw	a2,8(sp)
80008348:	46b2                	lw	a3,12(sp)
8000834a:	87aa                	mv	a5,a0
8000834c:	ff550593          	addi	a1,a0,-11 # 7ffff5 <__stack_size+0x7ff7f5>
80008350:	4775                	li	a4,29
80008352:	ff878493          	addi	s1,a5,-8
80008356:	8f0d                	sub	a4,a4,a1
80008358:	00941433          	sll	s0,s0,s1
8000835c:	00e95733          	srl	a4,s2,a4
80008360:	8c59                	or	s0,s0,a4
80008362:	009914b3          	sll	s1,s2,s1
80008366:	c0d00b13          	li	s6,-1011
8000836a:	40fb0b33          	sub	s6,s6,a5
8000836e:	0146d793          	srli	a5,a3,0x14
80008372:	00c69913          	slli	s2,a3,0xc
80008376:	7ff7f793          	andi	a5,a5,2047
8000837a:	4981                	li	s3,0
8000837c:	4b81                	li	s7,0
8000837e:	00c95913          	srli	s2,s2,0xc
80008382:	01f6da93          	srli	s5,a3,0x1f
80008386:	ee079ae3          	bnez	a5,8000827a <__muldf3+0x66>
8000838a:	00c965b3          	or	a1,s2,a2
8000838e:	c5b1                	beqz	a1,800083da <__muldf3+0x1c6>
80008390:	22090f63          	beqz	s2,800085ce <__muldf3+0x3ba>
80008394:	854a                	mv	a0,s2
80008396:	c432                	sw	a2,8(sp)
80008398:	e34fc0ef          	jal	ra,800049cc <__clzsi2>
8000839c:	4622                	lw	a2,8(sp)
8000839e:	87aa                	mv	a5,a0
800083a0:	ff550693          	addi	a3,a0,-11
800083a4:	4775                	li	a4,29
800083a6:	ff878593          	addi	a1,a5,-8
800083aa:	8f15                	sub	a4,a4,a3
800083ac:	00b91933          	sll	s2,s2,a1
800083b0:	00e65733          	srl	a4,a2,a4
800083b4:	01276933          	or	s2,a4,s2
800083b8:	00b615b3          	sll	a1,a2,a1
800083bc:	40fb07b3          	sub	a5,s6,a5
800083c0:	c0d78b13          	addi	s6,a5,-1011
800083c4:	4801                	li	a6,0
800083c6:	bdf1                	j	800082a2 <__muldf3+0x8e>
800083c8:	00a464b3          	or	s1,s0,a0
800083cc:	ec81                	bnez	s1,800083e4 <__muldf3+0x1d0>
800083ce:	4401                	li	s0,0
800083d0:	49a1                	li	s3,8
800083d2:	7ff00b13          	li	s6,2047
800083d6:	4b89                	li	s7,2
800083d8:	b569                	j	80008262 <__muldf3+0x4e>
800083da:	0019e993          	ori	s3,s3,1
800083de:	4901                	li	s2,0
800083e0:	4805                	li	a6,1
800083e2:	b5c1                	j	800082a2 <__muldf3+0x8e>
800083e4:	84aa                	mv	s1,a0
800083e6:	49b1                	li	s3,12
800083e8:	7ff00b13          	li	s6,2047
800083ec:	4b8d                	li	s7,3
800083ee:	bd95                	j	80008262 <__muldf3+0x4e>
800083f0:	4401                	li	s0,0
800083f2:	4991                	li	s3,4
800083f4:	4b01                	li	s6,0
800083f6:	4b85                	li	s7,1
800083f8:	b5ad                	j	80008262 <__muldf3+0x4e>
800083fa:	0039e993          	ori	s3,s3,3
800083fe:	85b2                	mv	a1,a2
80008400:	480d                	li	a6,3
80008402:	b545                	j	800082a2 <__muldf3+0x8e>
80008404:	4789                	li	a5,2
80008406:	8552                	mv	a0,s4
80008408:	f0fb9ae3          	bne	s7,a5,8000831c <__muldf3+0x108>
8000840c:	86aa                	mv	a3,a0
8000840e:	7ff00793          	li	a5,2047
80008412:	4401                	li	s0,0
80008414:	4481                	li	s1,0
80008416:	bdc9                	j	800082e8 <__muldf3+0xd4>
80008418:	6e41                	lui	t3,0x10
8000841a:	fffe0713          	addi	a4,t3,-1 # ffff <__stack_size+0xf7ff>
8000841e:	0104d793          	srli	a5,s1,0x10
80008422:	0105d813          	srli	a6,a1,0x10
80008426:	8cf9                	and	s1,s1,a4
80008428:	8df9                	and	a1,a1,a4
8000842a:	02958733          	mul	a4,a1,s1
8000842e:	02b78333          	mul	t1,a5,a1
80008432:	01075513          	srli	a0,a4,0x10
80008436:	029808b3          	mul	a7,a6,s1
8000843a:	989a                	add	a7,a7,t1
8000843c:	9546                	add	a0,a0,a7
8000843e:	03078f33          	mul	t5,a5,a6
80008442:	00657363          	bgeu	a0,t1,80008448 <__muldf3+0x234>
80008446:	9f72                	add	t5,t5,t3
80008448:	6ec1                	lui	t4,0x10
8000844a:	fffe8893          	addi	a7,t4,-1 # ffff <__stack_size+0xf7ff>
8000844e:	01095293          	srli	t0,s2,0x10
80008452:	01197933          	and	s2,s2,a7
80008456:	01157333          	and	t1,a0,a7
8000845a:	01177733          	and	a4,a4,a7
8000845e:	0342                	slli	t1,t1,0x10
80008460:	029908b3          	mul	a7,s2,s1
80008464:	933a                	add	t1,t1,a4
80008466:	8141                	srli	a0,a0,0x10
80008468:	03278fb3          	mul	t6,a5,s2
8000846c:	0108de13          	srli	t3,a7,0x10
80008470:	029284b3          	mul	s1,t0,s1
80008474:	94fe                	add	s1,s1,t6
80008476:	94f2                	add	s1,s1,t3
80008478:	02578733          	mul	a4,a5,t0
8000847c:	01f4f363          	bgeu	s1,t6,80008482 <__muldf3+0x26e>
80008480:	9776                	add	a4,a4,t4
80008482:	69c1                	lui	s3,0x10
80008484:	fff98e13          	addi	t3,s3,-1 # ffff <__stack_size+0xf7ff>
80008488:	01c477b3          	and	a5,s0,t3
8000848c:	01c4feb3          	and	t4,s1,t3
80008490:	01045f93          	srli	t6,s0,0x10
80008494:	80c1                	srli	s1,s1,0x10
80008496:	01c8f8b3          	and	a7,a7,t3
8000849a:	02f583b3          	mul	t2,a1,a5
8000849e:	00e48e33          	add	t3,s1,a4
800084a2:	0ec2                	slli	t4,t4,0x10
800084a4:	9ec6                	add	t4,t4,a7
800084a6:	9576                	add	a0,a0,t4
800084a8:	02f80733          	mul	a4,a6,a5
800084ac:	0103d893          	srli	a7,t2,0x10
800084b0:	02bf85b3          	mul	a1,t6,a1
800084b4:	972e                	add	a4,a4,a1
800084b6:	98ba                	add	a7,a7,a4
800084b8:	03f80833          	mul	a6,a6,t6
800084bc:	00b8f363          	bgeu	a7,a1,800084c2 <__muldf3+0x2ae>
800084c0:	984e                	add	a6,a6,s3
800084c2:	6741                	lui	a4,0x10
800084c4:	fff70413          	addi	s0,a4,-1 # ffff <__stack_size+0xf7ff>
800084c8:	0088f5b3          	and	a1,a7,s0
800084cc:	0108d893          	srli	a7,a7,0x10
800084d0:	98c2                	add	a7,a7,a6
800084d2:	0083f3b3          	and	t2,t2,s0
800084d6:	05c2                	slli	a1,a1,0x10
800084d8:	02f90833          	mul	a6,s2,a5
800084dc:	959e                	add	a1,a1,t2
800084de:	032f8933          	mul	s2,t6,s2
800084e2:	01085413          	srli	s0,a6,0x10
800084e6:	02f287b3          	mul	a5,t0,a5
800084ea:	97ca                	add	a5,a5,s2
800084ec:	97a2                	add	a5,a5,s0
800084ee:	03f28fb3          	mul	t6,t0,t6
800084f2:	0127f363          	bgeu	a5,s2,800084f8 <__muldf3+0x2e4>
800084f6:	9fba                	add	t6,t6,a4
800084f8:	62c1                	lui	t0,0x10
800084fa:	12fd                	addi	t0,t0,-1
800084fc:	0057f733          	and	a4,a5,t0
80008500:	00587833          	and	a6,a6,t0
80008504:	0742                	slli	a4,a4,0x10
80008506:	957a                	add	a0,a0,t5
80008508:	9742                	add	a4,a4,a6
8000850a:	01d53eb3          	sltu	t4,a0,t4
8000850e:	9772                	add	a4,a4,t3
80008510:	952e                	add	a0,a0,a1
80008512:	01d70433          	add	s0,a4,t4
80008516:	00b535b3          	sltu	a1,a0,a1
8000851a:	01140833          	add	a6,s0,a7
8000851e:	00b80f33          	add	t5,a6,a1
80008522:	01c73733          	sltu	a4,a4,t3
80008526:	01d43433          	sltu	s0,s0,t4
8000852a:	8c59                	or	s0,s0,a4
8000852c:	83c1                	srli	a5,a5,0x10
8000852e:	011838b3          	sltu	a7,a6,a7
80008532:	00bf35b3          	sltu	a1,t5,a1
80008536:	943e                	add	s0,s0,a5
80008538:	00b8e5b3          	or	a1,a7,a1
8000853c:	00951493          	slli	s1,a0,0x9
80008540:	942e                	add	s0,s0,a1
80008542:	947e                	add	s0,s0,t6
80008544:	0064e4b3          	or	s1,s1,t1
80008548:	00941713          	slli	a4,s0,0x9
8000854c:	009034b3          	snez	s1,s1
80008550:	017f5413          	srli	s0,t5,0x17
80008554:	815d                	srli	a0,a0,0x17
80008556:	009f1793          	slli	a5,t5,0x9
8000855a:	8cc9                	or	s1,s1,a0
8000855c:	8c59                	or	s0,s0,a4
8000855e:	8cdd                	or	s1,s1,a5
80008560:	00741793          	slli	a5,s0,0x7
80008564:	0007db63          	bgez	a5,8000857a <__muldf3+0x366>
80008568:	0014d793          	srli	a5,s1,0x1
8000856c:	8885                	andi	s1,s1,1
8000856e:	01f41713          	slli	a4,s0,0x1f
80008572:	8cdd                	or	s1,s1,a5
80008574:	8cd9                	or	s1,s1,a4
80008576:	8005                	srli	s0,s0,0x1
80008578:	8b32                	mv	s6,a2
8000857a:	3ffb0713          	addi	a4,s6,1023
8000857e:	08e05963          	blez	a4,80008610 <__muldf3+0x3fc>
80008582:	0074f793          	andi	a5,s1,7
80008586:	cf81                	beqz	a5,8000859e <__muldf3+0x38a>
80008588:	00f4f793          	andi	a5,s1,15
8000858c:	4611                	li	a2,4
8000858e:	00c78863          	beq	a5,a2,8000859e <__muldf3+0x38a>
80008592:	00448793          	addi	a5,s1,4
80008596:	0097b4b3          	sltu	s1,a5,s1
8000859a:	9426                	add	s0,s0,s1
8000859c:	84be                	mv	s1,a5
8000859e:	00741793          	slli	a5,s0,0x7
800085a2:	0007d863          	bgez	a5,800085b2 <__muldf3+0x39e>
800085a6:	ff0007b7          	lui	a5,0xff000
800085aa:	17fd                	addi	a5,a5,-1
800085ac:	8c7d                	and	s0,s0,a5
800085ae:	400b0713          	addi	a4,s6,1024
800085b2:	7fe00793          	li	a5,2046
800085b6:	0ee7ce63          	blt	a5,a4,800086b2 <__muldf3+0x49e>
800085ba:	0034d793          	srli	a5,s1,0x3
800085be:	01d41493          	slli	s1,s0,0x1d
800085c2:	0426                	slli	s0,s0,0x9
800085c4:	8cdd                	or	s1,s1,a5
800085c6:	8031                	srli	s0,s0,0xc
800085c8:	7ff77793          	andi	a5,a4,2047
800085cc:	bb31                	j	800082e8 <__muldf3+0xd4>
800085ce:	8532                	mv	a0,a2
800085d0:	c432                	sw	a2,8(sp)
800085d2:	bfafc0ef          	jal	ra,800049cc <__clzsi2>
800085d6:	01550693          	addi	a3,a0,21
800085da:	4771                	li	a4,28
800085dc:	02050793          	addi	a5,a0,32
800085e0:	4622                	lw	a2,8(sp)
800085e2:	dcd751e3          	bge	a4,a3,800083a4 <__muldf3+0x190>
800085e6:	1561                	addi	a0,a0,-8
800085e8:	4581                	li	a1,0
800085ea:	00a61933          	sll	s2,a2,a0
800085ee:	b3f9                	j	800083bc <__muldf3+0x1a8>
800085f0:	bdcfc0ef          	jal	ra,800049cc <__clzsi2>
800085f4:	01550593          	addi	a1,a0,21
800085f8:	4771                	li	a4,28
800085fa:	02050793          	addi	a5,a0,32
800085fe:	4622                	lw	a2,8(sp)
80008600:	46b2                	lw	a3,12(sp)
80008602:	d4b757e3          	bge	a4,a1,80008350 <__muldf3+0x13c>
80008606:	1561                	addi	a0,a0,-8
80008608:	4481                	li	s1,0
8000860a:	00a91433          	sll	s0,s2,a0
8000860e:	bba1                	j	80008366 <__muldf3+0x152>
80008610:	4605                	li	a2,1
80008612:	8e19                	sub	a2,a2,a4
80008614:	e729                	bnez	a4,8000865e <__muldf3+0x44a>
80008616:	41eb0793          	addi	a5,s6,1054
8000861a:	00f49733          	sll	a4,s1,a5
8000861e:	00f417b3          	sll	a5,s0,a5
80008622:	00c4d4b3          	srl	s1,s1,a2
80008626:	8cdd                	or	s1,s1,a5
80008628:	00e03733          	snez	a4,a4
8000862c:	8cd9                	or	s1,s1,a4
8000862e:	0074f793          	andi	a5,s1,7
80008632:	00c45633          	srl	a2,s0,a2
80008636:	cf81                	beqz	a5,8000864e <__muldf3+0x43a>
80008638:	00f4f793          	andi	a5,s1,15
8000863c:	4711                	li	a4,4
8000863e:	00e78863          	beq	a5,a4,8000864e <__muldf3+0x43a>
80008642:	00448793          	addi	a5,s1,4
80008646:	0097b4b3          	sltu	s1,a5,s1
8000864a:	9626                	add	a2,a2,s1
8000864c:	84be                	mv	s1,a5
8000864e:	00861793          	slli	a5,a2,0x8
80008652:	0407d863          	bgez	a5,800086a2 <__muldf3+0x48e>
80008656:	4785                	li	a5,1
80008658:	4401                	li	s0,0
8000865a:	4481                	li	s1,0
8000865c:	b171                	j	800082e8 <__muldf3+0xd4>
8000865e:	03800793          	li	a5,56
80008662:	ccc7c4e3          	blt	a5,a2,8000832a <__muldf3+0x116>
80008666:	47fd                	li	a5,31
80008668:	fac7d7e3          	bge	a5,a2,80008616 <__muldf3+0x402>
8000866c:	5785                	li	a5,-31
8000866e:	40e78733          	sub	a4,a5,a4
80008672:	02000793          	li	a5,32
80008676:	00e45733          	srl	a4,s0,a4
8000867a:	00f60763          	beq	a2,a5,80008688 <__muldf3+0x474>
8000867e:	43eb0793          	addi	a5,s6,1086
80008682:	00f417b3          	sll	a5,s0,a5
80008686:	8cdd                	or	s1,s1,a5
80008688:	009034b3          	snez	s1,s1
8000868c:	8cd9                	or	s1,s1,a4
8000868e:	0074f613          	andi	a2,s1,7
80008692:	4401                	li	s0,0
80008694:	ca19                	beqz	a2,800086aa <__muldf3+0x496>
80008696:	00f4f793          	andi	a5,s1,15
8000869a:	4711                	li	a4,4
8000869c:	4601                	li	a2,0
8000869e:	fae792e3          	bne	a5,a4,80008642 <__muldf3+0x42e>
800086a2:	00961413          	slli	s0,a2,0x9
800086a6:	8031                	srli	s0,s0,0xc
800086a8:	0676                	slli	a2,a2,0x1d
800086aa:	808d                	srli	s1,s1,0x3
800086ac:	8cd1                	or	s1,s1,a2
800086ae:	4781                	li	a5,0
800086b0:	b925                	j	800082e8 <__muldf3+0xd4>
800086b2:	7ff00793          	li	a5,2047
800086b6:	4401                	li	s0,0
800086b8:	4481                	li	s1,0
800086ba:	b13d                	j	800082e8 <__muldf3+0xd4>
800086bc:	8b32                	mv	s6,a2
800086be:	bd75                	j	8000857a <__muldf3+0x366>

800086c0 <__subdf3>:
800086c0:	00100737          	lui	a4,0x100
800086c4:	177d                	addi	a4,a4,-1
800086c6:	1101                	addi	sp,sp,-32
800086c8:	00b77333          	and	t1,a4,a1
800086cc:	0146d893          	srli	a7,a3,0x14
800086d0:	8f75                	and	a4,a4,a3
800086d2:	01d65e93          	srli	t4,a2,0x1d
800086d6:	cc22                	sw	s0,24(sp)
800086d8:	ca26                	sw	s1,20(sp)
800086da:	030e                	slli	t1,t1,0x3
800086dc:	0145d493          	srli	s1,a1,0x14
800086e0:	01d55793          	srli	a5,a0,0x1d
800086e4:	070e                	slli	a4,a4,0x3
800086e6:	ce06                	sw	ra,28(sp)
800086e8:	c84a                	sw	s2,16(sp)
800086ea:	c64e                	sw	s3,12(sp)
800086ec:	7ff8f893          	andi	a7,a7,2047
800086f0:	7ff00e13          	li	t3,2047
800086f4:	00eee733          	or	a4,t4,a4
800086f8:	7ff4f493          	andi	s1,s1,2047
800086fc:	01f5d413          	srli	s0,a1,0x1f
80008700:	0067e333          	or	t1,a5,t1
80008704:	00351f13          	slli	t5,a0,0x3
80008708:	82fd                	srli	a3,a3,0x1f
8000870a:	00361e93          	slli	t4,a2,0x3
8000870e:	19c88063          	beq	a7,t3,8000888e <__subdf3+0x1ce>
80008712:	0016c693          	xori	a3,a3,1
80008716:	411485b3          	sub	a1,s1,a7
8000871a:	12d40563          	beq	s0,a3,80008844 <__subdf3+0x184>
8000871e:	18b05163          	blez	a1,800088a0 <__subdf3+0x1e0>
80008722:	1a088b63          	beqz	a7,800088d8 <__subdf3+0x218>
80008726:	008007b7          	lui	a5,0x800
8000872a:	8f5d                	or	a4,a4,a5
8000872c:	59c48163          	beq	s1,t3,80008cae <__subdf3+0x5ee>
80008730:	03800793          	li	a5,56
80008734:	34b7c463          	blt	a5,a1,80008a7c <__subdf3+0x3bc>
80008738:	47fd                	li	a5,31
8000873a:	48b7c563          	blt	a5,a1,80008bc4 <__subdf3+0x504>
8000873e:	02000793          	li	a5,32
80008742:	8f8d                	sub	a5,a5,a1
80008744:	00bed9b3          	srl	s3,t4,a1
80008748:	00f71833          	sll	a6,a4,a5
8000874c:	00fe9eb3          	sll	t4,t4,a5
80008750:	01386833          	or	a6,a6,s3
80008754:	00b75733          	srl	a4,a4,a1
80008758:	01d039b3          	snez	s3,t4
8000875c:	01386833          	or	a6,a6,s3
80008760:	40e30333          	sub	t1,t1,a4
80008764:	410f09b3          	sub	s3,t5,a6
80008768:	013f37b3          	sltu	a5,t5,s3
8000876c:	40f30633          	sub	a2,t1,a5
80008770:	00861793          	slli	a5,a2,0x8
80008774:	2407d363          	bgez	a5,800089ba <__subdf3+0x2fa>
80008778:	00800937          	lui	s2,0x800
8000877c:	197d                	addi	s2,s2,-1
8000877e:	01267933          	and	s2,a2,s2
80008782:	2c090f63          	beqz	s2,80008a60 <__subdf3+0x3a0>
80008786:	854a                	mv	a0,s2
80008788:	a44fc0ef          	jal	ra,800049cc <__clzsi2>
8000878c:	ff850713          	addi	a4,a0,-8
80008790:	02000793          	li	a5,32
80008794:	8f99                	sub	a5,a5,a4
80008796:	00f9d7b3          	srl	a5,s3,a5
8000879a:	00e91633          	sll	a2,s2,a4
8000879e:	8fd1                	or	a5,a5,a2
800087a0:	00e999b3          	sll	s3,s3,a4
800087a4:	2a974463          	blt	a4,s1,80008a4c <__subdf3+0x38c>
800087a8:	8f05                	sub	a4,a4,s1
800087aa:	00170613          	addi	a2,a4,1 # 100001 <__stack_size+0xff801>
800087ae:	46fd                	li	a3,31
800087b0:	3ac6c563          	blt	a3,a2,80008b5a <__subdf3+0x49a>
800087b4:	02000713          	li	a4,32
800087b8:	8f11                	sub	a4,a4,a2
800087ba:	00c9d6b3          	srl	a3,s3,a2
800087be:	00e99833          	sll	a6,s3,a4
800087c2:	00e79733          	sll	a4,a5,a4
800087c6:	8f55                	or	a4,a4,a3
800087c8:	01003833          	snez	a6,a6
800087cc:	010769b3          	or	s3,a4,a6
800087d0:	00c7d633          	srl	a2,a5,a2
800087d4:	4481                	li	s1,0
800087d6:	0079f793          	andi	a5,s3,7
800087da:	cf81                	beqz	a5,800087f2 <__subdf3+0x132>
800087dc:	00f9f693          	andi	a3,s3,15
800087e0:	4791                	li	a5,4
800087e2:	00f68863          	beq	a3,a5,800087f2 <__subdf3+0x132>
800087e6:	00498693          	addi	a3,s3,4
800087ea:	0136b833          	sltu	a6,a3,s3
800087ee:	9642                	add	a2,a2,a6
800087f0:	89b6                	mv	s3,a3
800087f2:	00861793          	slli	a5,a2,0x8
800087f6:	1c07d663          	bgez	a5,800089c2 <__subdf3+0x302>
800087fa:	00148713          	addi	a4,s1,1
800087fe:	7ff00793          	li	a5,2047
80008802:	8805                	andi	s0,s0,1
80008804:	20f70663          	beq	a4,a5,80008a10 <__subdf3+0x350>
80008808:	ff8007b7          	lui	a5,0xff800
8000880c:	17fd                	addi	a5,a5,-1
8000880e:	8ff1                	and	a5,a5,a2
80008810:	01d79813          	slli	a6,a5,0x1d
80008814:	0039d993          	srli	s3,s3,0x3
80008818:	07a6                	slli	a5,a5,0x9
8000881a:	01386833          	or	a6,a6,s3
8000881e:	83b1                	srli	a5,a5,0xc
80008820:	7ff77713          	andi	a4,a4,2047
80008824:	00c79693          	slli	a3,a5,0xc
80008828:	0752                	slli	a4,a4,0x14
8000882a:	82b1                	srli	a3,a3,0xc
8000882c:	047e                	slli	s0,s0,0x1f
8000882e:	8ed9                	or	a3,a3,a4
80008830:	8ec1                	or	a3,a3,s0
80008832:	40f2                	lw	ra,28(sp)
80008834:	4462                	lw	s0,24(sp)
80008836:	44d2                	lw	s1,20(sp)
80008838:	4942                	lw	s2,16(sp)
8000883a:	49b2                	lw	s3,12(sp)
8000883c:	8542                	mv	a0,a6
8000883e:	85b6                	mv	a1,a3
80008840:	6105                	addi	sp,sp,32
80008842:	8082                	ret
80008844:	0ab05663          	blez	a1,800088f0 <__subdf3+0x230>
80008848:	12088a63          	beqz	a7,8000897c <__subdf3+0x2bc>
8000884c:	008007b7          	lui	a5,0x800
80008850:	8f5d                	or	a4,a4,a5
80008852:	2dc48763          	beq	s1,t3,80008b20 <__subdf3+0x460>
80008856:	03800793          	li	a5,56
8000885a:	18b7c763          	blt	a5,a1,800089e8 <__subdf3+0x328>
8000885e:	47fd                	li	a5,31
80008860:	3cb7d263          	bge	a5,a1,80008c24 <__subdf3+0x564>
80008864:	fe058813          	addi	a6,a1,-32
80008868:	02000793          	li	a5,32
8000886c:	010759b3          	srl	s3,a4,a6
80008870:	00f58a63          	beq	a1,a5,80008884 <__subdf3+0x1c4>
80008874:	04000793          	li	a5,64
80008878:	40b785b3          	sub	a1,a5,a1
8000887c:	00b71733          	sll	a4,a4,a1
80008880:	00eeeeb3          	or	t4,t4,a4
80008884:	01d03833          	snez	a6,t4
80008888:	01386833          	or	a6,a6,s3
8000888c:	a295                	j	800089f0 <__subdf3+0x330>
8000888e:	01d767b3          	or	a5,a4,t4
80008892:	80148593          	addi	a1,s1,-2047
80008896:	e399                	bnez	a5,8000889c <__subdf3+0x1dc>
80008898:	0016c693          	xori	a3,a3,1
8000889c:	04d40a63          	beq	s0,a3,800088f0 <__subdf3+0x230>
800088a0:	e1d1                	bnez	a1,80008924 <__subdf3+0x264>
800088a2:	00148793          	addi	a5,s1,1
800088a6:	7fe7f793          	andi	a5,a5,2046
800088aa:	1e079963          	bnez	a5,80008a9c <__subdf3+0x3dc>
800088ae:	01e367b3          	or	a5,t1,t5
800088b2:	01d76833          	or	a6,a4,t4
800088b6:	16049263          	bnez	s1,80008a1a <__subdf3+0x35a>
800088ba:	3c078263          	beqz	a5,80008c7e <__subdf3+0x5be>
800088be:	42081663          	bnez	a6,80008cea <__subdf3+0x62a>
800088c2:	00351813          	slli	a6,a0,0x3
800088c6:	01d31693          	slli	a3,t1,0x1d
800088ca:	00385813          	srli	a6,a6,0x3
800088ce:	0106e833          	or	a6,a3,a6
800088d2:	00335793          	srli	a5,t1,0x3
800088d6:	a219                	j	800089dc <__subdf3+0x31c>
800088d8:	01d767b3          	or	a5,a4,t4
800088dc:	1a078563          	beqz	a5,80008a86 <__subdf3+0x3c6>
800088e0:	fff58793          	addi	a5,a1,-1
800088e4:	3a078b63          	beqz	a5,80008c9a <__subdf3+0x5da>
800088e8:	23c58c63          	beq	a1,t3,80008b20 <__subdf3+0x460>
800088ec:	85be                	mv	a1,a5
800088ee:	b589                	j	80008730 <__subdf3+0x70>
800088f0:	1c059963          	bnez	a1,80008ac2 <__subdf3+0x402>
800088f4:	00148693          	addi	a3,s1,1
800088f8:	7fe6f793          	andi	a5,a3,2046
800088fc:	efc1                	bnez	a5,80008994 <__subdf3+0x2d4>
800088fe:	01e367b3          	or	a5,t1,t5
80008902:	36049063          	bnez	s1,80008c62 <__subdf3+0x5a2>
80008906:	44078d63          	beqz	a5,80008d60 <__subdf3+0x6a0>
8000890a:	01d767b3          	or	a5,a4,t4
8000890e:	46079463          	bnez	a5,80008d76 <__subdf3+0x6b6>
80008912:	050e                	slli	a0,a0,0x3
80008914:	01d31813          	slli	a6,t1,0x1d
80008918:	810d                	srli	a0,a0,0x3
8000891a:	00a86833          	or	a6,a6,a0
8000891e:	00335793          	srli	a5,t1,0x3
80008922:	a86d                	j	800089dc <__subdf3+0x31c>
80008924:	409885b3          	sub	a1,a7,s1
80008928:	20049763          	bnez	s1,80008b36 <__subdf3+0x476>
8000892c:	01e367b3          	or	a5,t1,t5
80008930:	30078d63          	beqz	a5,80008c4a <__subdf3+0x58a>
80008934:	fff58793          	addi	a5,a1,-1
80008938:	40078963          	beqz	a5,80008d4a <__subdf3+0x68a>
8000893c:	7ff00513          	li	a0,2047
80008940:	20a58363          	beq	a1,a0,80008b46 <__subdf3+0x486>
80008944:	85be                	mv	a1,a5
80008946:	03800793          	li	a5,56
8000894a:	2ab7c263          	blt	a5,a1,80008bee <__subdf3+0x52e>
8000894e:	47fd                	li	a5,31
80008950:	3cb7c863          	blt	a5,a1,80008d20 <__subdf3+0x660>
80008954:	02000793          	li	a5,32
80008958:	8f8d                	sub	a5,a5,a1
8000895a:	00f31833          	sll	a6,t1,a5
8000895e:	00bf5633          	srl	a2,t5,a1
80008962:	00ff17b3          	sll	a5,t5,a5
80008966:	00c86833          	or	a6,a6,a2
8000896a:	00f039b3          	snez	s3,a5
8000896e:	00b35333          	srl	t1,t1,a1
80008972:	01386833          	or	a6,a6,s3
80008976:	40670733          	sub	a4,a4,t1
8000897a:	acb5                	j	80008bf6 <__subdf3+0x536>
8000897c:	01d767b3          	or	a5,a4,t4
80008980:	10078363          	beqz	a5,80008a86 <__subdf3+0x3c6>
80008984:	fff58793          	addi	a5,a1,-1
80008988:	1e078f63          	beqz	a5,80008b86 <__subdf3+0x4c6>
8000898c:	2fc58063          	beq	a1,t3,80008c6c <__subdf3+0x5ac>
80008990:	85be                	mv	a1,a5
80008992:	b5d1                	j	80008856 <__subdf3+0x196>
80008994:	7ff00793          	li	a5,2047
80008998:	06f68b63          	beq	a3,a5,80008a0e <__subdf3+0x34e>
8000899c:	9efa                	add	t4,t4,t5
8000899e:	01eeb633          	sltu	a2,t4,t5
800089a2:	00e307b3          	add	a5,t1,a4
800089a6:	97b2                	add	a5,a5,a2
800089a8:	01f79813          	slli	a6,a5,0x1f
800089ac:	001ede93          	srli	t4,t4,0x1
800089b0:	01d869b3          	or	s3,a6,t4
800089b4:	0017d613          	srli	a2,a5,0x1
800089b8:	84b6                	mv	s1,a3
800089ba:	0079f793          	andi	a5,s3,7
800089be:	e0079fe3          	bnez	a5,800087dc <__subdf3+0x11c>
800089c2:	01d61793          	slli	a5,a2,0x1d
800089c6:	0039d813          	srli	a6,s3,0x3
800089ca:	00f86833          	or	a6,a6,a5
800089ce:	85a6                	mv	a1,s1
800089d0:	00365793          	srli	a5,a2,0x3
800089d4:	7ff00713          	li	a4,2047
800089d8:	06e58063          	beq	a1,a4,80008a38 <__subdf3+0x378>
800089dc:	07b2                	slli	a5,a5,0xc
800089de:	83b1                	srli	a5,a5,0xc
800089e0:	7ff5f713          	andi	a4,a1,2047
800089e4:	8805                	andi	s0,s0,1
800089e6:	bd3d                	j	80008824 <__subdf3+0x164>
800089e8:	01d76733          	or	a4,a4,t4
800089ec:	00e03833          	snez	a6,a4
800089f0:	01e809b3          	add	s3,a6,t5
800089f4:	01e9b7b3          	sltu	a5,s3,t5
800089f8:	00678633          	add	a2,a5,t1
800089fc:	00861793          	slli	a5,a2,0x8
80008a00:	fa07dde3          	bgez	a5,800089ba <__subdf3+0x2fa>
80008a04:	0485                	addi	s1,s1,1
80008a06:	7ff00793          	li	a5,2047
80008a0a:	18f49c63          	bne	s1,a5,80008ba2 <__subdf3+0x4e2>
80008a0e:	8805                	andi	s0,s0,1
80008a10:	7ff00713          	li	a4,2047
80008a14:	4781                	li	a5,0
80008a16:	4801                	li	a6,0
80008a18:	b531                	j	80008824 <__subdf3+0x164>
80008a1a:	10079163          	bnez	a5,80008b1c <__subdf3+0x45c>
80008a1e:	3c080163          	beqz	a6,80008de0 <__subdf3+0x720>
80008a22:	00361813          	slli	a6,a2,0x3
80008a26:	01d71793          	slli	a5,a4,0x1d
80008a2a:	00385813          	srli	a6,a6,0x3
80008a2e:	00f86833          	or	a6,a6,a5
80008a32:	8436                	mv	s0,a3
80008a34:	00375793          	srli	a5,a4,0x3
80008a38:	00f867b3          	or	a5,a6,a5
80008a3c:	dbe9                	beqz	a5,80008a0e <__subdf3+0x34e>
80008a3e:	4401                	li	s0,0
80008a40:	7ff00713          	li	a4,2047
80008a44:	000807b7          	lui	a5,0x80
80008a48:	4801                	li	a6,0
80008a4a:	bbe9                	j	80008824 <__subdf3+0x164>
80008a4c:	ff800637          	lui	a2,0xff800
80008a50:	167d                	addi	a2,a2,-1
80008a52:	8e7d                	and	a2,a2,a5
80008a54:	0079f793          	andi	a5,s3,7
80008a58:	8c99                	sub	s1,s1,a4
80008a5a:	d80791e3          	bnez	a5,800087dc <__subdf3+0x11c>
80008a5e:	b795                	j	800089c2 <__subdf3+0x302>
80008a60:	854e                	mv	a0,s3
80008a62:	f6bfb0ef          	jal	ra,800049cc <__clzsi2>
80008a66:	01850713          	addi	a4,a0,24
80008a6a:	47fd                	li	a5,31
80008a6c:	d2e7d2e3          	bge	a5,a4,80008790 <__subdf3+0xd0>
80008a70:	ff850613          	addi	a2,a0,-8
80008a74:	00c997b3          	sll	a5,s3,a2
80008a78:	4981                	li	s3,0
80008a7a:	b32d                	j	800087a4 <__subdf3+0xe4>
80008a7c:	01d76833          	or	a6,a4,t4
80008a80:	01003833          	snez	a6,a6
80008a84:	b1c5                	j	80008764 <__subdf3+0xa4>
80008a86:	00351813          	slli	a6,a0,0x3
80008a8a:	01d31793          	slli	a5,t1,0x1d
80008a8e:	00385813          	srli	a6,a6,0x3
80008a92:	00f86833          	or	a6,a6,a5
80008a96:	00335793          	srli	a5,t1,0x3
80008a9a:	bf2d                	j	800089d4 <__subdf3+0x314>
80008a9c:	41df09b3          	sub	s3,t5,t4
80008aa0:	40e30933          	sub	s2,t1,a4
80008aa4:	013f3633          	sltu	a2,t5,s3
80008aa8:	40c90933          	sub	s2,s2,a2
80008aac:	00891793          	slli	a5,s2,0x8
80008ab0:	2007ca63          	bltz	a5,80008cc4 <__subdf3+0x604>
80008ab4:	0129e833          	or	a6,s3,s2
80008ab8:	cc0815e3          	bnez	a6,80008782 <__subdf3+0xc2>
80008abc:	4781                	li	a5,0
80008abe:	4401                	li	s0,0
80008ac0:	bf31                	j	800089dc <__subdf3+0x31c>
80008ac2:	409885b3          	sub	a1,a7,s1
80008ac6:	14048163          	beqz	s1,80008c08 <__subdf3+0x548>
80008aca:	008006b7          	lui	a3,0x800
80008ace:	7ff00793          	li	a5,2047
80008ad2:	00d36333          	or	t1,t1,a3
80008ad6:	20f88163          	beq	a7,a5,80008cd8 <__subdf3+0x618>
80008ada:	03800793          	li	a5,56
80008ade:	22b7cc63          	blt	a5,a1,80008d16 <__subdf3+0x656>
80008ae2:	47fd                	li	a5,31
80008ae4:	2cb7c963          	blt	a5,a1,80008db6 <__subdf3+0x6f6>
80008ae8:	02000793          	li	a5,32
80008aec:	8f8d                	sub	a5,a5,a1
80008aee:	00f31833          	sll	a6,t1,a5
80008af2:	00bf56b3          	srl	a3,t5,a1
80008af6:	00ff17b3          	sll	a5,t5,a5
80008afa:	00d86833          	or	a6,a6,a3
80008afe:	00f039b3          	snez	s3,a5
80008b02:	00b35333          	srl	t1,t1,a1
80008b06:	01386833          	or	a6,a6,s3
80008b0a:	971a                	add	a4,a4,t1
80008b0c:	01d809b3          	add	s3,a6,t4
80008b10:	01d9b7b3          	sltu	a5,s3,t4
80008b14:	00e78633          	add	a2,a5,a4
80008b18:	84c6                	mv	s1,a7
80008b1a:	b5cd                	j	800089fc <__subdf3+0x33c>
80008b1c:	f20811e3          	bnez	a6,80008a3e <__subdf3+0x37e>
80008b20:	00351813          	slli	a6,a0,0x3
80008b24:	01d31793          	slli	a5,t1,0x1d
80008b28:	00385813          	srli	a6,a6,0x3
80008b2c:	00f86833          	or	a6,a6,a5
80008b30:	00335793          	srli	a5,t1,0x3
80008b34:	b711                	j	80008a38 <__subdf3+0x378>
80008b36:	00800537          	lui	a0,0x800
80008b3a:	7ff00793          	li	a5,2047
80008b3e:	00a36333          	or	t1,t1,a0
80008b42:	e0f892e3          	bne	a7,a5,80008946 <__subdf3+0x286>
80008b46:	060e                	slli	a2,a2,0x3
80008b48:	01d71813          	slli	a6,a4,0x1d
80008b4c:	820d                	srli	a2,a2,0x3
80008b4e:	00c86833          	or	a6,a6,a2
80008b52:	00375793          	srli	a5,a4,0x3
80008b56:	8436                	mv	s0,a3
80008b58:	b5c5                	j	80008a38 <__subdf3+0x378>
80008b5a:	1705                	addi	a4,a4,-31
80008b5c:	02000693          	li	a3,32
80008b60:	00e7d733          	srl	a4,a5,a4
80008b64:	00d60a63          	beq	a2,a3,80008b78 <__subdf3+0x4b8>
80008b68:	04000693          	li	a3,64
80008b6c:	40c68633          	sub	a2,a3,a2
80008b70:	00c79633          	sll	a2,a5,a2
80008b74:	00c9e9b3          	or	s3,s3,a2
80008b78:	01303833          	snez	a6,s3
80008b7c:	00e869b3          	or	s3,a6,a4
80008b80:	4601                	li	a2,0
80008b82:	4481                	li	s1,0
80008b84:	bd1d                	j	800089ba <__subdf3+0x2fa>
80008b86:	01df09b3          	add	s3,t5,t4
80008b8a:	00e307b3          	add	a5,t1,a4
80008b8e:	01e9bf33          	sltu	t5,s3,t5
80008b92:	01e78633          	add	a2,a5,t5
80008b96:	00861793          	slli	a5,a2,0x8
80008b9a:	4485                	li	s1,1
80008b9c:	e007dfe3          	bgez	a5,800089ba <__subdf3+0x2fa>
80008ba0:	4489                	li	s1,2
80008ba2:	ff8007b7          	lui	a5,0xff800
80008ba6:	17fd                	addi	a5,a5,-1
80008ba8:	8ff1                	and	a5,a5,a2
80008baa:	0019d713          	srli	a4,s3,0x1
80008bae:	0019f813          	andi	a6,s3,1
80008bb2:	01076833          	or	a6,a4,a6
80008bb6:	01f79993          	slli	s3,a5,0x1f
80008bba:	0109e9b3          	or	s3,s3,a6
80008bbe:	0017d613          	srli	a2,a5,0x1
80008bc2:	b911                	j	800087d6 <__subdf3+0x116>
80008bc4:	fe058813          	addi	a6,a1,-32
80008bc8:	02000793          	li	a5,32
80008bcc:	010759b3          	srl	s3,a4,a6
80008bd0:	00f58a63          	beq	a1,a5,80008be4 <__subdf3+0x524>
80008bd4:	04000793          	li	a5,64
80008bd8:	40b785b3          	sub	a1,a5,a1
80008bdc:	00b71733          	sll	a4,a4,a1
80008be0:	00eeeeb3          	or	t4,t4,a4
80008be4:	01d03833          	snez	a6,t4
80008be8:	01386833          	or	a6,a6,s3
80008bec:	bea5                	j	80008764 <__subdf3+0xa4>
80008bee:	01e36333          	or	t1,t1,t5
80008bf2:	00603833          	snez	a6,t1
80008bf6:	410e89b3          	sub	s3,t4,a6
80008bfa:	013eb7b3          	sltu	a5,t4,s3
80008bfe:	40f70633          	sub	a2,a4,a5
80008c02:	84c6                	mv	s1,a7
80008c04:	8436                	mv	s0,a3
80008c06:	b6ad                	j	80008770 <__subdf3+0xb0>
80008c08:	01e367b3          	or	a5,t1,t5
80008c0c:	18078763          	beqz	a5,80008d9a <__subdf3+0x6da>
80008c10:	fff58793          	addi	a5,a1,-1
80008c14:	1c078c63          	beqz	a5,80008dec <__subdf3+0x72c>
80008c18:	7ff00693          	li	a3,2047
80008c1c:	0ad58e63          	beq	a1,a3,80008cd8 <__subdf3+0x618>
80008c20:	85be                	mv	a1,a5
80008c22:	bd65                	j	80008ada <__subdf3+0x41a>
80008c24:	02000793          	li	a5,32
80008c28:	8f8d                	sub	a5,a5,a1
80008c2a:	00bed9b3          	srl	s3,t4,a1
80008c2e:	00f71833          	sll	a6,a4,a5
80008c32:	00fe9eb3          	sll	t4,t4,a5
80008c36:	01386833          	or	a6,a6,s3
80008c3a:	00b75733          	srl	a4,a4,a1
80008c3e:	01d039b3          	snez	s3,t4
80008c42:	01386833          	or	a6,a6,s3
80008c46:	933a                	add	t1,t1,a4
80008c48:	b365                	j	800089f0 <__subdf3+0x330>
80008c4a:	00361813          	slli	a6,a2,0x3
80008c4e:	01d71793          	slli	a5,a4,0x1d
80008c52:	00385813          	srli	a6,a6,0x3
80008c56:	0107e833          	or	a6,a5,a6
80008c5a:	8436                	mv	s0,a3
80008c5c:	00375793          	srli	a5,a4,0x3
80008c60:	bb95                	j	800089d4 <__subdf3+0x314>
80008c62:	cbbd                	beqz	a5,80008cd8 <__subdf3+0x618>
80008c64:	01d76733          	or	a4,a4,t4
80008c68:	dc071be3          	bnez	a4,80008a3e <__subdf3+0x37e>
80008c6c:	050e                	slli	a0,a0,0x3
80008c6e:	01d31813          	slli	a6,t1,0x1d
80008c72:	810d                	srli	a0,a0,0x3
80008c74:	00a86833          	or	a6,a6,a0
80008c78:	00335793          	srli	a5,t1,0x3
80008c7c:	bb75                	j	80008a38 <__subdf3+0x378>
80008c7e:	e2080fe3          	beqz	a6,80008abc <__subdf3+0x3fc>
80008c82:	00361813          	slli	a6,a2,0x3
80008c86:	01d71793          	slli	a5,a4,0x1d
80008c8a:	00385813          	srli	a6,a6,0x3
80008c8e:	00f86833          	or	a6,a6,a5
80008c92:	8436                	mv	s0,a3
80008c94:	00375793          	srli	a5,a4,0x3
80008c98:	b391                	j	800089dc <__subdf3+0x31c>
80008c9a:	41df09b3          	sub	s3,t5,t4
80008c9e:	40e307b3          	sub	a5,t1,a4
80008ca2:	013f3f33          	sltu	t5,t5,s3
80008ca6:	41e78633          	sub	a2,a5,t5
80008caa:	4485                	li	s1,1
80008cac:	b4d1                	j	80008770 <__subdf3+0xb0>
80008cae:	00351813          	slli	a6,a0,0x3
80008cb2:	01d31693          	slli	a3,t1,0x1d
80008cb6:	00385813          	srli	a6,a6,0x3
80008cba:	0106e833          	or	a6,a3,a6
80008cbe:	00335793          	srli	a5,t1,0x3
80008cc2:	bb9d                	j	80008a38 <__subdf3+0x378>
80008cc4:	41ee89b3          	sub	s3,t4,t5
80008cc8:	40670633          	sub	a2,a4,t1
80008ccc:	013eb933          	sltu	s2,t4,s3
80008cd0:	41260933          	sub	s2,a2,s2
80008cd4:	8436                	mv	s0,a3
80008cd6:	b475                	j	80008782 <__subdf3+0xc2>
80008cd8:	060e                	slli	a2,a2,0x3
80008cda:	01d71813          	slli	a6,a4,0x1d
80008cde:	820d                	srli	a2,a2,0x3
80008ce0:	00c86833          	or	a6,a6,a2
80008ce4:	00375793          	srli	a5,a4,0x3
80008ce8:	bb81                	j	80008a38 <__subdf3+0x378>
80008cea:	41df09b3          	sub	s3,t5,t4
80008cee:	40e307b3          	sub	a5,t1,a4
80008cf2:	013f3633          	sltu	a2,t5,s3
80008cf6:	40c78633          	sub	a2,a5,a2
80008cfa:	00861793          	slli	a5,a2,0x8
80008cfe:	0a07d763          	bgez	a5,80008dac <__subdf3+0x6ec>
80008d02:	41ee89b3          	sub	s3,t4,t5
80008d06:	406707b3          	sub	a5,a4,t1
80008d0a:	013ebeb3          	sltu	t4,t4,s3
80008d0e:	41d78633          	sub	a2,a5,t4
80008d12:	8436                	mv	s0,a3
80008d14:	b4c9                	j	800087d6 <__subdf3+0x116>
80008d16:	01e36333          	or	t1,t1,t5
80008d1a:	00603833          	snez	a6,t1
80008d1e:	b3fd                	j	80008b0c <__subdf3+0x44c>
80008d20:	fe058813          	addi	a6,a1,-32
80008d24:	02000793          	li	a5,32
80008d28:	010359b3          	srl	s3,t1,a6
80008d2c:	00f58a63          	beq	a1,a5,80008d40 <__subdf3+0x680>
80008d30:	04000793          	li	a5,64
80008d34:	40b785b3          	sub	a1,a5,a1
80008d38:	00b31333          	sll	t1,t1,a1
80008d3c:	006f6f33          	or	t5,t5,t1
80008d40:	01e03833          	snez	a6,t5
80008d44:	01386833          	or	a6,a6,s3
80008d48:	b57d                	j	80008bf6 <__subdf3+0x536>
80008d4a:	41ee89b3          	sub	s3,t4,t5
80008d4e:	406707b3          	sub	a5,a4,t1
80008d52:	013ebeb3          	sltu	t4,t4,s3
80008d56:	41d78633          	sub	a2,a5,t4
80008d5a:	8436                	mv	s0,a3
80008d5c:	4485                	li	s1,1
80008d5e:	bc09                	j	80008770 <__subdf3+0xb0>
80008d60:	00361813          	slli	a6,a2,0x3
80008d64:	01d71793          	slli	a5,a4,0x1d
80008d68:	00385813          	srli	a6,a6,0x3
80008d6c:	00f86833          	or	a6,a6,a5
80008d70:	00375793          	srli	a5,a4,0x3
80008d74:	b1a5                	j	800089dc <__subdf3+0x31c>
80008d76:	01df09b3          	add	s3,t5,t4
80008d7a:	00e307b3          	add	a5,t1,a4
80008d7e:	01e9bf33          	sltu	t5,s3,t5
80008d82:	01e78633          	add	a2,a5,t5
80008d86:	00861793          	slli	a5,a2,0x8
80008d8a:	c207d8e3          	bgez	a5,800089ba <__subdf3+0x2fa>
80008d8e:	ff8007b7          	lui	a5,0xff800
80008d92:	17fd                	addi	a5,a5,-1
80008d94:	8e7d                	and	a2,a2,a5
80008d96:	4485                	li	s1,1
80008d98:	b10d                	j	800089ba <__subdf3+0x2fa>
80008d9a:	060e                	slli	a2,a2,0x3
80008d9c:	01d71813          	slli	a6,a4,0x1d
80008da0:	820d                	srli	a2,a2,0x3
80008da2:	00c86833          	or	a6,a6,a2
80008da6:	00375793          	srli	a5,a4,0x3
80008daa:	b12d                	j	800089d4 <__subdf3+0x314>
80008dac:	00c9e833          	or	a6,s3,a2
80008db0:	d00806e3          	beqz	a6,80008abc <__subdf3+0x3fc>
80008db4:	b119                	j	800089ba <__subdf3+0x2fa>
80008db6:	fe058813          	addi	a6,a1,-32
80008dba:	02000793          	li	a5,32
80008dbe:	010359b3          	srl	s3,t1,a6
80008dc2:	00f58a63          	beq	a1,a5,80008dd6 <__subdf3+0x716>
80008dc6:	04000793          	li	a5,64
80008dca:	40b785b3          	sub	a1,a5,a1
80008dce:	00b31333          	sll	t1,t1,a1
80008dd2:	006f6f33          	or	t5,t5,t1
80008dd6:	01e03833          	snez	a6,t5
80008dda:	01386833          	or	a6,a6,s3
80008dde:	b33d                	j	80008b0c <__subdf3+0x44c>
80008de0:	4401                	li	s0,0
80008de2:	7ff00713          	li	a4,2047
80008de6:	000807b7          	lui	a5,0x80
80008dea:	bc2d                	j	80008824 <__subdf3+0x164>
80008dec:	01df09b3          	add	s3,t5,t4
80008df0:	00e307b3          	add	a5,t1,a4
80008df4:	01d9beb3          	sltu	t4,s3,t4
80008df8:	01d78633          	add	a2,a5,t4
80008dfc:	bb69                	j	80008b96 <__subdf3+0x4d6>

80008dfe <__unorddf2>:
80008dfe:	0145d713          	srli	a4,a1,0x14
80008e02:	001007b7          	lui	a5,0x100
80008e06:	17fd                	addi	a5,a5,-1
80008e08:	fff74713          	not	a4,a4
80008e0c:	0146d813          	srli	a6,a3,0x14
80008e10:	8dfd                	and	a1,a1,a5
80008e12:	8ff5                	and	a5,a5,a3
80008e14:	01571693          	slli	a3,a4,0x15
80008e18:	7ff87813          	andi	a6,a6,2047
80008e1c:	ca99                	beqz	a3,80008e32 <__unorddf2+0x34>
80008e1e:	7ff00713          	li	a4,2047
80008e22:	4501                	li	a0,0
80008e24:	00e80363          	beq	a6,a4,80008e2a <__unorddf2+0x2c>
80008e28:	8082                	ret
80008e2a:	8fd1                	or	a5,a5,a2
80008e2c:	00f03533          	snez	a0,a5
80008e30:	8082                	ret
80008e32:	8dc9                	or	a1,a1,a0
80008e34:	4505                	li	a0,1
80008e36:	d5e5                	beqz	a1,80008e1e <__unorddf2+0x20>
80008e38:	8082                	ret

80008e3a <__fixdfsi>:
80008e3a:	0145d793          	srli	a5,a1,0x14
80008e3e:	001006b7          	lui	a3,0x100
80008e42:	fff68713          	addi	a4,a3,-1 # fffff <__stack_size+0xff7ff>
80008e46:	7ff7f793          	andi	a5,a5,2047
80008e4a:	3fe00613          	li	a2,1022
80008e4e:	8f6d                	and	a4,a4,a1
80008e50:	81fd                	srli	a1,a1,0x1f
80008e52:	00f65c63          	bge	a2,a5,80008e6a <__fixdfsi+0x30>
80008e56:	41d00613          	li	a2,1053
80008e5a:	00f65a63          	bge	a2,a5,80008e6e <__fixdfsi+0x34>
80008e5e:	80000537          	lui	a0,0x80000
80008e62:	fff54513          	not	a0,a0
80008e66:	952e                	add	a0,a0,a1
80008e68:	8082                	ret
80008e6a:	4501                	li	a0,0
80008e6c:	8082                	ret
80008e6e:	43300613          	li	a2,1075
80008e72:	8e1d                	sub	a2,a2,a5
80008e74:	487d                	li	a6,31
80008e76:	8f55                	or	a4,a4,a3
80008e78:	00c85d63          	bge	a6,a2,80008e92 <__fixdfsi+0x58>
80008e7c:	41300693          	li	a3,1043
80008e80:	40f687b3          	sub	a5,a3,a5
80008e84:	00f757b3          	srl	a5,a4,a5
80008e88:	40f00533          	neg	a0,a5
80008e8c:	f1e5                	bnez	a1,80008e6c <__fixdfsi+0x32>
80008e8e:	853e                	mv	a0,a5
80008e90:	8082                	ret
80008e92:	bed78793          	addi	a5,a5,-1043 # ffbed <__stack_size+0xff3ed>
80008e96:	00f717b3          	sll	a5,a4,a5
80008e9a:	00c55533          	srl	a0,a0,a2
80008e9e:	8fc9                	or	a5,a5,a0
80008ea0:	b7e5                	j	80008e88 <__fixdfsi+0x4e>

80008ea2 <__floatsidf>:
80008ea2:	1141                	addi	sp,sp,-16
80008ea4:	c606                	sw	ra,12(sp)
80008ea6:	c422                	sw	s0,8(sp)
80008ea8:	c226                	sw	s1,4(sp)
80008eaa:	cd0d                	beqz	a0,80008ee4 <__floatsidf+0x42>
80008eac:	41f55793          	srai	a5,a0,0x1f
80008eb0:	00a7c4b3          	xor	s1,a5,a0
80008eb4:	8c9d                	sub	s1,s1,a5
80008eb6:	842a                	mv	s0,a0
80008eb8:	8526                	mv	a0,s1
80008eba:	b13fb0ef          	jal	ra,800049cc <__clzsi2>
80008ebe:	41e00693          	li	a3,1054
80008ec2:	8e89                	sub	a3,a3,a0
80008ec4:	47a9                	li	a5,10
80008ec6:	807d                	srli	s0,s0,0x1f
80008ec8:	7ff6f693          	andi	a3,a3,2047
80008ecc:	02a7cd63          	blt	a5,a0,80008f06 <__floatsidf+0x64>
80008ed0:	472d                	li	a4,11
80008ed2:	8f09                	sub	a4,a4,a0
80008ed4:	00e4d7b3          	srl	a5,s1,a4
80008ed8:	0555                	addi	a0,a0,21
80008eda:	07b2                	slli	a5,a5,0xc
80008edc:	00a494b3          	sll	s1,s1,a0
80008ee0:	83b1                	srli	a5,a5,0xc
80008ee2:	a029                	j	80008eec <__floatsidf+0x4a>
80008ee4:	4401                	li	s0,0
80008ee6:	4681                	li	a3,0
80008ee8:	4781                	li	a5,0
80008eea:	4481                	li	s1,0
80008eec:	07b2                	slli	a5,a5,0xc
80008eee:	06d2                	slli	a3,a3,0x14
80008ef0:	83b1                	srli	a5,a5,0xc
80008ef2:	047e                	slli	s0,s0,0x1f
80008ef4:	8fd5                	or	a5,a5,a3
80008ef6:	8fc1                	or	a5,a5,s0
80008ef8:	40b2                	lw	ra,12(sp)
80008efa:	4422                	lw	s0,8(sp)
80008efc:	8526                	mv	a0,s1
80008efe:	85be                	mv	a1,a5
80008f00:	4492                	lw	s1,4(sp)
80008f02:	0141                	addi	sp,sp,16
80008f04:	8082                	ret
80008f06:	1555                	addi	a0,a0,-11
80008f08:	00a497b3          	sll	a5,s1,a0
80008f0c:	07b2                	slli	a5,a5,0xc
80008f0e:	83b1                	srli	a5,a5,0xc
80008f10:	4481                	li	s1,0
80008f12:	bfe9                	j	80008eec <__floatsidf+0x4a>

80008f14 <__trunctfdf2>:
80008f14:	00c52803          	lw	a6,12(a0) # 8000000c <_sp+0xefff000c>
80008f18:	4118                	lw	a4,0(a0)
80008f1a:	4154                	lw	a3,4(a0)
80008f1c:	450c                	lw	a1,8(a0)
80008f1e:	6521                	lui	a0,0x8
80008f20:	fff50793          	addi	a5,a0,-1 # 7fff <__stack_size+0x77ff>
80008f24:	01085613          	srli	a2,a6,0x10
80008f28:	00359e13          	slli	t3,a1,0x3
80008f2c:	8e7d                	and	a2,a2,a5
80008f2e:	01d75893          	srli	a7,a4,0x1d
80008f32:	01d6d793          	srli	a5,a3,0x1d
80008f36:	01081313          	slli	t1,a6,0x10
80008f3a:	068e                	slli	a3,a3,0x3
80008f3c:	1141                	addi	sp,sp,-16
80008f3e:	01c7e7b3          	or	a5,a5,t3
80008f42:	0116e6b3          	or	a3,a3,a7
80008f46:	01035313          	srli	t1,t1,0x10
80008f4a:	00371e13          	slli	t3,a4,0x3
80008f4e:	00160893          	addi	a7,a2,1 # ff800001 <_sp+0x6f7f0001>
80008f52:	1579                	addi	a0,a0,-2
80008f54:	81f5                	srli	a1,a1,0x1d
80008f56:	030e                	slli	t1,t1,0x3
80008f58:	c43e                	sw	a5,8(sp)
80008f5a:	c236                	sw	a3,4(sp)
80008f5c:	c072                	sw	t3,0(sp)
80008f5e:	00a8f533          	and	a0,a7,a0
80008f62:	01f85813          	srli	a6,a6,0x1f
80008f66:	0065e5b3          	or	a1,a1,t1
80008f6a:	c905                	beqz	a0,80008f9a <__trunctfdf2+0x86>
80008f6c:	7771                	lui	a4,0xffffc
80008f6e:	40070713          	addi	a4,a4,1024 # ffffc400 <_sp+0x6ffec400>
80008f72:	963a                	add	a2,a2,a4
80008f74:	7fe00713          	li	a4,2046
80008f78:	04c75d63          	bge	a4,a2,80008fd2 <__trunctfdf2+0xbe>
80008f7c:	7ff00613          	li	a2,2047
80008f80:	4701                	li	a4,0
80008f82:	4781                	li	a5,0
80008f84:	0732                	slli	a4,a4,0xc
80008f86:	0652                	slli	a2,a2,0x14
80008f88:	8331                	srli	a4,a4,0xc
80008f8a:	087e                	slli	a6,a6,0x1f
80008f8c:	8f51                	or	a4,a4,a2
80008f8e:	01076733          	or	a4,a4,a6
80008f92:	853e                	mv	a0,a5
80008f94:	85ba                	mv	a1,a4
80008f96:	0141                	addi	sp,sp,16
80008f98:	8082                	ret
80008f9a:	8fd5                	or	a5,a5,a3
80008f9c:	8fcd                	or	a5,a5,a1
80008f9e:	01c7e7b3          	or	a5,a5,t3
80008fa2:	e205                	bnez	a2,80008fc2 <__trunctfdf2+0xae>
80008fa4:	cbf1                	beqz	a5,80009078 <__trunctfdf2+0x164>
80008fa6:	4781                	li	a5,0
80008fa8:	4695                	li	a3,5
80008faa:	0036d593          	srli	a1,a3,0x3
80008fae:	00979713          	slli	a4,a5,0x9
80008fb2:	01d79693          	slli	a3,a5,0x1d
80008fb6:	00b6e7b3          	or	a5,a3,a1
80008fba:	8331                	srli	a4,a4,0xc
80008fbc:	7ff67613          	andi	a2,a2,2047
80008fc0:	b7d1                	j	80008f84 <__trunctfdf2+0x70>
80008fc2:	dfcd                	beqz	a5,80008f7c <__trunctfdf2+0x68>
80008fc4:	4801                	li	a6,0
80008fc6:	7ff00613          	li	a2,2047
80008fca:	00080737          	lui	a4,0x80
80008fce:	4781                	li	a5,0
80008fd0:	bf55                	j	80008f84 <__trunctfdf2+0x70>
80008fd2:	0ac04663          	bgtz	a2,8000907e <__trunctfdf2+0x16a>
80008fd6:	fcc00793          	li	a5,-52
80008fda:	0ef64f63          	blt	a2,a5,800090d8 <__trunctfdf2+0x1c4>
80008fde:	03d00793          	li	a5,61
80008fe2:	40c78633          	sub	a2,a5,a2
80008fe6:	40565793          	srai	a5,a2,0x5
80008fea:	00080737          	lui	a4,0x80
80008fee:	8dd9                	or	a1,a1,a4
80008ff0:	00279513          	slli	a0,a5,0x2
80008ff4:	870a                	mv	a4,sp
80008ff6:	4681                	li	a3,0
80008ff8:	c62e                	sw	a1,12(sp)
80008ffa:	00a108b3          	add	a7,sp,a0
80008ffe:	0711                	addi	a4,a4,4
80009000:	8a7d                	andi	a2,a2,31
80009002:	01c6e6b3          	or	a3,a3,t3
80009006:	01170963          	beq	a4,a7,80009018 <__trunctfdf2+0x104>
8000900a:	00072e03          	lw	t3,0(a4) # 80000 <__stack_size+0x7f800>
8000900e:	0711                	addi	a4,a4,4
80009010:	01c6e6b3          	or	a3,a3,t3
80009014:	ff171be3          	bne	a4,a7,8000900a <__trunctfdf2+0xf6>
80009018:	470d                	li	a4,3
8000901a:	8f1d                	sub	a4,a4,a5
8000901c:	ca79                	beqz	a2,800090f2 <__trunctfdf2+0x1de>
8000901e:	01010893          	addi	a7,sp,16
80009022:	98aa                	add	a7,a7,a0
80009024:	ff08a883          	lw	a7,-16(a7) # fff0 <__stack_size+0xf7f0>
80009028:	02000e13          	li	t3,32
8000902c:	40ce0e33          	sub	t3,t3,a2
80009030:	01c898b3          	sll	a7,a7,t3
80009034:	0116e6b3          	or	a3,a3,a7
80009038:	cb75                	beqz	a4,8000912c <__trunctfdf2+0x218>
8000903a:	070a                	slli	a4,a4,0x2
8000903c:	950a                	add	a0,a0,sp
8000903e:	00e10eb3          	add	t4,sp,a4
80009042:	888a                	mv	a7,sp
80009044:	410c                	lw	a1,0(a0)
80009046:	00452303          	lw	t1,4(a0)
8000904a:	0891                	addi	a7,a7,4
8000904c:	00c5d5b3          	srl	a1,a1,a2
80009050:	01c31333          	sll	t1,t1,t3
80009054:	0065e5b3          	or	a1,a1,t1
80009058:	feb8ae23          	sw	a1,-4(a7)
8000905c:	0511                	addi	a0,a0,4
8000905e:	ff1e93e3          	bne	t4,a7,80009044 <__trunctfdf2+0x130>
80009062:	4591                	li	a1,4
80009064:	40f587b3          	sub	a5,a1,a5
80009068:	45b2                	lw	a1,12(sp)
8000906a:	0808                	addi	a0,sp,16
8000906c:	972a                	add	a4,a4,a0
8000906e:	00c5d5b3          	srl	a1,a1,a2
80009072:	feb72823          	sw	a1,-16(a4)
80009076:	a861                	j	8000910e <__trunctfdf2+0x1fa>
80009078:	4601                	li	a2,0
8000907a:	4701                	li	a4,0
8000907c:	b721                	j	80008f84 <__trunctfdf2+0x70>
8000907e:	00469713          	slli	a4,a3,0x4
80009082:	00479513          	slli	a0,a5,0x4
80009086:	01c76733          	or	a4,a4,t3
8000908a:	82f1                	srli	a3,a3,0x1c
8000908c:	83f1                	srli	a5,a5,0x1c
8000908e:	0592                	slli	a1,a1,0x4
80009090:	00e03733          	snez	a4,a4
80009094:	8ec9                	or	a3,a3,a0
80009096:	8fcd                	or	a5,a5,a1
80009098:	8ed9                	or	a3,a3,a4
8000909a:	0076f713          	andi	a4,a3,7
8000909e:	c711                	beqz	a4,800090aa <__trunctfdf2+0x196>
800090a0:	00f6f713          	andi	a4,a3,15
800090a4:	4591                	li	a1,4
800090a6:	02b71c63          	bne	a4,a1,800090de <__trunctfdf2+0x1ca>
800090aa:	00800737          	lui	a4,0x800
800090ae:	8f7d                	and	a4,a4,a5
800090b0:	ee070de3          	beqz	a4,80008faa <__trunctfdf2+0x96>
800090b4:	0605                	addi	a2,a2,1
800090b6:	7ff00713          	li	a4,2047
800090ba:	ece601e3          	beq	a2,a4,80008f7c <__trunctfdf2+0x68>
800090be:	ff800737          	lui	a4,0xff800
800090c2:	177d                	addi	a4,a4,-1
800090c4:	8f7d                	and	a4,a4,a5
800090c6:	01d71793          	slli	a5,a4,0x1d
800090ca:	828d                	srli	a3,a3,0x3
800090cc:	0726                	slli	a4,a4,0x9
800090ce:	7ff67613          	andi	a2,a2,2047
800090d2:	8fd5                	or	a5,a5,a3
800090d4:	8331                	srli	a4,a4,0xc
800090d6:	b57d                	j	80008f84 <__trunctfdf2+0x70>
800090d8:	4685                	li	a3,1
800090da:	4781                	li	a5,0
800090dc:	4601                	li	a2,0
800090de:	ffc6b713          	sltiu	a4,a3,-4
800090e2:	00174713          	xori	a4,a4,1
800090e6:	97ba                	add	a5,a5,a4
800090e8:	00800737          	lui	a4,0x800
800090ec:	0691                	addi	a3,a3,4
800090ee:	8f7d                	and	a4,a4,a5
800090f0:	b7c1                	j	800090b0 <__trunctfdf2+0x19c>
800090f2:	858a                	mv	a1,sp
800090f4:	00a588b3          	add	a7,a1,a0
800090f8:	0008a883          	lw	a7,0(a7)
800090fc:	0591                	addi	a1,a1,4
800090fe:	0605                	addi	a2,a2,1
80009100:	ff15ae23          	sw	a7,-4(a1)
80009104:	fec758e3          	bge	a4,a2,800090f4 <__trunctfdf2+0x1e0>
80009108:	4711                	li	a4,4
8000910a:	40f707b3          	sub	a5,a4,a5
8000910e:	078a                	slli	a5,a5,0x2
80009110:	978a                	add	a5,a5,sp
80009112:	0818                	addi	a4,sp,16
80009114:	0007a023          	sw	zero,0(a5)
80009118:	0791                	addi	a5,a5,4
8000911a:	fee79de3          	bne	a5,a4,80009114 <__trunctfdf2+0x200>
8000911e:	4702                	lw	a4,0(sp)
80009120:	00d036b3          	snez	a3,a3
80009124:	4792                	lw	a5,4(sp)
80009126:	8ed9                	or	a3,a3,a4
80009128:	4601                	li	a2,0
8000912a:	bf85                	j	8000909a <__trunctfdf2+0x186>
8000912c:	4785                	li	a5,1
8000912e:	4701                	li	a4,0
80009130:	bf2d                	j	8000906a <__trunctfdf2+0x156>

Disassembly of section .sdata2._global_impure_ptr:

80009134 <_global_impure_ptr>:
80009134:	0a80                	addi	s0,sp,336
80009136:	9000                	0x9000

Disassembly of section .init_array:

80009138 <_eitcm>:
80009138:	08cc                	addi	a1,sp,84
8000913a:	8000                	0x8000

Disassembly of section .data:

90000000 <list_known_crc>:
90000000:	d4b0                	sw	a2,104(s1)
90000002:	3340                	fld	fs0,160(a4)
90000004:	6a79                	lui	s4,0x1e
90000006:	e714                	fsw	fa3,8(a4)
90000008:	e3c1                	bnez	a5,90000088 <list_known_crc+0x88>
	...
90000016:	3ff0                	fld	fa2,248(a5)
90000018:	0000                	unimp
9000001a:	0000                	unimp
9000001c:	0000                	unimp
9000001e:	4024                	lw	s1,64(s0)
90000020:	6b36                	flw	fs6,76(sp)
90000022:	7020                	flw	fs0,96(s0)
90000024:	7265                	lui	tp,0xffff9
90000026:	6f66                	flw	ft10,88(sp)
90000028:	6d72                	flw	fs10,28(sp)
9000002a:	6e61                	lui	t3,0x18
9000002c:	72206563          	bltu	zero,sp,90000756 <__clz_tab+0x126>
90000030:	6e75                	lui	t3,0x1d
90000032:	7020                	flw	fs0,96(s0)
90000034:	7261                	lui	tp,0xffff8
90000036:	6d61                	lui	s10,0x18
90000038:	7465                	lui	s0,0xffff9
9000003a:	7265                	lui	tp,0xffff9
9000003c:	6f662073          	csrs	0x6f6,a2
90000040:	2072                	fld	ft0,280(sp)
90000042:	65726f63          	bltu	tp,s7,900006a0 <__clz_tab+0x70>
90000046:	616d                	addi	sp,sp,240
90000048:	6b72                	flw	fs6,28(sp)
9000004a:	002e                	c.slli	zero,0xb
9000004c:	6b36                	flw	fs6,76(sp)
9000004e:	7620                	flw	fs0,104(a2)
90000050:	6c61                	lui	s8,0x18
90000052:	6469                	lui	s0,0x1a
90000054:	7461                	lui	s0,0xffff8
90000056:	6f69                	lui	t5,0x1a
90000058:	206e                	fld	ft0,216(sp)
9000005a:	7572                	flw	fa0,60(sp)
9000005c:	206e                	fld	ft0,216(sp)
9000005e:	6170                	flw	fa2,68(a0)
90000060:	6172                	flw	ft2,28(sp)
90000062:	656d                	lui	a0,0x1b
90000064:	6574                	flw	fa3,76(a0)
90000066:	7372                	flw	ft6,60(sp)
90000068:	6620                	flw	fs0,72(a2)
9000006a:	6320726f          	jal	tp,9000769c <__global_pointer$+0x624c>
9000006e:	6d65726f          	jal	tp,90057744 <_sp+0x47744>
90000072:	7261                	lui	tp,0xffff8
90000074:	00002e6b          	0x2e6b
90000078:	7250                	flw	fa2,36(a2)
9000007a:	6c69666f          	jal	a2,90096740 <_sp+0x86740>
9000007e:	2065                	jal	90000126 <list_known_crc+0x126>
90000080:	656e6567          	0x656e6567
90000084:	6172                	flw	ft2,28(sp)
90000086:	6974                	flw	fa3,84(a0)
90000088:	72206e6f          	jal	t3,900067aa <__global_pointer$+0x535a>
9000008c:	6e75                	lui	t3,0x1d
9000008e:	7020                	flw	fs0,96(s0)
90000090:	7261                	lui	tp,0xffff8
90000092:	6d61                	lui	s10,0x18
90000094:	7465                	lui	s0,0xffff9
90000096:	7265                	lui	tp,0xffff9
90000098:	6f662073          	csrs	0x6f6,a2
9000009c:	2072                	fld	ft0,280(sp)
9000009e:	65726f63          	bltu	tp,s7,900006fc <__clz_tab+0xcc>
900000a2:	616d                	addi	sp,sp,240
900000a4:	6b72                	flw	fs6,28(sp)
900000a6:	002e                	c.slli	zero,0xb
900000a8:	4b32                	lw	s6,12(sp)
900000aa:	7020                	flw	fs0,96(s0)
900000ac:	7265                	lui	tp,0xffff9
900000ae:	6f66                	flw	ft10,88(sp)
900000b0:	6d72                	flw	fs10,28(sp)
900000b2:	6e61                	lui	t3,0x18
900000b4:	72206563          	bltu	zero,sp,900007de <__sf_fake_stderr+0x1e>
900000b8:	6e75                	lui	t3,0x1d
900000ba:	7020                	flw	fs0,96(s0)
900000bc:	7261                	lui	tp,0xffff8
900000be:	6d61                	lui	s10,0x18
900000c0:	7465                	lui	s0,0xffff9
900000c2:	7265                	lui	tp,0xffff9
900000c4:	6f662073          	csrs	0x6f6,a2
900000c8:	2072                	fld	ft0,280(sp)
900000ca:	65726f63          	bltu	tp,s7,90000728 <__clz_tab+0xf8>
900000ce:	616d                	addi	sp,sp,240
900000d0:	6b72                	flw	fs6,28(sp)
900000d2:	002e                	c.slli	zero,0xb
900000d4:	4b32                	lw	s6,12(sp)
900000d6:	7620                	flw	fs0,104(a2)
900000d8:	6c61                	lui	s8,0x18
900000da:	6469                	lui	s0,0x1a
900000dc:	7461                	lui	s0,0xffff8
900000de:	6f69                	lui	t5,0x1a
900000e0:	206e                	fld	ft0,216(sp)
900000e2:	7572                	flw	fa0,60(sp)
900000e4:	206e                	fld	ft0,216(sp)
900000e6:	6170                	flw	fa2,68(a0)
900000e8:	6172                	flw	ft2,28(sp)
900000ea:	656d                	lui	a0,0x1b
900000ec:	6574                	flw	fa3,76(a0)
900000ee:	7372                	flw	ft6,60(sp)
900000f0:	6620                	flw	fs0,72(a2)
900000f2:	6320726f          	jal	tp,90007724 <__global_pointer$+0x62d4>
900000f6:	6d65726f          	jal	tp,900577cc <_sp+0x477cc>
900000fa:	7261                	lui	tp,0xffff8
900000fc:	00002e6b          	0x2e6b
90000100:	5d75255b          	0x5d75255b
90000104:	5245                	li	tp,-15
90000106:	4f52                	lw	t5,20(sp)
90000108:	2152                	fld	ft2,272(sp)
9000010a:	6c20                	flw	fs0,88(s0)
9000010c:	7369                	lui	t1,0xffffa
9000010e:	2074                	fld	fa3,192(s0)
90000110:	20637263          	bgeu	t1,t1,90000314 <list_known_crc+0x314>
90000114:	7830                	flw	fa2,112(s0)
90000116:	3025                	jal	8ffff93e <__fini_array_end+0xfff6802>
90000118:	7834                	flw	fa3,112(s0)
9000011a:	2d20                	fld	fs0,88(a0)
9000011c:	7320                	flw	fs0,96(a4)
9000011e:	6f68                	flw	fa0,92(a4)
90000120:	6c75                	lui	s8,0x1d
90000122:	2064                	fld	fs1,192(s0)
90000124:	6562                	flw	fa0,24(sp)
90000126:	3020                	fld	fs0,96(s0)
90000128:	2578                	fld	fa4,200(a0)
9000012a:	3430                	fld	fa2,104(s0)
9000012c:	0a78                	addi	a4,sp,284
9000012e:	0000                	unimp
90000130:	5d75255b          	0x5d75255b
90000134:	5245                	li	tp,-15
90000136:	4f52                	lw	t5,20(sp)
90000138:	2152                	fld	ft2,272(sp)
9000013a:	6d20                	flw	fs0,88(a0)
9000013c:	7461                	lui	s0,0xffff8
9000013e:	6972                	flw	fs2,28(sp)
90000140:	2078                	fld	fa4,192(s0)
90000142:	20637263          	bgeu	t1,t1,90000346 <list_known_crc+0x346>
90000146:	7830                	flw	fa2,112(s0)
90000148:	3025                	jal	8ffff970 <__fini_array_end+0xfff6834>
9000014a:	7834                	flw	fa3,112(s0)
9000014c:	2d20                	fld	fs0,88(a0)
9000014e:	7320                	flw	fs0,96(a4)
90000150:	6f68                	flw	fa0,92(a4)
90000152:	6c75                	lui	s8,0x1d
90000154:	2064                	fld	fs1,192(s0)
90000156:	6562                	flw	fa0,24(sp)
90000158:	3020                	fld	fs0,96(s0)
9000015a:	2578                	fld	fa4,200(a0)
9000015c:	3430                	fld	fa2,104(s0)
9000015e:	0a78                	addi	a4,sp,284
90000160:	0000                	unimp
90000162:	0000                	unimp
90000164:	5d75255b          	0x5d75255b
90000168:	5245                	li	tp,-15
9000016a:	4f52                	lw	t5,20(sp)
9000016c:	2152                	fld	ft2,272(sp)
9000016e:	7320                	flw	fs0,96(a4)
90000170:	6174                	flw	fa3,68(a0)
90000172:	6574                	flw	fa3,76(a0)
90000174:	6320                	flw	fs0,64(a4)
90000176:	6372                	flw	ft6,28(sp)
90000178:	3020                	fld	fs0,96(s0)
9000017a:	2578                	fld	fa4,200(a0)
9000017c:	3430                	fld	fa2,104(s0)
9000017e:	2078                	fld	fa4,192(s0)
90000180:	202d                	jal	900001aa <list_known_crc+0x1aa>
90000182:	756f6873          	csrrsi	a6,0x756,30
90000186:	646c                	flw	fa1,76(s0)
90000188:	6220                	flw	fs0,64(a2)
9000018a:	2065                	jal	90000232 <list_known_crc+0x232>
9000018c:	7830                	flw	fa2,112(s0)
9000018e:	3025                	jal	8ffff9b6 <__fini_array_end+0xfff687a>
90000190:	7834                	flw	fa3,112(s0)
90000192:	000a                	c.slli	zero,0x2
90000194:	65726f43          	0x65726f43
90000198:	614d                	addi	sp,sp,176
9000019a:	6b72                	flw	fs6,28(sp)
9000019c:	5320                	lw	s0,96(a4)
9000019e:	7a69                	lui	s4,0xffffa
900001a0:	2065                	jal	90000248 <list_known_crc+0x248>
900001a2:	2020                	fld	fs0,64(s0)
900001a4:	3a20                	fld	fs0,112(a2)
900001a6:	2520                	fld	fs0,72(a0)
900001a8:	756c                	flw	fa1,108(a0)
900001aa:	000a                	c.slli	zero,0x2
900001ac:	6f54                	flw	fa3,28(a4)
900001ae:	6174                	flw	fa3,68(a0)
900001b0:	206c                	fld	fa1,192(s0)
900001b2:	6974                	flw	fa3,84(a0)
900001b4:	20736b63          	bltu	t1,t2,900003ca <list_known_crc+0x3ca>
900001b8:	2020                	fld	fs0,64(s0)
900001ba:	2020                	fld	fs0,64(s0)
900001bc:	3a20                	fld	fs0,112(a2)
900001be:	2520                	fld	fs0,72(a0)
900001c0:	756c                	flw	fa1,108(a0)
900001c2:	000a                	c.slli	zero,0x2
900001c4:	6f54                	flw	fa3,28(a4)
900001c6:	6174                	flw	fa3,68(a0)
900001c8:	206c                	fld	fa1,192(s0)
900001ca:	6974                	flw	fa3,84(a0)
900001cc:	656d                	lui	a0,0x1b
900001ce:	2820                	fld	fs0,80(s0)
900001d0:	73636573          	csrrsi	a0,0x736,6
900001d4:	3a29                	jal	8ffffaee <__fini_array_end+0xfff69b2>
900001d6:	2520                	fld	fs0,72(a0)
900001d8:	0a66                	slli	s4,s4,0x19
900001da:	0000                	unimp
900001dc:	7449                	lui	s0,0xffff2
900001de:	7265                	lui	tp,0xffff9
900001e0:	7461                	lui	s0,0xffff8
900001e2:	6f69                	lui	t5,0x1a
900001e4:	736e                	flw	ft6,248(sp)
900001e6:	6365532f          	0x6365532f
900001ea:	2020                	fld	fs0,64(s0)
900001ec:	3a20                	fld	fs0,112(a2)
900001ee:	2520                	fld	fs0,72(a0)
900001f0:	0a66                	slli	s4,s4,0x19
900001f2:	0000                	unimp
900001f4:	5245                	li	tp,-15
900001f6:	4f52                	lw	t5,20(sp)
900001f8:	2152                	fld	ft2,272(sp)
900001fa:	4d20                	lw	s0,88(a0)
900001fc:	7375                	lui	t1,0xffffd
900001fe:	2074                	fld	fa3,192(s0)
90000200:	7865                	lui	a6,0xffff9
90000202:	6365                	lui	t1,0x19
90000204:	7475                	lui	s0,0xffffd
90000206:	2065                	jal	900002ae <list_known_crc+0x2ae>
90000208:	6f66                	flw	ft10,88(sp)
9000020a:	2072                	fld	ft0,280(sp)
9000020c:	7461                	lui	s0,0xffff8
9000020e:	6c20                	flw	fs0,88(s0)
90000210:	6165                	addi	sp,sp,112
90000212:	31207473          	csrrci	s0,0x312,0
90000216:	2030                	fld	fa2,64(s0)
90000218:	73636573          	csrrsi	a0,0x736,6
9000021c:	6620                	flw	fs0,72(a2)
9000021e:	6120726f          	jal	tp,90007830 <__global_pointer$+0x63e0>
90000222:	7620                	flw	fs0,104(a2)
90000224:	6c61                	lui	s8,0x18
90000226:	6469                	lui	s0,0x1a
90000228:	7220                	flw	fs0,96(a2)
9000022a:	7365                	lui	t1,0xffff9
9000022c:	6c75                	lui	s8,0x1d
9000022e:	2174                	fld	fa3,192(a0)
90000230:	0000                	unimp
90000232:	0000                	unimp
90000234:	72726f43          	fmadd.d	ft10,ft4,ft7,fa4,unknown
90000238:	6365                	lui	t1,0x19
9000023a:	2074                	fld	fa3,192(s0)
9000023c:	7265706f          	j	90057962 <_sp+0x47962>
90000240:	7461                	lui	s0,0xffff8
90000242:	6f69                	lui	t5,0x1a
90000244:	206e                	fld	ft0,216(sp)
90000246:	6176                	flw	ft2,92(sp)
90000248:	696c                	flw	fa1,84(a0)
9000024a:	6164                	flw	fs1,68(a0)
9000024c:	6574                	flw	fa3,76(a0)
9000024e:	2e64                	fld	fs1,216(a2)
90000250:	5320                	lw	s0,96(a4)
90000252:	6565                	lui	a0,0x19
90000254:	5220                	lw	s0,96(a2)
90000256:	4145                	li	sp,17
90000258:	4d44                	lw	s1,28(a0)
9000025a:	2e45                	jal	9000060a <scipat+0x132>
9000025c:	646d                	lui	s0,0x1b
9000025e:	6620                	flw	fs0,72(a2)
90000260:	7220726f          	jal	tp,90007982 <__global_pointer$+0x6532>
90000264:	6e75                	lui	t3,0x1d
90000266:	6120                	flw	fs0,64(a0)
90000268:	646e                	flw	fs0,216(sp)
9000026a:	7220                	flw	fs0,96(a2)
9000026c:	7065                	c.lui	zero,0xffff9
9000026e:	6974726f          	jal	tp,90048104 <_sp+0x38104>
90000272:	676e                	flw	fa4,216(sp)
90000274:	7220                	flw	fs0,96(a2)
90000276:	6c75                	lui	s8,0x1d
90000278:	7365                	lui	t1,0xffff9
9000027a:	002e                	c.slli	zero,0xb
9000027c:	4f2d                	li	t5,11
9000027e:	2032                	fld	ft0,264(sp)
90000280:	662d                	lui	a2,0xb
90000282:	6f6e                	flw	ft10,216(sp)
90000284:	632d                	lui	t1,0xb
90000286:	6f6d6d6f          	jal	s10,900d697c <_sp+0xc697c>
9000028a:	206e                	fld	ft0,216(sp)
9000028c:	662d                	lui	a2,0xb
9000028e:	6e75                	lui	t3,0x1d
90000290:	6f72                	flw	ft10,28(sp)
90000292:	6c6c                	flw	fa1,92(s0)
90000294:	6c2d                	lui	s8,0xb
90000296:	73706f6f          	jal	t5,900071cc <__global_pointer$+0x5d7c>
9000029a:	2d20                	fld	fs0,88(a0)
9000029c:	6966                	flw	fs2,88(sp)
9000029e:	6c6e                	flw	fs8,216(sp)
900002a0:	6e69                	lui	t3,0x1a
900002a2:	2d65                	jal	9000095a <_ctype_+0x1e>
900002a4:	7566                	flw	fa0,120(sp)
900002a6:	636e                	flw	ft6,216(sp)
900002a8:	6974                	flw	fa3,84(a0)
900002aa:	20736e6f          	jal	t3,90036cb0 <_sp+0x26cb0>
900002ae:	662d                	lui	a2,0xb
900002b0:	6c61                	lui	s8,0x18
900002b2:	6769                	lui	a4,0x1a
900002b4:	2d6e                	fld	fs10,216(sp)
900002b6:	7566                	flw	fa0,120(sp)
900002b8:	636e                	flw	ft6,216(sp)
900002ba:	6974                	flw	fa3,84(a0)
900002bc:	3d736e6f          	jal	t3,90036e92 <_sp+0x26e92>
900002c0:	2034                	fld	fa3,64(s0)
900002c2:	662d                	lui	a2,0xb
900002c4:	6c61                	lui	s8,0x18
900002c6:	6769                	lui	a4,0x1a
900002c8:	2d6e                	fld	fs10,216(sp)
900002ca:	756a                	flw	fa0,184(sp)
900002cc:	706d                	c.lui	zero,0xffffb
900002ce:	20343d73          	csrrc	s10,hideleg,s0
900002d2:	662d                	lui	a2,0xb
900002d4:	6c61                	lui	s8,0x18
900002d6:	6769                	lui	a4,0x1a
900002d8:	2d6e                	fld	fs10,216(sp)
900002da:	6f6c                	flw	fa1,92(a4)
900002dc:	3d73706f          	j	90037eb2 <_sp+0x27eb2>
900002e0:	0034                	addi	a3,sp,8
900002e2:	0000                	unimp
900002e4:	38434347          	fmsub.s	ft6,ft6,ft4,ft7,rmm
900002e8:	332e                	fld	ft6,232(sp)
900002ea:	302e                	fld	ft0,232(sp)
900002ec:	0000                	unimp
900002ee:	0000                	unimp
900002f0:	65726f43          	0x65726f43
900002f4:	614d                	addi	sp,sp,176
900002f6:	6b72                	flw	fs6,28(sp)
900002f8:	3120                	fld	fs0,96(a0)
900002fa:	302e                	fld	ft0,232(sp)
900002fc:	3a20                	fld	fs0,112(a2)
900002fe:	2520                	fld	fs0,72(a0)
90000300:	2066                	fld	ft0,88(sp)
90000302:	7325202f          	0x7325202f
90000306:	2520                	fld	fs0,72(a0)
90000308:	00000073          	ecall
9000030c:	43415453          	0x43415453
90000310:	0000004b          	fnmsub.s	ft0,ft0,ft0,ft0,rne
90000314:	2f20                	fld	fs0,88(a4)
90000316:	2520                	fld	fs0,72(a0)
90000318:	00000073          	ecall
9000031c:	7245                	lui	tp,0xffff1
9000031e:	6f72                	flw	ft10,28(sp)
90000320:	7372                	flw	ft6,60(sp)
90000322:	6420                	flw	fs0,72(s0)
90000324:	7465                	lui	s0,0xffff9
90000326:	6365                	lui	t1,0x19
90000328:	6574                	flw	fa3,76(a0)
9000032a:	0064                	addi	s1,sp,12
9000032c:	6e6e6143          	fmadd.q	ft2,ft8,ft6,fa3,unknown
90000330:	7620746f          	jal	s0,90007a92 <__global_pointer$+0x6642>
90000334:	6c61                	lui	s8,0x18
90000336:	6469                	lui	s0,0x1a
90000338:	7461                	lui	s0,0xffff8
9000033a:	2065                	jal	900003e2 <list_known_crc+0x3e2>
9000033c:	7265706f          	j	90057a62 <_sp+0x47a62>
90000340:	7461                	lui	s0,0xffff8
90000342:	6f69                	lui	t5,0x1a
90000344:	206e                	fld	ft0,216(sp)
90000346:	6f66                	flw	ft10,88(sp)
90000348:	2072                	fld	ft0,280(sp)
9000034a:	6874                	flw	fa3,84(s0)
9000034c:	7365                	lui	t1,0xffff9
9000034e:	2065                	jal	900003f6 <list_known_crc+0x3f6>
90000350:	64656573          	csrrsi	a0,0x646,10
90000354:	7620                	flw	fs0,104(a2)
90000356:	6c61                	lui	s8,0x18
90000358:	6575                	lui	a0,0x1d
9000035a:	70202c73          	csrr	s8,0x702
9000035e:	656c                	flw	fa1,76(a0)
90000360:	7361                	lui	t1,0xffff8
90000362:	2065                	jal	9000040a <list_known_crc+0x40a>
90000364:	706d6f63          	bltu	s10,t1,90000a82 <impure_data+0x2>
90000368:	7261                	lui	tp,0xffff8
9000036a:	2065                	jal	90000412 <list_known_crc+0x412>
9000036c:	68746977          	0x68746977
90000370:	7220                	flw	fs0,96(a2)
90000372:	7365                	lui	t1,0xffff9
90000374:	6c75                	lui	s8,0x1d
90000376:	7374                	flw	fa3,100(a4)
90000378:	6f20                	flw	fs0,88(a4)
9000037a:	206e                	fld	ft0,216(sp)
9000037c:	2061                	jal	90000404 <list_known_crc+0x404>
9000037e:	776f6e6b          	0x776f6e6b
90000382:	206e                	fld	ft0,216(sp)
90000384:	6c70                	flw	fa2,92(s0)
90000386:	7461                	lui	s0,0xffff8
90000388:	6f66                	flw	ft10,88(sp)
9000038a:	6d72                	flw	fs10,28(sp)
9000038c:	002e                	c.slli	zero,0xb
9000038e:	0000                	unimp
90000390:	5d64255b          	0x5d64255b
90000394:	66637263          	bgeu	t1,t1,900009f8 <_ctype_+0xbc>
90000398:	6e69                	lui	t3,0x1a
9000039a:	6c61                	lui	s8,0x18
9000039c:	2020                	fld	fs0,64(s0)
9000039e:	2020                	fld	fs0,64(s0)
900003a0:	2020                	fld	fs0,64(s0)
900003a2:	203a                	fld	ft0,392(sp)
900003a4:	7830                	flw	fa2,112(s0)
900003a6:	3025                	jal	8ffffbce <__fini_array_end+0xfff6a92>
900003a8:	7834                	flw	fa3,112(s0)
900003aa:	000a                	c.slli	zero,0x2
900003ac:	5d64255b          	0x5d64255b
900003b0:	73637263          	bgeu	t1,s6,90000ad4 <impure_data+0x54>
900003b4:	6174                	flw	fa3,68(a0)
900003b6:	6574                	flw	fa3,76(a0)
900003b8:	2020                	fld	fs0,64(s0)
900003ba:	2020                	fld	fs0,64(s0)
900003bc:	2020                	fld	fs0,64(s0)
900003be:	203a                	fld	ft0,392(sp)
900003c0:	7830                	flw	fa2,112(s0)
900003c2:	3025                	jal	8ffffbea <__fini_array_end+0xfff6aae>
900003c4:	7834                	flw	fa3,112(s0)
900003c6:	000a                	c.slli	zero,0x2
900003c8:	5d64255b          	0x5d64255b
900003cc:	6d637263          	bgeu	t1,s6,90000a90 <impure_data+0x10>
900003d0:	7461                	lui	s0,0xffff8
900003d2:	6972                	flw	fs2,28(sp)
900003d4:	2078                	fld	fa4,192(s0)
900003d6:	2020                	fld	fs0,64(s0)
900003d8:	2020                	fld	fs0,64(s0)
900003da:	203a                	fld	ft0,392(sp)
900003dc:	7830                	flw	fa2,112(s0)
900003de:	3025                	jal	8ffffc06 <__fini_array_end+0xfff6aca>
900003e0:	7834                	flw	fa3,112(s0)
900003e2:	000a                	c.slli	zero,0x2
900003e4:	5d64255b          	0x5d64255b
900003e8:	6c637263          	bgeu	t1,t1,90000aac <impure_data+0x2c>
900003ec:	7369                	lui	t1,0xffffa
900003ee:	2074                	fld	fa3,192(s0)
900003f0:	2020                	fld	fs0,64(s0)
900003f2:	2020                	fld	fs0,64(s0)
900003f4:	2020                	fld	fs0,64(s0)
900003f6:	203a                	fld	ft0,392(sp)
900003f8:	7830                	flw	fa2,112(s0)
900003fa:	3025                	jal	8ffffc22 <__fini_array_end+0xfff6ae6>
900003fc:	7834                	flw	fa3,112(s0)
900003fe:	000a                	c.slli	zero,0x2
90000400:	7449                	lui	s0,0xffff2
90000402:	7265                	lui	tp,0xffff9
90000404:	7461                	lui	s0,0xffff8
90000406:	6f69                	lui	t5,0x1a
90000408:	736e                	flw	ft6,248(sp)
9000040a:	2020                	fld	fs0,64(s0)
9000040c:	2020                	fld	fs0,64(s0)
9000040e:	2020                	fld	fs0,64(s0)
90000410:	3a20                	fld	fs0,112(a2)
90000412:	2520                	fld	fs0,72(a0)
90000414:	756c                	flw	fa1,108(a0)
90000416:	000a                	c.slli	zero,0x2
90000418:	706d6f43          	fmadd.s	ft10,fs10,ft6,fa4,unknown
9000041c:	6c69                	lui	s8,0x1a
9000041e:	7265                	lui	tp,0xffff9
90000420:	7620                	flw	fs0,104(a2)
90000422:	7265                	lui	tp,0xffff9
90000424:	6e6f6973          	csrrsi	s2,0x6e6,30
90000428:	3a20                	fld	fs0,112(a2)
9000042a:	2520                	fld	fs0,72(a0)
9000042c:	00000a73          	0xa73
90000430:	706d6f43          	fmadd.s	ft10,fs10,ft6,fa4,unknown
90000434:	6c69                	lui	s8,0x1a
90000436:	7265                	lui	tp,0xffff9
90000438:	6620                	flw	fs0,72(a2)
9000043a:	616c                	flw	fa1,68(a0)
9000043c:	20207367          	0x20207367
90000440:	3a20                	fld	fs0,112(a2)
90000442:	2520                	fld	fs0,72(a0)
90000444:	00000a73          	0xa73
90000448:	654d                	lui	a0,0x13
9000044a:	6f6d                	lui	t5,0x1b
9000044c:	7972                	flw	fs2,60(sp)
9000044e:	6c20                	flw	fs0,88(s0)
90000450:	7461636f          	jal	t1,90016b96 <_sp+0x6b96>
90000454:	6f69                	lui	t5,0x1a
90000456:	206e                	fld	ft0,216(sp)
90000458:	3a20                	fld	fs0,112(a2)
9000045a:	2520                	fld	fs0,72(a0)
9000045c:	00000a73          	0xa73
90000460:	64656573          	csrrsi	a0,0x646,10
90000464:	20637263          	bgeu	t1,t1,90000668 <__clz_tab+0x38>
90000468:	2020                	fld	fs0,64(s0)
9000046a:	2020                	fld	fs0,64(s0)
9000046c:	2020                	fld	fs0,64(s0)
9000046e:	2020                	fld	fs0,64(s0)
90000470:	3a20                	fld	fs0,112(a2)
90000472:	3020                	fld	fs0,96(s0)
90000474:	2578                	fld	fa4,200(a0)
90000476:	3430                	fld	fa2,104(s0)
90000478:	0a78                	addi	a4,sp,284
	...

9000047c <matrix_known_crc>:
9000047c:	be52                	fsd	fs4,312(sp)
9000047e:	1199                	addi	gp,gp,-26
90000480:	5608                	lw	a0,40(a2)
90000482:	07471fd7          	0x7471fd7
	...

90000488 <state_known_crc>:
90000488:	39bf5e47          	fmsub.s	ft8,ft10,fs11,ft7,unknown
9000048c:	e5a4                	fsw	fs1,72(a1)
9000048e:	8e3a                	mv	t3,a4
90000490:	8d84                	0x8d84
90000492:	0000                	unimp
90000494:	2f68                	fld	fa0,216(a4)
90000496:	8000                	0x8000
90000498:	2f68                	fld	fa0,216(a4)
9000049a:	8000                	0x8000
9000049c:	3018                	fld	fa4,32(s0)
9000049e:	8000                	0x8000
900004a0:	3018                	fld	fa4,32(s0)
900004a2:	8000                	0x8000
900004a4:	3024                	fld	fs1,96(s0)
900004a6:	8000                	0x8000

900004a8 <errpat>:
900004a8:	04e8                	addi	a0,sp,588
900004aa:	9000                	0x9000
900004ac:	04f4                	addi	a3,sp,588
900004ae:	9000                	0x9000
900004b0:	0500                	addi	s0,sp,640
900004b2:	9000                	0x9000
900004b4:	050c                	addi	a1,sp,640
900004b6:	9000                	0x9000

900004b8 <floatpat>:
900004b8:	0548                	addi	a0,sp,644
900004ba:	9000                	0x9000
900004bc:	0554                	addi	a3,sp,644
900004be:	9000                	0x9000
900004c0:	0560                	addi	s0,sp,652
900004c2:	9000                	0x9000
900004c4:	056c                	addi	a1,sp,652
900004c6:	9000                	0x9000

900004c8 <intpat>:
900004c8:	0578                	addi	a4,sp,652
900004ca:	9000                	0x9000
900004cc:	0580                	addi	s0,sp,704
900004ce:	9000                	0x9000
900004d0:	0588                	addi	a0,sp,704
900004d2:	9000                	0x9000
900004d4:	0590                	addi	a2,sp,704
900004d6:	9000                	0x9000

900004d8 <scipat>:
900004d8:	0518                	addi	a4,sp,640
900004da:	9000                	0x9000
900004dc:	0524                	addi	s1,sp,648
900004de:	9000                	0x9000
900004e0:	0530                	addi	a2,sp,648
900004e2:	9000                	0x9000
900004e4:	053c                	addi	a5,sp,648
900004e6:	9000                	0x9000
900004e8:	3054                	fld	fa3,160(s0)
900004ea:	332e                	fld	ft6,232(sp)
900004ec:	2d65                	jal	90000ba4 <__global_locale+0xc4>
900004ee:	4631                	li	a2,12
900004f0:	0000                	unimp
900004f2:	0000                	unimp
900004f4:	542d                	li	s0,-21
900004f6:	542e                	lw	s0,232(sp)
900004f8:	71542b2b          	0x71542b2b
900004fc:	0000                	unimp
900004fe:	0000                	unimp
90000500:	5431                	li	s0,-20
90000502:	65342e33          	0x65342e33
90000506:	7a34                	flw	fa3,112(a2)
90000508:	0000                	unimp
9000050a:	0000                	unimp
9000050c:	302e3433          	0x302e3433
90000510:	2d65                	jal	90000bc8 <__global_locale+0xe8>
90000512:	5e54                	lw	a3,60(a2)
90000514:	0000                	unimp
90000516:	0000                	unimp
90000518:	2e35                	jal	90000854 <__mprec_tens+0xc>
9000051a:	3035                	jal	8ffffd46 <__fini_array_end+0xfff6c0a>
9000051c:	6530                	flw	fa2,72(a0)
9000051e:	0000332b          	0x332b
90000522:	0000                	unimp
90000524:	2e2d                	jal	9000085e <__mprec_tens+0x16>
90000526:	3231                	jal	8ffffe32 <__fini_array_end+0xfff6cf6>
90000528:	322d6533          	0x322d6533
9000052c:	0000                	unimp
9000052e:	0000                	unimp
90000530:	382d                	jal	8ffffd6a <__fini_array_end+0xfff6c2e>
90000532:	382b6537          	lui	a0,0x382b6
90000536:	00003233          	snez	tp,zero
9000053a:	0000                	unimp
9000053c:	362e302b          	0x362e302b
90000540:	2d65                	jal	90000bf8 <__global_locale+0x118>
90000542:	3231                	jal	8ffffe4e <__fini_array_end+0xfff6d12>
90000544:	0000                	unimp
90000546:	0000                	unimp
90000548:	352e3533          	0x352e3533
9000054c:	3434                	fld	fa3,104(s0)
9000054e:	3030                	fld	fa2,96(s0)
90000550:	0000                	unimp
90000552:	0000                	unimp
90000554:	312e                	fld	ft2,232(sp)
90000556:	3332                	fld	ft6,296(sp)
90000558:	3534                	fld	fa3,104(a0)
9000055a:	3030                	fld	fa2,96(s0)
9000055c:	0000                	unimp
9000055e:	0000                	unimp
90000560:	312d                	jal	9000018a <list_known_crc+0x18a>
90000562:	3031                	jal	8ffffd6e <__fini_array_end+0xfff6c32>
90000564:	372e                	fld	fa4,232(sp)
90000566:	3030                	fld	fa2,96(s0)
90000568:	0000                	unimp
9000056a:	0000                	unimp
9000056c:	362e302b          	0x362e302b
90000570:	3434                	fld	fa3,104(s0)
90000572:	3030                	fld	fa2,96(s0)
90000574:	0000                	unimp
90000576:	0000                	unimp
90000578:	3035                	jal	8ffffda4 <__fini_array_end+0xfff6c68>
9000057a:	3231                	jal	8ffffe86 <__fini_array_end+0xfff6d4a>
9000057c:	0000                	unimp
9000057e:	0000                	unimp
90000580:	3231                	jal	8ffffe8c <__fini_array_end+0xfff6d50>
90000582:	00003433          	snez	s0,zero
90000586:	0000                	unimp
90000588:	382d                	jal	8ffffdc2 <__fini_array_end+0xfff6c86>
9000058a:	00003437          	lui	s0,0x3
9000058e:	0000                	unimp
90000590:	3232312b          	0x3232312b
90000594:	0000                	unimp
90000596:	0000                	unimp
90000598:	34e4                	fld	fs1,232(s1)
9000059a:	8000                	0x8000
9000059c:	34bc                	fld	fa5,104(s1)
9000059e:	8000                	0x8000
900005a0:	34c4                	fld	fs1,168(s1)
900005a2:	8000                	0x8000
900005a4:	34cc                	fld	fa1,168(s1)
900005a6:	8000                	0x8000
900005a8:	34d8                	fld	fa4,168(s1)
900005aa:	8000                	0x8000
900005ac:	34b4                	fld	fa3,104(s1)
900005ae:	8000                	0x8000
900005b0:	65726f43          	0x65726f43
900005b4:	6620                	flw	fs0,72(a2)
900005b6:	6572                	flw	fa0,28(sp)
900005b8:	2071                	jal	90000644 <__clz_tab+0x14>
900005ba:	7461                	lui	s0,0xffff8
900005bc:	2520                	fld	fs0,72(a0)
900005be:	2064                	fld	fs1,192(s0)
900005c0:	7a48                	flw	fa0,52(a2)
900005c2:	000a                	c.slli	zero,0x2
900005c4:	7274                	flw	fa3,100(a2)
900005c6:	7061                	c.lui	zero,0xffff8
900005c8:	000a                	c.slli	zero,0x2
900005ca:	0000                	unimp
900005cc:	500a                	0x500a
900005ce:	6f72                	flw	ft10,28(sp)
900005d0:	6d617267          	0x6d617267
900005d4:	6820                	flw	fs0,80(s0)
900005d6:	7361                	lui	t1,0xffff8
900005d8:	6520                	flw	fs0,72(a0)
900005da:	6978                	flw	fa4,84(a0)
900005dc:	6574                	flw	fa3,76(a0)
900005de:	2064                	fld	fs1,192(s0)
900005e0:	68746977          	0x68746977
900005e4:	6320                	flw	fs0,64(a4)
900005e6:	3a65646f          	jal	s0,9005698c <_sp+0x4698c>
900005ea:	0000                	unimp
900005ec:	7830                	flw	fa2,112(s0)
900005ee:	0000                	unimp
900005f0:	3e64                	fld	fs1,248(a2)
900005f2:	f000                	fsw	fs0,32(s0)
900005f4:	3cee                	fld	fs9,248(sp)
900005f6:	f000                	fsw	fs0,32(s0)
900005f8:	3dfa                	fld	fs11,440(sp)
900005fa:	f000                	fsw	fs0,32(s0)
900005fc:	3e02                	fld	ft8,32(sp)
900005fe:	f000                	fsw	fs0,32(s0)
90000600:	3dfa                	fld	fs11,440(sp)
90000602:	f000                	fsw	fs0,32(s0)
90000604:	3d1c                	fld	fa5,56(a0)
90000606:	f000                	fsw	fs0,32(s0)
90000608:	3dfa                	fld	fs11,440(sp)
9000060a:	f000                	fsw	fs0,32(s0)
9000060c:	3e02                	fld	ft8,32(sp)
9000060e:	f000                	fsw	fs0,32(s0)
90000610:	3cee                	fld	fs9,248(sp)
90000612:	f000                	fsw	fs0,32(s0)
90000614:	3cee                	fld	fs9,248(sp)
90000616:	f000                	fsw	fs0,32(s0)
90000618:	3d1c                	fld	fa5,56(a0)
9000061a:	f000                	fsw	fs0,32(s0)
9000061c:	3e02                	fld	ft8,32(sp)
9000061e:	f000                	fsw	fs0,32(s0)
90000620:	3e5a                	fld	ft8,432(sp)
90000622:	f000                	fsw	fs0,32(s0)
90000624:	3e5a                	fld	ft8,432(sp)
90000626:	f000                	fsw	fs0,32(s0)
90000628:	3e5a                	fld	ft8,432(sp)
9000062a:	f000                	fsw	fs0,32(s0)
9000062c:	3d1c                	fld	fa5,56(a0)
9000062e:	f000                	fsw	fs0,32(s0)

90000630 <__clz_tab>:
90000630:	0100                	addi	s0,sp,128
90000632:	0202                	c.slli64	tp
90000634:	03030303          	lb	t1,48(t1) # ffff8030 <_sp+0x6ffe8030>
90000638:	0404                	addi	s1,sp,512
9000063a:	0404                	addi	s1,sp,512
9000063c:	0404                	addi	s1,sp,512
9000063e:	0404                	addi	s1,sp,512
90000640:	0505                	addi	a0,a0,1
90000642:	0505                	addi	a0,a0,1
90000644:	0505                	addi	a0,a0,1
90000646:	0505                	addi	a0,a0,1
90000648:	0505                	addi	a0,a0,1
9000064a:	0505                	addi	a0,a0,1
9000064c:	0505                	addi	a0,a0,1
9000064e:	0505                	addi	a0,a0,1
90000650:	0606                	slli	a2,a2,0x1
90000652:	0606                	slli	a2,a2,0x1
90000654:	0606                	slli	a2,a2,0x1
90000656:	0606                	slli	a2,a2,0x1
90000658:	0606                	slli	a2,a2,0x1
9000065a:	0606                	slli	a2,a2,0x1
9000065c:	0606                	slli	a2,a2,0x1
9000065e:	0606                	slli	a2,a2,0x1
90000660:	0606                	slli	a2,a2,0x1
90000662:	0606                	slli	a2,a2,0x1
90000664:	0606                	slli	a2,a2,0x1
90000666:	0606                	slli	a2,a2,0x1
90000668:	0606                	slli	a2,a2,0x1
9000066a:	0606                	slli	a2,a2,0x1
9000066c:	0606                	slli	a2,a2,0x1
9000066e:	0606                	slli	a2,a2,0x1
90000670:	07070707          	0x7070707
90000674:	07070707          	0x7070707
90000678:	07070707          	0x7070707
9000067c:	07070707          	0x7070707
90000680:	07070707          	0x7070707
90000684:	07070707          	0x7070707
90000688:	07070707          	0x7070707
9000068c:	07070707          	0x7070707
90000690:	07070707          	0x7070707
90000694:	07070707          	0x7070707
90000698:	07070707          	0x7070707
9000069c:	07070707          	0x7070707
900006a0:	07070707          	0x7070707
900006a4:	07070707          	0x7070707
900006a8:	07070707          	0x7070707
900006ac:	07070707          	0x7070707
900006b0:	0808                	addi	a0,sp,16
900006b2:	0808                	addi	a0,sp,16
900006b4:	0808                	addi	a0,sp,16
900006b6:	0808                	addi	a0,sp,16
900006b8:	0808                	addi	a0,sp,16
900006ba:	0808                	addi	a0,sp,16
900006bc:	0808                	addi	a0,sp,16
900006be:	0808                	addi	a0,sp,16
900006c0:	0808                	addi	a0,sp,16
900006c2:	0808                	addi	a0,sp,16
900006c4:	0808                	addi	a0,sp,16
900006c6:	0808                	addi	a0,sp,16
900006c8:	0808                	addi	a0,sp,16
900006ca:	0808                	addi	a0,sp,16
900006cc:	0808                	addi	a0,sp,16
900006ce:	0808                	addi	a0,sp,16
900006d0:	0808                	addi	a0,sp,16
900006d2:	0808                	addi	a0,sp,16
900006d4:	0808                	addi	a0,sp,16
900006d6:	0808                	addi	a0,sp,16
900006d8:	0808                	addi	a0,sp,16
900006da:	0808                	addi	a0,sp,16
900006dc:	0808                	addi	a0,sp,16
900006de:	0808                	addi	a0,sp,16
900006e0:	0808                	addi	a0,sp,16
900006e2:	0808                	addi	a0,sp,16
900006e4:	0808                	addi	a0,sp,16
900006e6:	0808                	addi	a0,sp,16
900006e8:	0808                	addi	a0,sp,16
900006ea:	0808                	addi	a0,sp,16
900006ec:	0808                	addi	a0,sp,16
900006ee:	0808                	addi	a0,sp,16
900006f0:	0808                	addi	a0,sp,16
900006f2:	0808                	addi	a0,sp,16
900006f4:	0808                	addi	a0,sp,16
900006f6:	0808                	addi	a0,sp,16
900006f8:	0808                	addi	a0,sp,16
900006fa:	0808                	addi	a0,sp,16
900006fc:	0808                	addi	a0,sp,16
900006fe:	0808                	addi	a0,sp,16
90000700:	0808                	addi	a0,sp,16
90000702:	0808                	addi	a0,sp,16
90000704:	0808                	addi	a0,sp,16
90000706:	0808                	addi	a0,sp,16
90000708:	0808                	addi	a0,sp,16
9000070a:	0808                	addi	a0,sp,16
9000070c:	0808                	addi	a0,sp,16
9000070e:	0808                	addi	a0,sp,16
90000710:	0808                	addi	a0,sp,16
90000712:	0808                	addi	a0,sp,16
90000714:	0808                	addi	a0,sp,16
90000716:	0808                	addi	a0,sp,16
90000718:	0808                	addi	a0,sp,16
9000071a:	0808                	addi	a0,sp,16
9000071c:	0808                	addi	a0,sp,16
9000071e:	0808                	addi	a0,sp,16
90000720:	0808                	addi	a0,sp,16
90000722:	0808                	addi	a0,sp,16
90000724:	0808                	addi	a0,sp,16
90000726:	0808                	addi	a0,sp,16
90000728:	0808                	addi	a0,sp,16
9000072a:	0808                	addi	a0,sp,16
9000072c:	0808                	addi	a0,sp,16
9000072e:	0808                	addi	a0,sp,16
90000730:	ffff                	0xffff
90000732:	ffff                	0xffff
90000734:	ffff                	0xffff
90000736:	4e497fef          	jal	t6,90097c1a <_sp+0x87c1a>
9000073a:	0046                	c.slli	zero,0x11
9000073c:	6e69                	lui	t3,0x1a
9000073e:	0066                	c.slli	zero,0x19
90000740:	414e                	lw	sp,208(sp)
90000742:	004e                	c.slli	zero,0x13
90000744:	616e                	flw	ft2,216(sp)
90000746:	006e                	c.slli	zero,0x1b
90000748:	0030                	addi	a2,sp,8
9000074a:	0000                	unimp
9000074c:	3130                	fld	fa2,96(a0)
9000074e:	3332                	fld	ft6,296(sp)
90000750:	3534                	fld	fa3,104(a0)
90000752:	3736                	fld	fa4,360(sp)
90000754:	3938                	fld	fa4,112(a0)
90000756:	4241                	li	tp,16
90000758:	46454443          	fmadd.q	fs0,fa0,ft4,fs0,rmm
9000075c:	0000                	unimp
9000075e:	0000                	unimp
90000760:	3130                	fld	fa2,96(a0)
90000762:	3332                	fld	ft6,296(sp)
90000764:	3534                	fld	fa3,104(a0)
90000766:	3736                	fld	fa4,360(sp)
90000768:	3938                	fld	fa4,112(a0)
9000076a:	6261                	lui	tp,0x18
9000076c:	66656463          	bltu	a0,t1,90000dd4 <_end+0xb4>
	...
9000077c:	0000                	unimp
9000077e:	3ff8                	fld	fa4,248(a5)
90000780:	4361                	li	t1,24
90000782:	87a7636f          	jal	t1,8ff767fc <__fini_array_end+0xff6d6c0>
90000786:	3fd2                	fld	ft11,304(sp)
90000788:	8b60c8b3          	0x8b60c8b3
9000078c:	8a28                	0x8a28
9000078e:	3fc6                	fld	ft11,112(sp)
90000790:	509f79fb          	0x509f79fb
90000794:	3fd34413          	xori	s0,t1,1021
90000798:	0000                	unimp
9000079a:	0000                	unimp
9000079c:	0000                	unimp
9000079e:	401c                	lw	a5,0(s0)
900007a0:	0000                	unimp
900007a2:	0000                	unimp
900007a4:	0000                	unimp
900007a6:	4014                	lw	a3,0(s0)
900007a8:	0000                	unimp
900007aa:	0000                	unimp
900007ac:	0000                	unimp
900007ae:	3fe0                	fld	fs0,248(a5)
900007b0:	6e49                	lui	t3,0x12
900007b2:	6966                	flw	fs2,88(sp)
900007b4:	696e                	flw	fs2,216(sp)
900007b6:	7974                	flw	fa3,116(a0)
900007b8:	0000                	unimp
900007ba:	0000                	unimp
900007bc:	614e                	flw	ft2,208(sp)
900007be:	004e                	c.slli	zero,0x13

900007c0 <__sf_fake_stderr>:
	...

900007e0 <__sf_fake_stdin>:
	...

90000800 <__sf_fake_stdout>:
	...

90000820 <__mprec_bigtens>:
90000820:	8000                	0x8000
90000822:	37e0                	fld	fs0,232(a5)
90000824:	c379                	beqz	a4,900008ea <__mprec_tens+0xa2>
90000826:	4341                	li	t1,16
90000828:	b5056e17          	auipc	t3,0xb5056
9000082c:	b8b5                	j	900000a8 <list_known_crc+0xa8>
9000082e:	f9f54693          	xori	a3,a0,-97
90000832:	4f03e93f 1d324d38 	0x1d324d384f03e93f
9000083a:	f930                	fsw	fa2,112(a0)
9000083c:	7748                	flw	fa0,44(a4)
9000083e:	5a82                	lw	s5,32(sp)
90000840:	bf3c                	fsd	fa5,120(a4)
90000842:	4fdd7f73          	csrrci	t5,0x4fd,26
90000846:	7515                	lui	a0,0xfffe5

90000848 <__mprec_tens>:
90000848:	0000                	unimp
9000084a:	0000                	unimp
9000084c:	0000                	unimp
9000084e:	3ff0                	fld	fa2,248(a5)
90000850:	0000                	unimp
90000852:	0000                	unimp
90000854:	0000                	unimp
90000856:	4024                	lw	s1,64(s0)
90000858:	0000                	unimp
9000085a:	0000                	unimp
9000085c:	0000                	unimp
9000085e:	4059                	c.li	zero,22
90000860:	0000                	unimp
90000862:	0000                	unimp
90000864:	4000                	lw	s0,0(s0)
90000866:	0000408f          	0x408f
9000086a:	0000                	unimp
9000086c:	8800                	0x8800
9000086e:	000040c3          	fmadd.s	ft1,ft0,ft0,ft0,rmm
90000872:	0000                	unimp
90000874:	6a00                	flw	fs0,16(a2)
90000876:	40f8                	lw	a4,68(s1)
90000878:	0000                	unimp
9000087a:	0000                	unimp
9000087c:	8480                	0x8480
9000087e:	412e                	lw	sp,200(sp)
90000880:	0000                	unimp
90000882:	0000                	unimp
90000884:	12d0                	addi	a2,sp,356
90000886:	00004163          	bltz	zero,90000888 <__mprec_tens+0x40>
9000088a:	0000                	unimp
9000088c:	d784                	sw	s1,40(a5)
9000088e:	00004197          	auipc	gp,0x4
90000892:	0000                	unimp
90000894:	cd65                	beqz	a0,9000098c <_ctype_+0x50>
90000896:	41cd                	li	gp,19
90000898:	0000                	unimp
9000089a:	2000                	fld	fs0,0(s0)
9000089c:	a05f 4202 0000      	0x4202a05f
900008a2:	e800                	fsw	fs0,16(s0)
900008a4:	4876                	lw	a6,92(sp)
900008a6:	00004237          	lui	tp,0x4
900008aa:	a200                	fsd	fs0,0(a2)
900008ac:	1a94                	addi	a3,sp,368
900008ae:	426d                	li	tp,27
900008b0:	0000                	unimp
900008b2:	e540                	fsw	fs0,12(a0)
900008b4:	309c                	fld	fa5,32(s1)
900008b6:	42a2                	lw	t0,8(sp)
900008b8:	0000                	unimp
900008ba:	1e90                	addi	a2,sp,880
900008bc:	bcc4                	fsd	fs1,184(s1)
900008be:	42d6                	lw	t0,84(sp)
900008c0:	0000                	unimp
900008c2:	2634                	fld	fa3,72(a2)
900008c4:	6bf5                	lui	s7,0x1d
900008c6:	430c                	lw	a1,0(a4)
900008c8:	8000                	0x8000
900008ca:	37e0                	fld	fs0,232(a5)
900008cc:	c379                	beqz	a4,90000992 <_ctype_+0x56>
900008ce:	4341                	li	t1,16
900008d0:	a000                	fsd	fs0,0(s0)
900008d2:	85d8                	0x85d8
900008d4:	43763457          	0x43763457
900008d8:	c800                	sw	s0,16(s0)
900008da:	674e                	flw	fa4,208(sp)
900008dc:	c16d                	beqz	a0,900009be <_ctype_+0x82>
900008de:	3d0043ab          	0x3d0043ab
900008e2:	6091                	lui	ra,0x4
900008e4:	58e4                	lw	s1,116(s1)
900008e6:	43e1                	li	t2,24
900008e8:	8c40                	0x8c40
900008ea:	78b5                	lui	a7,0xfffed
900008ec:	af1d                	j	90001022 <_end+0x302>
900008ee:	4415                	li	s0,5
900008f0:	ef50                	fsw	fa2,28(a4)
900008f2:	d6e2                	sw	s8,108(sp)
900008f4:	1ae4                	addi	s1,sp,380
900008f6:	d592444b          	0xd592444b
900008fa:	064d                	addi	a2,a2,19
900008fc:	4480f0cf          	0x4480f0cf
90000900:	4af6                	lw	s5,92(sp)
90000902:	c7e1                	beqz	a5,900009ca <_ctype_+0x8e>
90000904:	2d02                	fld	fs10,0(sp)
90000906:	44b5                	li	s1,13
90000908:	9db4                	0x9db4
9000090a:	79d9                	lui	s3,0xffff6
9000090c:	44ea7843          	0x44ea7843

90000910 <p05.3310>:
90000910:	0005                	c.nop	1
90000912:	0000                	unimp
90000914:	0019                	c.nop	6
90000916:	0000                	unimp
90000918:	007d                	c.nop	31
9000091a:	0000                	unimp
9000091c:	2b302d23          	sw	s3,698(zero) # 2ba <__stack_size-0x546>
90000920:	0020                	addi	s0,sp,8
90000922:	0000                	unimp
90000924:	6c68                	flw	fa0,92(s0)
90000926:	004c                	addi	a1,sp,4
90000928:	6665                	lui	a2,0x19
9000092a:	47464567          	0x47464567
9000092e:	0000                	unimp
90000930:	00000043          	fmadd.s	ft0,ft0,ft0,ft0,rne
90000934:	4f50                	lw	a2,28(a4)
90000936:	00584953          	fadd.s	fs2,fa6,ft5,rmm
	...

9000093c <_ctype_>:
9000093c:	2000                	fld	fs0,0(s0)
9000093e:	2020                	fld	fs0,64(s0)
90000940:	2020                	fld	fs0,64(s0)
90000942:	2020                	fld	fs0,64(s0)
90000944:	2020                	fld	fs0,64(s0)
90000946:	2828                	fld	fa0,80(s0)
90000948:	2828                	fld	fa0,80(s0)
9000094a:	2028                	fld	fa0,64(s0)
9000094c:	2020                	fld	fs0,64(s0)
9000094e:	2020                	fld	fs0,64(s0)
90000950:	2020                	fld	fs0,64(s0)
90000952:	2020                	fld	fs0,64(s0)
90000954:	2020                	fld	fs0,64(s0)
90000956:	2020                	fld	fs0,64(s0)
90000958:	2020                	fld	fs0,64(s0)
9000095a:	2020                	fld	fs0,64(s0)
9000095c:	8820                	0x8820
9000095e:	1010                	addi	a2,sp,32
90000960:	1010                	addi	a2,sp,32
90000962:	1010                	addi	a2,sp,32
90000964:	1010                	addi	a2,sp,32
90000966:	1010                	addi	a2,sp,32
90000968:	1010                	addi	a2,sp,32
9000096a:	1010                	addi	a2,sp,32
9000096c:	0410                	addi	a2,sp,512
9000096e:	0404                	addi	s1,sp,512
90000970:	0404                	addi	s1,sp,512
90000972:	0404                	addi	s1,sp,512
90000974:	0404                	addi	s1,sp,512
90000976:	1004                	addi	s1,sp,32
90000978:	1010                	addi	a2,sp,32
9000097a:	1010                	addi	a2,sp,32
9000097c:	1010                	addi	a2,sp,32
9000097e:	4141                	li	sp,16
90000980:	4141                	li	sp,16
90000982:	4141                	li	sp,16
90000984:	0101                	addi	sp,sp,0
90000986:	0101                	addi	sp,sp,0
90000988:	0101                	addi	sp,sp,0
9000098a:	0101                	addi	sp,sp,0
9000098c:	0101                	addi	sp,sp,0
9000098e:	0101                	addi	sp,sp,0
90000990:	0101                	addi	sp,sp,0
90000992:	0101                	addi	sp,sp,0
90000994:	0101                	addi	sp,sp,0
90000996:	0101                	addi	sp,sp,0
90000998:	1010                	addi	a2,sp,32
9000099a:	1010                	addi	a2,sp,32
9000099c:	1010                	addi	a2,sp,32
9000099e:	4242                	lw	tp,16(sp)
900009a0:	4242                	lw	tp,16(sp)
900009a2:	4242                	lw	tp,16(sp)
900009a4:	0202                	c.slli64	tp
900009a6:	0202                	c.slli64	tp
900009a8:	0202                	c.slli64	tp
900009aa:	0202                	c.slli64	tp
900009ac:	0202                	c.slli64	tp
900009ae:	0202                	c.slli64	tp
900009b0:	0202                	c.slli64	tp
900009b2:	0202                	c.slli64	tp
900009b4:	0202                	c.slli64	tp
900009b6:	0202                	c.slli64	tp
900009b8:	1010                	addi	a2,sp,32
900009ba:	1010                	addi	a2,sp,32
900009bc:	0020                	addi	s0,sp,8
	...
90000a3e:	0000                	unimp
90000a40:	79d8                	flw	fa4,52(a1)
90000a42:	f000                	fsw	fs0,32(s0)
90000a44:	78d0                	flw	fa2,52(s1)
90000a46:	f000                	fsw	fs0,32(s0)
90000a48:	78d0                	flw	fa2,52(s1)
90000a4a:	f000                	fsw	fs0,32(s0)
90000a4c:	78ce                	flw	fa7,240(sp)
90000a4e:	f000                	fsw	fs0,32(s0)
90000a50:	78d6                	flw	fa7,116(sp)
90000a52:	f000                	fsw	fs0,32(s0)
90000a54:	78d6                	flw	fa7,116(sp)
90000a56:	f000                	fsw	fs0,32(s0)
90000a58:	789c                	flw	fa5,48(s1)
90000a5a:	f000                	fsw	fs0,32(s0)
90000a5c:	78ce                	flw	fa7,240(sp)
90000a5e:	f000                	fsw	fs0,32(s0)
90000a60:	78d6                	flw	fa7,116(sp)
90000a62:	f000                	fsw	fs0,32(s0)
90000a64:	789c                	flw	fa5,48(s1)
90000a66:	f000                	fsw	fs0,32(s0)
90000a68:	78d6                	flw	fa7,116(sp)
90000a6a:	f000                	fsw	fs0,32(s0)
90000a6c:	78ce                	flw	fa7,240(sp)
90000a6e:	f000                	fsw	fs0,32(s0)
90000a70:	79c4                	flw	fs1,52(a1)
90000a72:	f000                	fsw	fs0,32(s0)
90000a74:	79c4                	flw	fs1,52(a1)
90000a76:	f000                	fsw	fs0,32(s0)
90000a78:	79c4                	flw	fs1,52(a1)
90000a7a:	f000                	fsw	fs0,32(s0)
90000a7c:	789c                	flw	fa5,48(s1)
90000a7e:	f000                	fsw	fs0,32(s0)

90000a80 <impure_data>:
90000a80:	0000                	unimp
90000a82:	0000                	unimp
90000a84:	07e0                	addi	s0,sp,972
90000a86:	9000                	0x9000
90000a88:	0800                	addi	s0,sp,16
90000a8a:	9000                	0x9000
90000a8c:	07c0                	addi	s0,sp,964
90000a8e:	9000                	0x9000
	...

90000ae0 <__global_locale>:
90000ae0:	00000043          	fmadd.s	ft0,ft0,ft0,ft0,rne
	...
90000b00:	00000043          	fmadd.s	ft0,ft0,ft0,ft0,rne
	...
90000b20:	00000043          	fmadd.s	ft0,ft0,ft0,ft0,rne
	...
90000b40:	00000043          	fmadd.s	ft0,ft0,ft0,ft0,rne
	...
90000b60:	00000043          	fmadd.s	ft0,ft0,ft0,ft0,rne
	...
90000b80:	00000043          	fmadd.s	ft0,ft0,ft0,ft0,rne
	...
90000ba0:	00000043          	fmadd.s	ft0,ft0,ft0,ft0,rne
	...
90000bc0:	7a5a                	flw	fs4,180(sp)
90000bc2:	8000                	0x8000
90000bc4:	79ee                	flw	fs3,248(sp)
90000bc6:	8000                	0x8000
90000bc8:	0000                	unimp
90000bca:	0000                	unimp
90000bcc:	093c                	addi	a5,sp,152
90000bce:	9000                	0x9000
90000bd0:	038c                	addi	a1,sp,448
90000bd2:	9000                	0x9000
90000bd4:	0160                	addi	s0,sp,140
90000bd6:	9000                	0x9000
90000bd8:	0160                	addi	s0,sp,140
90000bda:	9000                	0x9000
90000bdc:	0160                	addi	s0,sp,140
90000bde:	9000                	0x9000
90000be0:	0160                	addi	s0,sp,140
90000be2:	9000                	0x9000
90000be4:	0160                	addi	s0,sp,140
90000be6:	9000                	0x9000
90000be8:	0160                	addi	s0,sp,140
90000bea:	9000                	0x9000
90000bec:	0160                	addi	s0,sp,140
90000bee:	9000                	0x9000
90000bf0:	0160                	addi	s0,sp,140
90000bf2:	9000                	0x9000
90000bf4:	0160                	addi	s0,sp,140
90000bf6:	9000                	0x9000
90000bf8:	ffff                	0xffff
90000bfa:	ffff                	0xffff
90000bfc:	ffff                	0xffff
90000bfe:	ffff                	0xffff
90000c00:	ffff                	0xffff
90000c02:	ffff                	0xffff
90000c04:	ffff                	0xffff
90000c06:	0000                	unimp
90000c08:	0001                	nop
90000c0a:	5341                	li	t1,-16
90000c0c:	00494943          	fmadd.s	fs2,fs2,ft4,ft0,rmm
	...
90000c28:	0000                	unimp
90000c2a:	5341                	li	t1,-16
90000c2c:	00494943          	fmadd.s	fs2,fs2,ft4,ft0,rmm
	...

90000c50 <seed3_volatile>:
90000c50:	0066                	c.slli	zero,0x19
	...

90000c54 <seed4_volatile>:
90000c54:	03e8                	addi	a0,sp,460
	...

90000c58 <curbrk.1546>:
90000c58:	0d20                	addi	s0,sp,664
90000c5a:	9000                	0x9000

90000c5c <_impure_ptr>:
90000c5c:	0a80                	addi	s0,sp,336
90000c5e:	9000                	0x9000

Disassembly of section .bss:

90000c60 <seed1_volatile>:
90000c60:	0000                	unimp
	...

90000c64 <seed2_volatile>:
90000c64:	0000                	unimp
	...

90000c68 <seed5_volatile>:
	...

90000c70 <t0>:
	...

90000c78 <t1>:
	...

90000c80 <_global_atexit>:
90000c80:	0000                	unimp
	...

90000c84 <__malloc_free_list>:
90000c84:	0000                	unimp
	...

90000c88 <__malloc_sbrk_start>:
90000c88:	0000                	unimp
	...

90000c8c <_global_atexit0>:
	...

90000d18 <errno>:
90000d18:	0000                	unimp
	...

Disassembly of section .stack:

9000f800 <_heap_end>:
	...

Disassembly of section .comment:

00000000 <.comment>:
   0:	3a434347          	fmsub.d	ft6,ft6,ft4,ft7,rmm
   4:	2820                	fld	fs0,80(s0)
   6:	5078                	lw	a4,100(s0)
   8:	6361                	lui	t1,0x18
   a:	4e47206b          	0x4e47206b
   e:	2055                	jal	b2 <__stack_size-0x74e>
  10:	4952                	lw	s2,20(sp)
  12:	562d4353          	0x562d4353
  16:	4520                	lw	s0,72(a0)
  18:	626d                	lui	tp,0x1b
  1a:	6465                	lui	s0,0x19
  1c:	6564                	flw	fs1,76(a0)
  1e:	2064                	fld	fs1,192(s0)
  20:	2c434347          	0x2c434347
  24:	3620                	fld	fs0,104(a2)
  26:	2d34                	fld	fa3,88(a0)
  28:	6962                	flw	fs2,24(sp)
  2a:	2974                	fld	fa3,208(a0)
  2c:	3820                	fld	fs0,112(s0)
  2e:	332e                	fld	ft6,232(sp)
  30:	302e                	fld	ft0,232(sp)
	...

Disassembly of section .debug_frame:

00000000 <.debug_frame>:
       0:	000c                	0xc
       2:	0000                	unimp
       4:	ffff                	0xffff
       6:	ffff                	0xffff
       8:	0001                	nop
       a:	7c01                	lui	s8,0xfffe0
       c:	0d01                	addi	s10,s10,0
       e:	0002                	c.slli64	zero
      10:	003c                	addi	a5,sp,8
      12:	0000                	unimp
      14:	0000                	unimp
      16:	0000                	unimp
      18:	4220                	lw	s0,64(a2)
      1a:	8000                	0x8000
      1c:	0598                	addi	a4,sp,704
      1e:	0000                	unimp
      20:	0e42                	slli	t3,t3,0x10
      22:	4a40                	lw	s0,20(a2)
      24:	0288                	addi	a0,sp,320
      26:	0389                	addi	t2,t2,2
      28:	81520593          	addi	a1,tp,-2027 # 1a815 <__stack_size+0x1a015>
      2c:	9201                	srli	a2,a2,0x20
      2e:	9404                	0x9404
      30:	9506                	add	a0,a0,ra
      32:	97089607          	0x97089607
      36:	0209                	addi	tp,tp,2
      38:	0aae                	slli	s5,s5,0xb
      3a:	42c1                	li	t0,16
      3c:	4cc8                	lw	a0,28(s1)
      3e:	42c9                	li	t0,18
      40:	42d2                	lw	t0,20(sp)
      42:	42d442d3          	0x42d442d3
      46:	42d5                	li	t0,21
      48:	42d6                	lw	t0,84(sp)
      4a:	000e44d7          	0xe44d7
      4e:	0b42                	slli	s6,s6,0x10
      50:	000c                	0xc
      52:	0000                	unimp
      54:	ffff                	0xffff
      56:	ffff                	0xffff
      58:	0001                	nop
      5a:	7c01                	lui	s8,0xfffe0
      5c:	0d01                	addi	s10,s10,0
      5e:	0002                	c.slli64	zero
      60:	000c                	0xc
      62:	0000                	unimp
      64:	0050                	addi	a2,sp,4
      66:	0000                	unimp
      68:	47b8                	lw	a4,72(a5)
      6a:	8000                	0x8000
      6c:	00b0                	addi	a2,sp,72
      6e:	0000                	unimp
      70:	000c                	0xc
      72:	0000                	unimp
      74:	ffff                	0xffff
      76:	ffff                	0xffff
      78:	0001                	nop
      7a:	7c01                	lui	s8,0xfffe0
      7c:	0d01                	addi	s10,s10,0
      7e:	0002                	c.slli64	zero
      80:	000c                	0xc
      82:	0000                	unimp
      84:	0070                	addi	a2,sp,12
      86:	0000                	unimp
      88:	4868                	lw	a0,84(s0)
      8a:	8000                	0x8000
      8c:	00b2                	slli	ra,ra,0xc
      8e:	0000                	unimp
      90:	000c                	0xc
      92:	0000                	unimp
      94:	ffff                	0xffff
      96:	ffff                	0xffff
      98:	0001                	nop
      9a:	7c01                	lui	s8,0xfffe0
      9c:	0d01                	addi	s10,s10,0
      9e:	0002                	c.slli64	zero
      a0:	000c                	0xc
      a2:	0000                	unimp
      a4:	0090                	addi	a2,sp,64
      a6:	0000                	unimp
      a8:	491a                	lw	s2,132(sp)
      aa:	8000                	0x8000
      ac:	005c                	addi	a5,sp,4
      ae:	0000                	unimp
      b0:	000c                	0xc
      b2:	0000                	unimp
      b4:	ffff                	0xffff
      b6:	ffff                	0xffff
      b8:	0001                	nop
      ba:	7c01                	lui	s8,0xfffe0
      bc:	0d01                	addi	s10,s10,0
      be:	0002                	c.slli64	zero
      c0:	0020                	addi	s0,sp,8
      c2:	0000                	unimp
      c4:	00b0                	addi	a2,sp,72
      c6:	0000                	unimp
      c8:	4976                	lw	s2,92(sp)
      ca:	8000                	0x8000
      cc:	0056                	c.slli	zero,0x15
      ce:	0000                	unimp
      d0:	0e42                	slli	t3,t3,0x10
      d2:	4410                	lw	a2,8(s0)
      d4:	0288                	addi	a0,sp,320
      d6:	0181                	addi	gp,gp,0
      d8:	0a72                	slli	s4,s4,0x1c
      da:	42c1                	li	t0,16
      dc:	4cc8                	lw	a0,28(s1)
      de:	000e                	c.slli	zero,0x3
      e0:	0b42                	slli	s6,s6,0x10
      e2:	0000                	unimp
      e4:	000c                	0xc
      e6:	0000                	unimp
      e8:	ffff                	0xffff
      ea:	ffff                	0xffff
      ec:	0001                	nop
      ee:	7c01                	lui	s8,0xfffe0
      f0:	0d01                	addi	s10,s10,0
      f2:	0002                	c.slli64	zero
      f4:	000c                	0xc
      f6:	0000                	unimp
      f8:	00e4                	addi	s1,sp,76
      fa:	0000                	unimp
      fc:	49cc                	lw	a1,20(a1)
      fe:	8000                	0x8000
     100:	0076                	c.slli	zero,0x1d
     102:	0000                	unimp
     104:	000c                	0xc
     106:	0000                	unimp
     108:	ffff                	0xffff
     10a:	ffff                	0xffff
     10c:	0001                	nop
     10e:	7c01                	lui	s8,0xfffe0
     110:	0d01                	addi	s10,s10,0
     112:	0002                	c.slli64	zero
     114:	000c                	0xc
     116:	0000                	unimp
     118:	0104                	addi	s1,sp,128
     11a:	0000                	unimp
     11c:	4a42                	lw	s4,16(sp)
     11e:	8000                	0x8000
     120:	000c                	0xc
     122:	0000                	unimp
     124:	000c                	0xc
     126:	0000                	unimp
     128:	ffff                	0xffff
     12a:	ffff                	0xffff
     12c:	0001                	nop
     12e:	7c01                	lui	s8,0xfffe0
     130:	0d01                	addi	s10,s10,0
     132:	0002                	c.slli64	zero
     134:	0014                	0x14
     136:	0000                	unimp
     138:	0124                	addi	s1,sp,136
     13a:	0000                	unimp
     13c:	4a4e                	lw	s4,208(sp)
     13e:	8000                	0x8000
     140:	002e                	c.slli	zero,0xb
     142:	0000                	unimp
     144:	0e42                	slli	t3,t3,0x10
     146:	4410                	lw	a2,8(s0)
     148:	0288                	addi	a0,sp,320
     14a:	0181                	addi	gp,gp,0
     14c:	000c                	0xc
     14e:	0000                	unimp
     150:	ffff                	0xffff
     152:	ffff                	0xffff
     154:	0001                	nop
     156:	7c01                	lui	s8,0xfffe0
     158:	0d01                	addi	s10,s10,0
     15a:	0002                	c.slli64	zero
     15c:	0024                	addi	s1,sp,8
     15e:	0000                	unimp
     160:	014c                	addi	a1,sp,132
     162:	0000                	unimp
     164:	4a7c                	lw	a5,84(a2)
     166:	8000                	0x8000
     168:	0038                	addi	a4,sp,8
     16a:	0000                	unimp
     16c:	0e42                	slli	t3,t3,0x10
     16e:	4a10                	lw	a2,16(a2)
     170:	0288                	addi	a0,sp,320
     172:	894e                	mv	s2,s3
     174:	48018103          	lb	sp,1152(gp) # 90004d0e <__global_pointer$+0x38be>
     178:	c10a                	sw	sp,128(sp)
     17a:	c842                	sw	a6,16(sp)
     17c:	c942                	sw	a6,144(sp)
     17e:	0e42                	slli	t3,t3,0x10
     180:	4200                	lw	s0,0(a2)
     182:	000c000b          	0xc000b
     186:	0000                	unimp
     188:	ffff                	0xffff
     18a:	ffff                	0xffff
     18c:	0001                	nop
     18e:	7c01                	lui	s8,0xfffe0
     190:	0d01                	addi	s10,s10,0
     192:	0002                	c.slli64	zero
     194:	0028                	addi	a0,sp,8
     196:	0000                	unimp
     198:	0184                	addi	s1,sp,192
     19a:	0000                	unimp
     19c:	4ab4                	lw	a3,80(a3)
     19e:	8000                	0x8000
     1a0:	006a                	c.slli	zero,0x1a
     1a2:	0000                	unimp
     1a4:	0e42                	slli	t3,t3,0x10
     1a6:	4a10                	lw	a2,16(a2)
     1a8:	0288                	addi	a0,sp,320
     1aa:	8950                	0x8950
     1ac:	81049203          	lh	tp,-2032(s1)
     1b0:	6801                	0x6801
     1b2:	c10a                	sw	sp,128(sp)
     1b4:	c842                	sw	a6,16(sp)
     1b6:	c942                	sw	a6,144(sp)
     1b8:	d242                	sw	a6,36(sp)
     1ba:	0e42                	slli	t3,t3,0x10
     1bc:	4200                	lw	s0,0(a2)
     1be:	000c000b          	0xc000b
     1c2:	0000                	unimp
     1c4:	ffff                	0xffff
     1c6:	ffff                	0xffff
     1c8:	0001                	nop
     1ca:	7c01                	lui	s8,0xfffe0
     1cc:	0d01                	addi	s10,s10,0
     1ce:	0002                	c.slli64	zero
     1d0:	0038                	addi	a4,sp,8
     1d2:	0000                	unimp
     1d4:	01c0                	addi	s0,sp,196
     1d6:	0000                	unimp
     1d8:	4b1e                	lw	s6,196(sp)
     1da:	8000                	0x8000
     1dc:	00ee                	slli	ra,ra,0x1b
     1de:	0000                	unimp
     1e0:	0e42                	slli	t3,t3,0x10
     1e2:	5030                	lw	a2,96(s0)
     1e4:	0288                	addi	a0,sp,320
     1e6:	0492                	slli	s1,s1,0x4
     1e8:	0694                	addi	a3,sp,832
     1ea:	0795                	addi	a5,a5,5
     1ec:	0896                	slli	a7,a7,0x5
     1ee:	0181                	addi	gp,gp,0
     1f0:	0389                	addi	t2,t2,2
     1f2:	b6020593          	addi	a1,tp,-1184 # fffffb60 <_sp+0x6ffefb60>
     1f6:	c10a                	sw	sp,128(sp)
     1f8:	c842                	sw	a6,16(sp)
     1fa:	c94a                	sw	s2,144(sp)
     1fc:	d242                	sw	a6,36(sp)
     1fe:	d342                	sw	a6,164(sp)
     200:	d442                	sw	a6,40(sp)
     202:	d542                	sw	a6,168(sp)
     204:	d642                	sw	a6,44(sp)
     206:	0e42                	slli	t3,t3,0x10
     208:	4200                	lw	s0,0(a2)
     20a:	0018000b          	0x18000b
     20e:	0000                	unimp
     210:	01c0                	addi	s0,sp,196
     212:	0000                	unimp
     214:	4c0c                	lw	a1,24(s0)
     216:	8000                	0x8000
     218:	008c                	addi	a1,sp,64
     21a:	0000                	unimp
     21c:	0e64                	addi	s1,sp,796
     21e:	7810                	flw	fa2,48(s0)
     220:	0e0a                	slli	t3,t3,0x2
     222:	4200                	lw	s0,0(a2)
     224:	000e540b          	0xe540b
     228:	0050                	addi	a2,sp,4
     22a:	0000                	unimp
     22c:	01c0                	addi	s0,sp,196
     22e:	0000                	unimp
     230:	4c98                	lw	a4,24(s1)
     232:	8000                	0x8000
     234:	04c8                	addi	a0,sp,580
     236:	0000                	unimp
     238:	0e42                	slli	t3,t3,0x10
     23a:	0180                	addi	s0,sp,192
     23c:	8148                	0x8148
     23e:	8801                	andi	s0,s0,0
     240:	8902                	jr	s2
     242:	04924803          	lbu	a6,73(tp) # 49 <__stack_size-0x7b7>
     246:	06940593          	addi	a1,s0,105 # 19069 <__stack_size+0x18869>
     24a:	9652                	add	a2,a2,s4
     24c:	9708                	0x9708
     24e:	9809                	andi	s0,s0,-30
     250:	950a                	add	a0,a0,sp
     252:	9a0b9907          	0x9a0b9907
     256:	9b0c                	0x9b0c
     258:	020d                	addi	tp,tp,3
     25a:	0ad8                	addi	a4,sp,340
     25c:	42c1                	li	t0,16
     25e:	42c8                	lw	a0,4(a3)
     260:	42c9                	li	t0,18
     262:	42d2                	lw	t0,20(sp)
     264:	42d442d3          	0x42d442d3
     268:	42d5                	li	t0,21
     26a:	42d6                	lw	t0,84(sp)
     26c:	42d842d7          	0x42d842d7
     270:	42d9                	li	t0,22
     272:	42da                	lw	t0,148(sp)
     274:	000e42db          	0xe42db
     278:	0b42                	slli	s6,s6,0x10
     27a:	0000                	unimp
     27c:	000c                	0xc
     27e:	0000                	unimp
     280:	ffff                	0xffff
     282:	ffff                	0xffff
     284:	0001                	nop
     286:	7c01                	lui	s8,0xfffe0
     288:	0d01                	addi	s10,s10,0
     28a:	0002                	c.slli64	zero
     28c:	003c                	addi	a5,sp,8
     28e:	0000                	unimp
     290:	027c                	addi	a5,sp,268
     292:	0000                	unimp
     294:	5160                	lw	s0,100(a0)
     296:	8000                	0x8000
     298:	010c                	addi	a1,sp,128
     29a:	0000                	unimp
     29c:	0e42                	slli	t3,t3,0x10
     29e:	4430                	lw	a2,72(s0)
     2a0:	0795                	addi	a5,a5,5
     2a2:	8854                	0x8854
     2a4:	8902                	jr	s2
     2a6:	94059303          	lh	t1,-1728(a1)
     2aa:	8106                	mv	sp,ra
     2ac:	9201                	srli	a2,a2,0x20
     2ae:	9604                	0x9604
     2b0:	9708                	0x9708
     2b2:	0209                	addi	tp,tp,2
     2b4:	0aaa                	slli	s5,s5,0xa
     2b6:	42c1                	li	t0,16
     2b8:	42c8                	lw	a0,4(a3)
     2ba:	42c9                	li	t0,18
     2bc:	42d2                	lw	t0,20(sp)
     2be:	42d442d3          	0x42d442d3
     2c2:	42d5                	li	t0,21
     2c4:	42d6                	lw	t0,84(sp)
     2c6:	000e42d7          	0xe42d7
     2ca:	0b42                	slli	s6,s6,0x10
     2cc:	0038                	addi	a4,sp,8
     2ce:	0000                	unimp
     2d0:	027c                	addi	a5,sp,268
     2d2:	0000                	unimp
     2d4:	526c                	lw	a1,100(a2)
     2d6:	8000                	0x8000
     2d8:	02a4                	addi	s1,sp,328
     2da:	0000                	unimp
     2dc:	0e42                	slli	t3,t3,0x10
     2de:	5030                	lw	a2,96(s0)
     2e0:	0288                	addi	a0,sp,320
     2e2:	0389                	addi	t2,t2,2
     2e4:	0492                	slli	s1,s1,0x4
     2e6:	01810593          	addi	a1,sp,24
     2ea:	0694                	addi	a3,sp,832
     2ec:	0795                	addi	a5,a5,5
     2ee:	0896                	slli	a7,a7,0x5
     2f0:	0a018a03          	lb	s4,160(gp) # 900014f0 <__global_pointer$+0xa0>
     2f4:	42c1                	li	t0,16
     2f6:	42c8                	lw	a0,4(a3)
     2f8:	42c9                	li	t0,18
     2fa:	42d2                	lw	t0,20(sp)
     2fc:	42d442d3          	0x42d442d3
     300:	42d5                	li	t0,21
     302:	42d6                	lw	t0,84(sp)
     304:	000e                	c.slli	zero,0x3
     306:	0b42                	slli	s6,s6,0x10
     308:	000c                	0xc
     30a:	0000                	unimp
     30c:	ffff                	0xffff
     30e:	ffff                	0xffff
     310:	0001                	nop
     312:	7c01                	lui	s8,0xfffe0
     314:	0d01                	addi	s10,s10,0
     316:	0002                	c.slli64	zero
     318:	001c                	0x1c
     31a:	0000                	unimp
     31c:	0308                	addi	a0,sp,384
	...
     326:	0000                	unimp
     328:	0e42                	slli	t3,t3,0x10
     32a:	4450                	lw	a2,12(s0)
     32c:	0a88                	addi	a0,sp,336
     32e:	0981                	addi	s3,s3,0
     330:	c140                	sw	s0,4(a0)
     332:	c842                	sw	a6,16(sp)
     334:	0e42                	slli	t3,t3,0x10
     336:	0000                	unimp
     338:	0020                	addi	s0,sp,8
     33a:	0000                	unimp
     33c:	0308                	addi	a0,sp,384
     33e:	0000                	unimp
     340:	5510                	lw	a2,40(a0)
     342:	8000                	0x8000
     344:	0042                	c.slli	zero,0x10
     346:	0000                	unimp
     348:	0e42                	slli	t3,t3,0x10
     34a:	5440                	lw	s0,44(s0)
     34c:	0a88                	addi	a0,sp,336
     34e:	8946                	mv	s2,a7
     350:	5e09810b          	0x5e09810b
     354:	42c1                	li	t0,16
     356:	42c8                	lw	a0,4(a3)
     358:	42c9                	li	t0,18
     35a:	000e                	c.slli	zero,0x3
     35c:	000c                	0xc
     35e:	0000                	unimp
     360:	ffff                	0xffff
     362:	ffff                	0xffff
     364:	0001                	nop
     366:	7c01                	lui	s8,0xfffe0
     368:	0d01                	addi	s10,s10,0
     36a:	0002                	c.slli64	zero
     36c:	001c                	0x1c
     36e:	0000                	unimp
     370:	035c                	addi	a5,sp,388
	...
     37a:	0000                	unimp
     37c:	0e42                	slli	t3,t3,0x10
     37e:	4420                	lw	s0,72(s0)
     380:	0288                	addi	a0,sp,320
     382:	0181                	addi	gp,gp,0
     384:	c840                	sw	s0,20(s0)
     386:	c142                	sw	a6,128(sp)
     388:	0e42                	slli	t3,t3,0x10
     38a:	0000                	unimp
     38c:	001c                	0x1c
     38e:	0000                	unimp
     390:	035c                	addi	a5,sp,388
     392:	0000                	unimp
     394:	5552                	lw	a0,52(sp)
     396:	8000                	0x8000
     398:	002c                	addi	a1,sp,8
     39a:	0000                	unimp
     39c:	0e42                	slli	t3,t3,0x10
     39e:	4620                	lw	s0,72(a2)
     3a0:	0288                	addi	a0,sp,320
     3a2:	8144                	0x8144
     3a4:	5801                	li	a6,-32
     3a6:	42c8                	lw	a0,4(a3)
     3a8:	42c1                	li	t0,16
     3aa:	000e                	c.slli	zero,0x3
     3ac:	000c                	0xc
     3ae:	0000                	unimp
     3b0:	ffff                	0xffff
     3b2:	ffff                	0xffff
     3b4:	0001                	nop
     3b6:	7c01                	lui	s8,0xfffe0
     3b8:	0d01                	addi	s10,s10,0
     3ba:	0002                	c.slli64	zero
     3bc:	0030                	addi	a2,sp,8
     3be:	0000                	unimp
     3c0:	03ac                	addi	a1,sp,456
     3c2:	0000                	unimp
     3c4:	557e                	lw	a0,252(sp)
     3c6:	8000                	0x8000
     3c8:	00de                	slli	ra,ra,0x17
     3ca:	0000                	unimp
     3cc:	0e42                	slli	t3,t3,0x10
     3ce:	4c20                	lw	s0,88(s0)
     3d0:	0389                	addi	t2,t2,2
     3d2:	0492                	slli	s1,s1,0x4
     3d4:	0181                	addi	gp,gp,0
     3d6:	0288                	addi	a0,sp,320
     3d8:	06940593          	addi	a1,s0,105
     3dc:	8602                	jr	a2
     3de:	c10a                	sw	sp,128(sp)
     3e0:	c842                	sw	a6,16(sp)
     3e2:	c942                	sw	a6,144(sp)
     3e4:	d242                	sw	a6,36(sp)
     3e6:	d342                	sw	a6,164(sp)
     3e8:	d442                	sw	a6,40(sp)
     3ea:	0e42                	slli	t3,t3,0x10
     3ec:	4200                	lw	s0,0(a2)
     3ee:	000c000b          	0xc000b
     3f2:	0000                	unimp
     3f4:	03ac                	addi	a1,sp,456
     3f6:	0000                	unimp
     3f8:	565c                	lw	a5,44(a2)
     3fa:	8000                	0x8000
     3fc:	000a                	c.slli	zero,0x2
     3fe:	0000                	unimp
     400:	000c                	0xc
     402:	0000                	unimp
     404:	ffff                	0xffff
     406:	ffff                	0xffff
     408:	0001                	nop
     40a:	7c01                	lui	s8,0xfffe0
     40c:	0d01                	addi	s10,s10,0
     40e:	0002                	c.slli64	zero
     410:	000c                	0xc
     412:	0000                	unimp
     414:	0400                	addi	s0,sp,512
     416:	0000                	unimp
     418:	5666                	lw	a2,120(sp)
     41a:	8000                	0x8000
     41c:	0012                	c.slli	zero,0x4
     41e:	0000                	unimp
     420:	000c                	0xc
     422:	0000                	unimp
     424:	ffff                	0xffff
     426:	ffff                	0xffff
     428:	0001                	nop
     42a:	7c01                	lui	s8,0xfffe0
     42c:	0d01                	addi	s10,s10,0
     42e:	0002                	c.slli64	zero
     430:	000c                	0xc
     432:	0000                	unimp
     434:	0420                	addi	s0,sp,520
     436:	0000                	unimp
     438:	5678                	lw	a4,108(a2)
     43a:	8000                	0x8000
     43c:	0004                	0x4
     43e:	0000                	unimp
     440:	000c                	0xc
     442:	0000                	unimp
     444:	ffff                	0xffff
     446:	ffff                	0xffff
     448:	0001                	nop
     44a:	7c01                	lui	s8,0xfffe0
     44c:	0d01                	addi	s10,s10,0
     44e:	0002                	c.slli64	zero
     450:	000c                	0xc
     452:	0000                	unimp
     454:	0440                	addi	s0,sp,516
     456:	0000                	unimp
     458:	567c                	lw	a5,108(a2)
     45a:	8000                	0x8000
     45c:	000e                	c.slli	zero,0x3
     45e:	0000                	unimp
     460:	000c                	0xc
     462:	0000                	unimp
     464:	ffff                	0xffff
     466:	ffff                	0xffff
     468:	0001                	nop
     46a:	7c01                	lui	s8,0xfffe0
     46c:	0d01                	addi	s10,s10,0
     46e:	0002                	c.slli64	zero
     470:	002c                	addi	a1,sp,8
     472:	0000                	unimp
     474:	0460                	addi	s0,sp,524
     476:	0000                	unimp
     478:	568a                	lw	a3,160(sp)
     47a:	8000                	0x8000
     47c:	00c6                	slli	ra,ra,0x11
     47e:	0000                	unimp
     480:	0e42                	slli	t3,t3,0x10
     482:	4a20                	lw	s0,80(a2)
     484:	0288                	addi	a0,sp,320
     486:	0389                	addi	t2,t2,2
     488:	0492                	slli	s1,s1,0x4
     48a:	0181                	addi	gp,gp,0
     48c:	80020593          	addi	a1,tp,-2048 # fffff800 <_sp+0x6ffef800>
     490:	c10a                	sw	sp,128(sp)
     492:	c842                	sw	a6,16(sp)
     494:	c944                	sw	s1,20(a0)
     496:	d242                	sw	a6,36(sp)
     498:	d342                	sw	a6,164(sp)
     49a:	0e42                	slli	t3,t3,0x10
     49c:	4200                	lw	s0,0(a2)
     49e:	000c000b          	0xc000b
     4a2:	0000                	unimp
     4a4:	0460                	addi	s0,sp,524
	...
     4ae:	0000                	unimp
     4b0:	000c                	0xc
     4b2:	0000                	unimp
     4b4:	ffff                	0xffff
     4b6:	ffff                	0xffff
     4b8:	0001                	nop
     4ba:	7c01                	lui	s8,0xfffe0
     4bc:	0d01                	addi	s10,s10,0
     4be:	0002                	c.slli64	zero
     4c0:	001c                	0x1c
     4c2:	0000                	unimp
     4c4:	04b0                	addi	a2,sp,584
     4c6:	0000                	unimp
     4c8:	5750                	lw	a2,44(a4)
     4ca:	8000                	0x8000
     4cc:	002e                	c.slli	zero,0xb
     4ce:	0000                	unimp
     4d0:	0e42                	slli	t3,t3,0x10
     4d2:	4210                	lw	a2,0(a2)
     4d4:	0288                	addi	a0,sp,320
     4d6:	814e                	mv	sp,s3
     4d8:	5601                	li	a2,-32
     4da:	42c1                	li	t0,16
     4dc:	42c8                	lw	a0,4(a3)
     4de:	000e                	c.slli	zero,0x3
     4e0:	000c                	0xc
     4e2:	0000                	unimp
     4e4:	ffff                	0xffff
     4e6:	ffff                	0xffff
     4e8:	0001                	nop
     4ea:	7c01                	lui	s8,0xfffe0
     4ec:	0d01                	addi	s10,s10,0
     4ee:	0002                	c.slli64	zero
     4f0:	0028                	addi	a0,sp,8
     4f2:	0000                	unimp
     4f4:	04e0                	addi	s0,sp,588
     4f6:	0000                	unimp
     4f8:	577e                	lw	a4,252(sp)
     4fa:	8000                	0x8000
     4fc:	0112                	slli	sp,sp,0x4
     4fe:	0000                	unimp
     500:	0e42                	slli	t3,t3,0x10
     502:	4610                	lw	a2,8(a2)
     504:	0389                	addi	t2,t2,2
     506:	8848                	0x8848
     508:	9202                	jalr	tp
     50a:	8104                	0x8104
     50c:	0201                	addi	tp,tp,0
     50e:	0a46                	slli	s4,s4,0x11
     510:	42c1                	li	t0,16
     512:	42c8                	lw	a0,4(a3)
     514:	42c9                	li	t0,18
     516:	42d2                	lw	t0,20(sp)
     518:	000e                	c.slli	zero,0x3
     51a:	0b42                	slli	s6,s6,0x10
     51c:	000c                	0xc
     51e:	0000                	unimp
     520:	ffff                	0xffff
     522:	ffff                	0xffff
     524:	0001                	nop
     526:	7c01                	lui	s8,0xfffe0
     528:	0d01                	addi	s10,s10,0
     52a:	0002                	c.slli64	zero
     52c:	000c                	0xc
     52e:	0000                	unimp
     530:	051c                	addi	a5,sp,640
     532:	0000                	unimp
     534:	5890                	lw	a2,48(s1)
     536:	8000                	0x8000
     538:	007c                	addi	a5,sp,12
     53a:	0000                	unimp
     53c:	000c                	0xc
     53e:	0000                	unimp
     540:	ffff                	0xffff
     542:	ffff                	0xffff
     544:	0001                	nop
     546:	7c01                	lui	s8,0xfffe0
     548:	0d01                	addi	s10,s10,0
     54a:	0002                	c.slli64	zero
     54c:	000c                	0xc
     54e:	0000                	unimp
     550:	053c                	addi	a5,sp,648
     552:	0000                	unimp
     554:	08cc                	addi	a1,sp,84
     556:	8000                	0x8000
     558:	0018                	0x18
     55a:	0000                	unimp
     55c:	0040                	addi	s0,sp,4
     55e:	0000                	unimp
     560:	053c                	addi	a5,sp,648
     562:	0000                	unimp
     564:	590c                	lw	a1,48(a0)
     566:	8000                	0x8000
     568:	00c4                	addi	s1,sp,68
     56a:	0000                	unimp
     56c:	0e42                	slli	t3,t3,0x10
     56e:	5430                	lw	a2,104(s0)
     570:	0694                	addi	a3,sp,832
     572:	0795                	addi	a5,a5,5
     574:	0896                	slli	a7,a7,0x5
     576:	01810997          	auipc	s3,0x1810
     57a:	0288                	addi	a0,sp,320
     57c:	0389                	addi	t2,t2,2
     57e:	0492                	slli	s1,s1,0x4
     580:	0a980593          	addi	a1,a6,169 # ffff90a9 <_sp+0x6ffe90a9>
     584:	0a64                	addi	s1,sp,284
     586:	42c1                	li	t0,16
     588:	42c8                	lw	a0,4(a3)
     58a:	42c9                	li	t0,18
     58c:	42d2                	lw	t0,20(sp)
     58e:	42d442d3          	0x42d442d3
     592:	42d5                	li	t0,21
     594:	42d6                	lw	t0,84(sp)
     596:	42d842d7          	0x42d842d7
     59a:	000e                	c.slli	zero,0x3
     59c:	0b42                	slli	s6,s6,0x10
     59e:	0000                	unimp
     5a0:	000c                	0xc
     5a2:	0000                	unimp
     5a4:	ffff                	0xffff
     5a6:	ffff                	0xffff
     5a8:	0001                	nop
     5aa:	7c01                	lui	s8,0xfffe0
     5ac:	0d01                	addi	s10,s10,0
     5ae:	0002                	c.slli64	zero
     5b0:	0034                	addi	a3,sp,8
     5b2:	0000                	unimp
     5b4:	05a0                	addi	s0,sp,712
     5b6:	0000                	unimp
     5b8:	59d0                	lw	a2,52(a1)
     5ba:	8000                	0x8000
     5bc:	013a                	slli	sp,sp,0xe
     5be:	0000                	unimp
     5c0:	0e42                	slli	t3,t3,0x10
     5c2:	4420                	lw	s0,72(s0)
     5c4:	0288                	addi	a0,sp,320
     5c6:	814e                	mv	sp,s3
     5c8:	8901                	andi	a0,a0,0
     5ca:	93049203          	lh	tp,-1744(s1)
     5ce:	9405                	srai	s0,s0,0x21
     5d0:	9506                	add	a0,a0,ra
     5d2:	0aee0207          	0xaee0207
     5d6:	42c1                	li	t0,16
     5d8:	42c8                	lw	a0,4(a3)
     5da:	42c9                	li	t0,18
     5dc:	42d2                	lw	t0,20(sp)
     5de:	42d442d3          	0x42d442d3
     5e2:	42d5                	li	t0,21
     5e4:	000e                	c.slli	zero,0x3
     5e6:	0b42                	slli	s6,s6,0x10
     5e8:	004c                	addi	a1,sp,4
     5ea:	0000                	unimp
     5ec:	05a0                	addi	s0,sp,712
     5ee:	0000                	unimp
     5f0:	5b0a                	lw	s6,160(sp)
     5f2:	8000                	0x8000
     5f4:	0c18                	addi	a4,sp,528
     5f6:	0000                	unimp
     5f8:	0e42                	slli	t3,t3,0x10
     5fa:	0190                	addi	a2,sp,192
     5fc:	885e                	mv	a6,s7
     5fe:	8902                	jr	s2
     600:	93049203          	lh	tp,-1744(s1)
     604:	9405                	srai	s0,s0,0x21
     606:	9806                	add	a6,a6,ra
     608:	810a                	mv	sp,sp
     60a:	9501                	srai	a0,a0,0x20
     60c:	97089607          	0x97089607
     610:	9909                	andi	a0,a0,-30
     612:	9b0c9a0b          	0x9b0c9a0b
     616:	020d                	addi	tp,tp,3
     618:	0aae                	slli	s5,s5,0xb
     61a:	42c1                	li	t0,16
     61c:	44c8                	lw	a0,12(s1)
     61e:	42c9                	li	t0,18
     620:	42d2                	lw	t0,20(sp)
     622:	42d442d3          	0x42d442d3
     626:	42d5                	li	t0,21
     628:	42d6                	lw	t0,84(sp)
     62a:	42d842d7          	0x42d842d7
     62e:	42d9                	li	t0,22
     630:	42da                	lw	t0,148(sp)
     632:	000e42db          	0xe42db
     636:	0b42                	slli	s6,s6,0x10
     638:	000c                	0xc
     63a:	0000                	unimp
     63c:	ffff                	0xffff
     63e:	ffff                	0xffff
     640:	0001                	nop
     642:	7c01                	lui	s8,0xfffe0
     644:	0d01                	addi	s10,s10,0
     646:	0002                	c.slli64	zero
     648:	002c                	addi	a1,sp,8
     64a:	0000                	unimp
     64c:	0638                	addi	a4,sp,776
     64e:	0000                	unimp
     650:	6722                	flw	fa4,8(sp)
     652:	8000                	0x8000
     654:	014c                	addi	a1,sp,132
     656:	0000                	unimp
     658:	0e46                	slli	t3,t3,0x11
     65a:	4a20                	lw	s0,80(a2)
     65c:	0288                	addi	a0,sp,320
     65e:	0389                	addi	t2,t2,2
     660:	0181                	addi	gp,gp,0
     662:	0492                	slli	s1,s1,0x4
     664:	dc020593          	addi	a1,tp,-576 # fffffdc0 <_sp+0x6ffefdc0>
     668:	c10a                	sw	sp,128(sp)
     66a:	c842                	sw	a6,16(sp)
     66c:	c942                	sw	a6,144(sp)
     66e:	d242                	sw	a6,36(sp)
     670:	d342                	sw	a6,164(sp)
     672:	0e42                	slli	t3,t3,0x10
     674:	4200                	lw	s0,0(a2)
     676:	0028000b          	0x28000b
     67a:	0000                	unimp
     67c:	0638                	addi	a4,sp,776
     67e:	0000                	unimp
     680:	686e                	flw	fa6,216(sp)
     682:	8000                	0x8000
     684:	0064                	addi	s1,sp,12
     686:	0000                	unimp
     688:	0e46                	slli	t3,t3,0x11
     68a:	4420                	lw	s0,72(s0)
     68c:	0288                	addi	a0,sp,320
     68e:	0181                	addi	gp,gp,0
     690:	0a66                	slli	s4,s4,0x19
     692:	42c8                	lw	a0,4(a3)
     694:	42c1                	li	t0,16
     696:	000e                	c.slli	zero,0x3
     698:	0b42                	slli	s6,s6,0x10
     69a:	c162                	sw	s8,128(sp)
     69c:	c842                	sw	a6,16(sp)
     69e:	0e44                	addi	s1,sp,788
     6a0:	0000                	unimp
     6a2:	0000                	unimp
     6a4:	000c                	0xc
     6a6:	0000                	unimp
     6a8:	0638                	addi	a4,sp,776
	...
     6b2:	0000                	unimp
     6b4:	000c                	0xc
     6b6:	0000                	unimp
     6b8:	ffff                	0xffff
     6ba:	ffff                	0xffff
     6bc:	0001                	nop
     6be:	7c01                	lui	s8,0xfffe0
     6c0:	0d01                	addi	s10,s10,0
     6c2:	0002                	c.slli64	zero
     6c4:	000c                	0xc
     6c6:	0000                	unimp
     6c8:	06b4                	addi	a3,sp,840
	...
     6d2:	0000                	unimp
     6d4:	001c                	0x1c
     6d6:	0000                	unimp
     6d8:	06b4                	addi	a3,sp,840
     6da:	0000                	unimp
     6dc:	68d2                	flw	fa7,20(sp)
     6de:	8000                	0x8000
     6e0:	0068                	addi	a0,sp,12
     6e2:	0000                	unimp
     6e4:	0e42                	slli	t3,t3,0x10
     6e6:	4410                	lw	a2,8(s0)
     6e8:	0288                	addi	a0,sp,320
     6ea:	0181                	addi	gp,gp,0
     6ec:	5c02                	lw	s8,32(sp)
     6ee:	42c1                	li	t0,16
     6f0:	42c8                	lw	a0,4(a3)
     6f2:	000e                	c.slli	zero,0x3
     6f4:	000c                	0xc
     6f6:	0000                	unimp
     6f8:	06b4                	addi	a3,sp,840
     6fa:	0000                	unimp
     6fc:	693a                	flw	fs2,140(sp)
     6fe:	8000                	0x8000
     700:	000a                	c.slli	zero,0x2
     702:	0000                	unimp
     704:	000c                	0xc
     706:	0000                	unimp
     708:	06b4                	addi	a3,sp,840
	...
     712:	0000                	unimp
     714:	0028                	addi	a0,sp,8
     716:	0000                	unimp
     718:	06b4                	addi	a3,sp,840
     71a:	0000                	unimp
     71c:	6944                	flw	fs1,20(a0)
     71e:	8000                	0x8000
     720:	0046                	c.slli	zero,0x11
     722:	0000                	unimp
     724:	0e42                	slli	t3,t3,0x10
     726:	4610                	lw	a2,8(a2)
     728:	0389                	addi	t2,t2,2
     72a:	924a                	add	tp,tp,s2
     72c:	4604                	lw	s1,8(a2)
     72e:	0288                	addi	a0,sp,320
     730:	0181                	addi	gp,gp,0
     732:	c164                	sw	s1,68(a0)
     734:	c842                	sw	a6,16(sp)
     736:	c942                	sw	a6,144(sp)
     738:	d242                	sw	a6,36(sp)
     73a:	0e42                	slli	t3,t3,0x10
     73c:	0000                	unimp
     73e:	0000                	unimp
     740:	000c                	0xc
     742:	0000                	unimp
     744:	06b4                	addi	a3,sp,840
	...
     74e:	0000                	unimp
     750:	001c                	0x1c
     752:	0000                	unimp
     754:	06b4                	addi	a3,sp,840
     756:	0000                	unimp
     758:	698a                	flw	fs3,128(sp)
     75a:	8000                	0x8000
     75c:	006a                	c.slli	zero,0x1a
     75e:	0000                	unimp
     760:	0e46                	slli	t3,t3,0x11
     762:	4410                	lw	a2,8(s0)
     764:	0181                	addi	gp,gp,0
     766:	0288                	addi	a0,sp,320
     768:	5802                	lw	a6,32(sp)
     76a:	42c1                	li	t0,16
     76c:	42c8                	lw	a0,4(a3)
     76e:	000e                	c.slli	zero,0x3
     770:	0028                	addi	a0,sp,8
     772:	0000                	unimp
     774:	06b4                	addi	a3,sp,840
     776:	0000                	unimp
     778:	69f4                	flw	fa3,84(a1)
     77a:	8000                	0x8000
     77c:	009e                	slli	ra,ra,0x7
     77e:	0000                	unimp
     780:	0e42                	slli	t3,t3,0x10
     782:	4a10                	lw	a2,16(a2)
     784:	0389                	addi	t2,t2,2
     786:	924a                	add	tp,tp,s2
     788:	8104                	0x8104
     78a:	8801                	andi	s0,s0,0
     78c:	0202                	c.slli64	tp
     78e:	0a64                	addi	s1,sp,284
     790:	42c1                	li	t0,16
     792:	42c8                	lw	a0,4(a3)
     794:	42c9                	li	t0,18
     796:	42d2                	lw	t0,20(sp)
     798:	000e                	c.slli	zero,0x3
     79a:	0b42                	slli	s6,s6,0x10
     79c:	000c                	0xc
     79e:	0000                	unimp
     7a0:	06b4                	addi	a3,sp,840
	...
     7aa:	0000                	unimp
     7ac:	000c                	0xc
     7ae:	0000                	unimp
     7b0:	06b4                	addi	a3,sp,840
	...
     7ba:	0000                	unimp
     7bc:	000c                	0xc
     7be:	0000                	unimp
     7c0:	06b4                	addi	a3,sp,840
	...
     7ca:	0000                	unimp
     7cc:	000c                	0xc
     7ce:	0000                	unimp
     7d0:	06b4                	addi	a3,sp,840
	...
     7da:	0000                	unimp
     7dc:	000c                	0xc
     7de:	0000                	unimp
     7e0:	06b4                	addi	a3,sp,840
	...
     7ea:	0000                	unimp
     7ec:	000c                	0xc
     7ee:	0000                	unimp
     7f0:	06b4                	addi	a3,sp,840
	...
     7fa:	0000                	unimp
     7fc:	000c                	0xc
     7fe:	0000                	unimp
     800:	ffff                	0xffff
     802:	ffff                	0xffff
     804:	0001                	nop
     806:	7c01                	lui	s8,0xfffe0
     808:	0d01                	addi	s10,s10,0
     80a:	0002                	c.slli64	zero
     80c:	0034                	addi	a3,sp,8
     80e:	0000                	unimp
     810:	07fc                	addi	a5,sp,972
	...
     81a:	0000                	unimp
     81c:	0e42                	slli	t3,t3,0x10
     81e:	4e30                	lw	a2,88(a2)
     820:	0288                	addi	a0,sp,320
     822:	0492                	slli	s1,s1,0x4
     824:	0694                	addi	a3,sp,832
     826:	0795                	addi	a5,a5,5
     828:	0181                	addi	gp,gp,0
     82a:	0389                	addi	t2,t2,2
     82c:	0a400593          	li	a1,164
     830:	42c1                	li	t0,16
     832:	44c8                	lw	a0,12(s1)
     834:	42c9                	li	t0,18
     836:	42d2                	lw	t0,20(sp)
     838:	42d442d3          	0x42d442d3
     83c:	42d5                	li	t0,21
     83e:	000e                	c.slli	zero,0x3
     840:	0b42                	slli	s6,s6,0x10
     842:	0000                	unimp
     844:	003c                	addi	a5,sp,8
     846:	0000                	unimp
     848:	07fc                	addi	a5,sp,972
     84a:	0000                	unimp
     84c:	6a92                	flw	fs5,4(sp)
     84e:	8000                	0x8000
     850:	006c                	addi	a1,sp,12
     852:	0000                	unimp
     854:	0e42                	slli	t3,t3,0x10
     856:	5230                	lw	a2,96(a2)
     858:	0288                	addi	a0,sp,320
     85a:	0492                	slli	s1,s1,0x4
     85c:	0694                	addi	a3,sp,832
     85e:	0795                	addi	a5,a5,5
     860:	0896                	slli	a7,a7,0x5
     862:	01810997          	auipc	s3,0x1810
     866:	0389                	addi	t2,t2,2
     868:	0a520593          	addi	a1,tp,165 # a5 <__stack_size-0x75b>
     86c:	42c1                	li	t0,16
     86e:	44c8                	lw	a0,12(s1)
     870:	42c9                	li	t0,18
     872:	42d2                	lw	t0,20(sp)
     874:	42d442d3          	0x42d442d3
     878:	42d5                	li	t0,21
     87a:	42d6                	lw	t0,84(sp)
     87c:	000e42d7          	0xe42d7
     880:	0b42                	slli	s6,s6,0x10
     882:	0000                	unimp
     884:	000c                	0xc
     886:	0000                	unimp
     888:	ffff                	0xffff
     88a:	ffff                	0xffff
     88c:	0001                	nop
     88e:	7c01                	lui	s8,0xfffe0
     890:	0d01                	addi	s10,s10,0
     892:	0002                	c.slli64	zero
     894:	000c                	0xc
     896:	0000                	unimp
     898:	0884                	addi	s1,sp,80
	...
     8a2:	0000                	unimp
     8a4:	000c                	0xc
     8a6:	0000                	unimp
     8a8:	0884                	addi	s1,sp,80
     8aa:	0000                	unimp
     8ac:	6afe                	flw	fs5,220(sp)
     8ae:	8000                	0x8000
     8b0:	000a                	c.slli	zero,0x2
     8b2:	0000                	unimp
     8b4:	000c                	0xc
     8b6:	0000                	unimp
     8b8:	0884                	addi	s1,sp,80
	...
     8c2:	0000                	unimp
     8c4:	000c                	0xc
     8c6:	0000                	unimp
     8c8:	ffff                	0xffff
     8ca:	ffff                	0xffff
     8cc:	0001                	nop
     8ce:	7c01                	lui	s8,0xfffe0
     8d0:	0d01                	addi	s10,s10,0
     8d2:	0002                	c.slli64	zero
     8d4:	0024                	addi	s1,sp,8
     8d6:	0000                	unimp
     8d8:	08c4                	addi	s1,sp,84
     8da:	0000                	unimp
     8dc:	6b08                	flw	fa0,16(a4)
     8de:	8000                	0x8000
     8e0:	005a                	c.slli	zero,0x16
     8e2:	0000                	unimp
     8e4:	0e42                	slli	t3,t3,0x10
     8e6:	0180                	addi	s0,sp,192
     8e8:	8942                	mv	s2,a6
     8ea:	02884a03          	lbu	s4,40(a6)
     8ee:	0181                	addi	gp,gp,0
     8f0:	4202                	lw	tp,0(sp)
     8f2:	42c1                	li	t0,16
     8f4:	42c8                	lw	a0,4(a3)
     8f6:	44c9                	li	s1,18
     8f8:	000e                	c.slli	zero,0x3
     8fa:	0000                	unimp
     8fc:	0028                	addi	a0,sp,8
     8fe:	0000                	unimp
     900:	08c4                	addi	s1,sp,84
     902:	0000                	unimp
     904:	6b62                	flw	fs6,24(sp)
     906:	8000                	0x8000
     908:	00a0                	addi	s0,sp,72
     90a:	0000                	unimp
     90c:	0e46                	slli	t3,t3,0x11
     90e:	4820                	lw	s0,80(s0)
     910:	0288                	addi	a0,sp,320
     912:	0181                	addi	gp,gp,0
     914:	0389                	addi	t2,t2,2
     916:	0492                	slli	s1,s1,0x4
     918:	0a54                	addi	a3,sp,276
     91a:	42c1                	li	t0,16
     91c:	42c8                	lw	a0,4(a3)
     91e:	42c9                	li	t0,18
     920:	42d2                	lw	t0,20(sp)
     922:	000e                	c.slli	zero,0x3
     924:	0b42                	slli	s6,s6,0x10
     926:	0000                	unimp
     928:	000c                	0xc
     92a:	0000                	unimp
     92c:	ffff                	0xffff
     92e:	ffff                	0xffff
     930:	0001                	nop
     932:	7c01                	lui	s8,0xfffe0
     934:	0d01                	addi	s10,s10,0
     936:	0002                	c.slli64	zero
     938:	000c                	0xc
     93a:	0000                	unimp
     93c:	0928                	addi	a0,sp,152
     93e:	0000                	unimp
     940:	6c02                	flw	fs8,0(sp)
     942:	8000                	0x8000
     944:	000c                	0xc
     946:	0000                	unimp
     948:	000c                	0xc
     94a:	0000                	unimp
     94c:	0928                	addi	a0,sp,152
	...
     956:	0000                	unimp
     958:	000c                	0xc
     95a:	0000                	unimp
     95c:	ffff                	0xffff
     95e:	ffff                	0xffff
     960:	0001                	nop
     962:	7c01                	lui	s8,0xfffe0
     964:	0d01                	addi	s10,s10,0
     966:	0002                	c.slli64	zero
     968:	000c                	0xc
     96a:	0000                	unimp
     96c:	0958                	addi	a4,sp,148
     96e:	0000                	unimp
     970:	6c0e                	flw	fs8,192(sp)
     972:	8000                	0x8000
     974:	001a                	c.slli	zero,0x6
     976:	0000                	unimp
     978:	000c                	0xc
     97a:	0000                	unimp
     97c:	ffff                	0xffff
     97e:	ffff                	0xffff
     980:	0001                	nop
     982:	7c01                	lui	s8,0xfffe0
     984:	0d01                	addi	s10,s10,0
     986:	0002                	c.slli64	zero
     988:	0028                	addi	a0,sp,8
     98a:	0000                	unimp
     98c:	0978                	addi	a4,sp,156
     98e:	0000                	unimp
     990:	6c4e                	flw	fs8,208(sp)
     992:	8000                	0x8000
     994:	0086                	slli	ra,ra,0x1
     996:	0000                	unimp
     998:	0e44                	addi	s1,sp,788
     99a:	4810                	lw	a2,16(s0)
     99c:	0288                	addi	a0,sp,320
     99e:	0492                	slli	s1,s1,0x4
     9a0:	0181                	addi	gp,gp,0
     9a2:	0389                	addi	t2,t2,2
     9a4:	6202                	flw	ft4,0(sp)
     9a6:	c10a                	sw	sp,128(sp)
     9a8:	c842                	sw	a6,16(sp)
     9aa:	c942                	sw	a6,144(sp)
     9ac:	d242                	sw	a6,36(sp)
     9ae:	0e42                	slli	t3,t3,0x10
     9b0:	4200                	lw	s0,0(a2)
     9b2:	001c000b          	0x1c000b
     9b6:	0000                	unimp
     9b8:	0978                	addi	a4,sp,156
     9ba:	0000                	unimp
     9bc:	6cd4                	flw	fa3,28(s1)
     9be:	8000                	0x8000
     9c0:	0042                	c.slli	zero,0x10
     9c2:	0000                	unimp
     9c4:	0e44                	addi	s1,sp,788
     9c6:	4420                	lw	s0,72(s0)
     9c8:	0288                	addi	a0,sp,320
     9ca:	0181                	addi	gp,gp,0
     9cc:	c174                	sw	a3,68(a0)
     9ce:	c842                	sw	a6,16(sp)
     9d0:	0e42                	slli	t3,t3,0x10
     9d2:	0000                	unimp
     9d4:	002c                	addi	a1,sp,8
     9d6:	0000                	unimp
     9d8:	0978                	addi	a4,sp,156
     9da:	0000                	unimp
     9dc:	6d16                	flw	fs10,68(sp)
     9de:	8000                	0x8000
     9e0:	0092                	slli	ra,ra,0x4
     9e2:	0000                	unimp
     9e4:	0e42                	slli	t3,t3,0x10
     9e6:	4230                	lw	a2,64(a2)
     9e8:	88480593          	addi	a1,a6,-1916
     9ec:	8902                	jr	s2
     9ee:	01814803          	lbu	a6,24(sp)
     9f2:	0492                	slli	s1,s1,0x4
     9f4:	7202                	flw	ft4,32(sp)
     9f6:	42c1                	li	t0,16
     9f8:	42c8                	lw	a0,4(a3)
     9fa:	42c9                	li	t0,18
     9fc:	42d2                	lw	t0,20(sp)
     9fe:	000e42d3          	fadd.s	ft5,ft8,ft0,rmm
     a02:	0000                	unimp
     a04:	0038                	addi	a4,sp,8
     a06:	0000                	unimp
     a08:	0978                	addi	a4,sp,156
	...
     a12:	0000                	unimp
     a14:	0e42                	slli	t3,t3,0x10
     a16:	4630                	lw	a2,72(a2)
     a18:	0694                	addi	a3,sp,832
     a1a:	884a                	mv	a6,s2
     a1c:	8902                	jr	s2
     a1e:	4c059303          	lh	t1,1216(a1)
     a22:	0181                	addi	gp,gp,0
     a24:	0492                	slli	s1,s1,0x4
     a26:	0795                	addi	a5,a5,5
     a28:	0002                	c.slli64	zero
     a2a:	c10a                	sw	sp,128(sp)
     a2c:	c842                	sw	a6,16(sp)
     a2e:	c942                	sw	a6,144(sp)
     a30:	d242                	sw	a6,36(sp)
     a32:	d342                	sw	a6,164(sp)
     a34:	d442                	sw	a6,40(sp)
     a36:	d542                	sw	a6,168(sp)
     a38:	0e42                	slli	t3,t3,0x10
     a3a:	4200                	lw	s0,0(a2)
     a3c:	0000000b          	0xb
     a40:	000c                	0xc
     a42:	0000                	unimp
     a44:	0978                	addi	a4,sp,156
     a46:	0000                	unimp
     a48:	6da8                	flw	fa0,88(a1)
     a4a:	8000                	0x8000
     a4c:	0046                	c.slli	zero,0x11
     a4e:	0000                	unimp
     a50:	000c                	0xc
     a52:	0000                	unimp
     a54:	0978                	addi	a4,sp,156
     a56:	0000                	unimp
     a58:	6dee                	flw	fs11,216(sp)
     a5a:	8000                	0x8000
     a5c:	006a                	c.slli	zero,0x1a
     a5e:	0000                	unimp
     a60:	001c                	0x1c
     a62:	0000                	unimp
     a64:	0978                	addi	a4,sp,156
     a66:	0000                	unimp
     a68:	6e58                	flw	fa4,28(a2)
     a6a:	8000                	0x8000
     a6c:	001a                	c.slli	zero,0x6
     a6e:	0000                	unimp
     a70:	0e42                	slli	t3,t3,0x10
     a72:	4210                	lw	a2,0(a2)
     a74:	0288                	addi	a0,sp,320
     a76:	8146                	mv	sp,a7
     a78:	4601                	li	a2,0
     a7a:	42c1                	li	t0,16
     a7c:	46c8                	lw	a0,12(a3)
     a7e:	000e                	c.slli	zero,0x3
     a80:	002c                	addi	a1,sp,8
     a82:	0000                	unimp
     a84:	0978                	addi	a4,sp,156
     a86:	0000                	unimp
     a88:	6e72                	flw	ft8,28(sp)
     a8a:	8000                	0x8000
     a8c:	0144                	addi	s1,sp,132
     a8e:	0000                	unimp
     a90:	0e46                	slli	t3,t3,0x11
     a92:	4a30                	lw	a2,80(a2)
     a94:	0389                	addi	t2,t2,2
     a96:	0181                	addi	gp,gp,0
     a98:	0288                	addi	a0,sp,320
     a9a:	0492                	slli	s1,s1,0x4
     a9c:	62020593          	addi	a1,tp,1568 # 620 <__stack_size-0x1e0>
     aa0:	c10a                	sw	sp,128(sp)
     aa2:	c842                	sw	a6,16(sp)
     aa4:	c942                	sw	a6,144(sp)
     aa6:	d242                	sw	a6,36(sp)
     aa8:	d342                	sw	a6,164(sp)
     aaa:	0e42                	slli	t3,t3,0x10
     aac:	4200                	lw	s0,0(a2)
     aae:	002c000b          	0x2c000b
     ab2:	0000                	unimp
     ab4:	0978                	addi	a4,sp,156
     ab6:	0000                	unimp
     ab8:	6fb6                	flw	ft11,76(sp)
     aba:	8000                	0x8000
     abc:	00b8                	addi	a4,sp,72
     abe:	0000                	unimp
     ac0:	0e42                	slli	t3,t3,0x10
     ac2:	4c20                	lw	s0,88(s0)
     ac4:	0389                	addi	t2,t2,2
     ac6:	0492                	slli	s1,s1,0x4
     ac8:	01810593          	addi	a1,sp,24
     acc:	0288                	addi	a0,sp,320
     ace:	0694                	addi	a3,sp,832
     ad0:	9a02                	jalr	s4
     ad2:	42c1                	li	t0,16
     ad4:	44c8                	lw	a0,12(s1)
     ad6:	42c9                	li	t0,18
     ad8:	42d2                	lw	t0,20(sp)
     ada:	42d442d3          	0x42d442d3
     ade:	000e                	c.slli	zero,0x3
     ae0:	0038                	addi	a4,sp,8
     ae2:	0000                	unimp
     ae4:	0978                	addi	a4,sp,156
     ae6:	0000                	unimp
     ae8:	706e                	flw	ft0,248(sp)
     aea:	8000                	0x8000
     aec:	00ce                	slli	ra,ra,0x13
     aee:	0000                	unimp
     af0:	0e42                	slli	t3,t3,0x10
     af2:	4230                	lw	a2,64(a2)
     af4:	0389                	addi	t2,t2,2
     af6:	9344                	0x9344
     af8:	4805                	li	a6,1
     afa:	0288                	addi	a0,sp,320
     afc:	9250                	0x9250
     afe:	9504                	0x9504
     b00:	94018107          	0x94018107
     b04:	0206                	slli	tp,tp,0x1
     b06:	0a7c                	addi	a5,sp,284
     b08:	42c1                	li	t0,16
     b0a:	44c8                	lw	a0,12(s1)
     b0c:	42c9                	li	t0,18
     b0e:	42d2                	lw	t0,20(sp)
     b10:	42d442d3          	0x42d442d3
     b14:	42d5                	li	t0,21
     b16:	000e                	c.slli	zero,0x3
     b18:	0b42                	slli	s6,s6,0x10
     b1a:	0000                	unimp
     b1c:	000c                	0xc
     b1e:	0000                	unimp
     b20:	0978                	addi	a4,sp,156
     b22:	0000                	unimp
     b24:	713c                	flw	fa5,96(a0)
     b26:	8000                	0x8000
     b28:	0032                	c.slli	zero,0xc
     b2a:	0000                	unimp
     b2c:	002c                	addi	a1,sp,8
     b2e:	0000                	unimp
     b30:	0978                	addi	a4,sp,156
     b32:	0000                	unimp
     b34:	716e                	flw	ft2,248(sp)
     b36:	8000                	0x8000
     b38:	00f0                	addi	a2,sp,76
     b3a:	0000                	unimp
     b3c:	0e42                	slli	t3,t3,0x10
     b3e:	4220                	lw	s0,64(a2)
     b40:	0389                	addi	t2,t2,2
     b42:	9346                	add	t1,t1,a7
     b44:	4a05                	li	s4,1
     b46:	0288                	addi	a0,sp,320
     b48:	0181                	addi	gp,gp,0
     b4a:	0492                	slli	s1,s1,0x4
     b4c:	0a58                	addi	a4,sp,276
     b4e:	42c1                	li	t0,16
     b50:	42c8                	lw	a0,4(a3)
     b52:	42c9                	li	t0,18
     b54:	42d2                	lw	t0,20(sp)
     b56:	000e42d3          	fadd.s	ft5,ft8,ft0,rmm
     b5a:	0b42                	slli	s6,s6,0x10
     b5c:	000c                	0xc
     b5e:	0000                	unimp
     b60:	0978                	addi	a4,sp,156
	...
     b6a:	0000                	unimp
     b6c:	0030                	addi	a2,sp,8
     b6e:	0000                	unimp
     b70:	0978                	addi	a4,sp,156
	...
     b7a:	0000                	unimp
     b7c:	0e42                	slli	t3,t3,0x10
     b7e:	4230                	lw	a2,64(a2)
     b80:	0389                	addi	t2,t2,2
     b82:	9344                	0x9344
     b84:	4a05                	li	s4,1
     b86:	0288                	addi	a0,sp,320
     b88:	924c                	0x924c
     b8a:	8104                	0x8104
     b8c:	0201                	addi	tp,tp,0
     b8e:	0a00                	addi	s0,sp,272
     b90:	42c1                	li	t0,16
     b92:	42c8                	lw	a0,4(a3)
     b94:	42c9                	li	t0,18
     b96:	42d2                	lw	t0,20(sp)
     b98:	000e46d3          	fadd.s	fa3,ft8,ft0,rmm
     b9c:	0b42                	slli	s6,s6,0x10
     b9e:	0000                	unimp
     ba0:	0034                	addi	a3,sp,8
     ba2:	0000                	unimp
     ba4:	0978                	addi	a4,sp,156
     ba6:	0000                	unimp
     ba8:	725e                	flw	ft4,244(sp)
     baa:	8000                	0x8000
     bac:	00d4                	addi	a3,sp,68
     bae:	0000                	unimp
     bb0:	0e42                	slli	t3,t3,0x10
     bb2:	4230                	lw	a2,64(a2)
     bb4:	0288                	addi	a0,sp,320
     bb6:	8948                	0x8948
     bb8:	4a049203          	lh	tp,1184(s1)
     bbc:	06940593          	addi	a1,s0,105
     bc0:	0181                	addi	gp,gp,0
     bc2:	6c02                	flw	fs8,0(sp)
     bc4:	c10a                	sw	sp,128(sp)
     bc6:	c842                	sw	a6,16(sp)
     bc8:	c944                	sw	s1,20(a0)
     bca:	d242                	sw	a6,36(sp)
     bcc:	d342                	sw	a6,164(sp)
     bce:	d442                	sw	a6,40(sp)
     bd0:	0e42                	slli	t3,t3,0x10
     bd2:	4200                	lw	s0,0(a2)
     bd4:	0000000b          	0xb
     bd8:	0030                	addi	a2,sp,8
     bda:	0000                	unimp
     bdc:	0978                	addi	a4,sp,156
	...
     be6:	0000                	unimp
     be8:	0e42                	slli	t3,t3,0x10
     bea:	4230                	lw	a2,64(a2)
     bec:	0492                	slli	s1,s1,0x4
     bee:	814e                	mv	sp,s3
     bf0:	8801                	andi	s0,s0,0
     bf2:	8902                	jr	s2
     bf4:	94059303          	lh	t1,-1728(a1)
     bf8:	0206                	slli	tp,tp,0x1
     bfa:	0a00                	addi	s0,sp,272
     bfc:	42c1                	li	t0,16
     bfe:	42c8                	lw	a0,4(a3)
     c00:	42c9                	li	t0,18
     c02:	42d2                	lw	t0,20(sp)
     c04:	42d442d3          	0x42d442d3
     c08:	000e                	c.slli	zero,0x3
     c0a:	0b42                	slli	s6,s6,0x10
     c0c:	0028                	addi	a0,sp,8
     c0e:	0000                	unimp
     c10:	0978                	addi	a4,sp,156
	...
     c1a:	0000                	unimp
     c1c:	0e42                	slli	t3,t3,0x10
     c1e:	4810                	lw	a2,16(s0)
     c20:	0288                	addi	a0,sp,320
     c22:	0181                	addi	gp,gp,0
     c24:	0392                	slli	t2,t2,0x4
     c26:	0a400493          	li	s1,164
     c2a:	42c1                	li	t0,16
     c2c:	42c8                	lw	a0,4(a3)
     c2e:	42d2                	lw	t0,20(sp)
     c30:	000e42d3          	fadd.s	ft5,ft8,ft0,rmm
     c34:	0b42                	slli	s6,s6,0x10
     c36:	0000                	unimp
     c38:	000c                	0xc
     c3a:	0000                	unimp
     c3c:	0978                	addi	a4,sp,156
	...
     c46:	0000                	unimp
     c48:	000c                	0xc
     c4a:	0000                	unimp
     c4c:	0978                	addi	a4,sp,156
	...
     c56:	0000                	unimp
     c58:	000c                	0xc
     c5a:	0000                	unimp
     c5c:	ffff                	0xffff
     c5e:	ffff                	0xffff
     c60:	0001                	nop
     c62:	7c01                	lui	s8,0xfffe0
     c64:	0d01                	addi	s10,s10,0
     c66:	0002                	c.slli64	zero
     c68:	001c                	0x1c
     c6a:	0000                	unimp
     c6c:	0c58                	addi	a4,sp,532
     c6e:	0000                	unimp
     c70:	7332                	flw	ft6,44(sp)
     c72:	8000                	0x8000
     c74:	0026                	c.slli	zero,0x9
     c76:	0000                	unimp
     c78:	0e46                	slli	t3,t3,0x11
     c7a:	4420                	lw	s0,72(s0)
     c7c:	0288                	addi	a0,sp,320
     c7e:	0181                	addi	gp,gp,0
     c80:	c156                	sw	s5,128(sp)
     c82:	c842                	sw	a6,16(sp)
     c84:	0e42                	slli	t3,t3,0x10
     c86:	0000                	unimp
     c88:	000c                	0xc
     c8a:	0000                	unimp
     c8c:	ffff                	0xffff
     c8e:	ffff                	0xffff
     c90:	0001                	nop
     c92:	7c01                	lui	s8,0xfffe0
     c94:	0d01                	addi	s10,s10,0
     c96:	0002                	c.slli64	zero
     c98:	002c                	addi	a1,sp,8
     c9a:	0000                	unimp
     c9c:	0c88                	addi	a0,sp,592
     c9e:	0000                	unimp
     ca0:	7358                	flw	fa4,36(a4)
     ca2:	8000                	0x8000
     ca4:	00a4                	addi	s1,sp,72
     ca6:	0000                	unimp
     ca8:	0e48                	addi	a0,sp,788
     caa:	4610                	lw	a2,8(a2)
     cac:	0288                	addi	a0,sp,320
     cae:	0181                	addi	gp,gp,0
     cb0:	0389                	addi	t2,t2,2
     cb2:	0a60                	addi	s0,sp,284
     cb4:	42c8                	lw	a0,4(a3)
     cb6:	44c1                	li	s1,16
     cb8:	42c9                	li	t0,18
     cba:	000e                	c.slli	zero,0x3
     cbc:	0b42                	slli	s6,s6,0x10
     cbe:	6a02                	flw	fs4,0(sp)
     cc0:	000e                	c.slli	zero,0x3
     cc2:	c8c1                	beqz	s1,d52 <__stack_size+0x552>
     cc4:	00c9                	addi	ra,ra,18
     cc6:	0000                	unimp
     cc8:	000c                	0xc
     cca:	0000                	unimp
     ccc:	ffff                	0xffff
     cce:	ffff                	0xffff
     cd0:	0001                	nop
     cd2:	7c01                	lui	s8,0xfffe0
     cd4:	0d01                	addi	s10,s10,0
     cd6:	0002                	c.slli64	zero
     cd8:	002c                	addi	a1,sp,8
     cda:	0000                	unimp
     cdc:	0cc8                	addi	a0,sp,596
     cde:	0000                	unimp
     ce0:	73fc                	flw	fa5,100(a5)
     ce2:	8000                	0x8000
     ce4:	00ce                	slli	ra,ra,0x13
     ce6:	0000                	unimp
     ce8:	0e42                	slli	t3,t3,0x10
     cea:	4220                	lw	s0,64(a2)
     cec:	0389                	addi	t2,t2,2
     cee:	814e                	mv	sp,s3
     cf0:	8801                	andi	s0,s0,0
     cf2:	9202                	jalr	tp
     cf4:	9304                	0x9304
     cf6:	0205                	addi	tp,tp,1
     cf8:	0a52                	slli	s4,s4,0x14
     cfa:	42c1                	li	t0,16
     cfc:	42c8                	lw	a0,4(a3)
     cfe:	42c9                	li	t0,18
     d00:	42d2                	lw	t0,20(sp)
     d02:	000e42d3          	fadd.s	ft5,ft8,ft0,rmm
     d06:	0b42                	slli	s6,s6,0x10
     d08:	000c                	0xc
     d0a:	0000                	unimp
     d0c:	ffff                	0xffff
     d0e:	ffff                	0xffff
     d10:	0001                	nop
     d12:	7c01                	lui	s8,0xfffe0
     d14:	0d01                	addi	s10,s10,0
     d16:	0002                	c.slli64	zero
     d18:	000c                	0xc
     d1a:	0000                	unimp
     d1c:	0d08                	addi	a0,sp,656
     d1e:	0000                	unimp
     d20:	74ca                	flw	fs1,176(sp)
     d22:	8000                	0x8000
     d24:	002a                	c.slli	zero,0xa
     d26:	0000                	unimp
     d28:	002c                	addi	a1,sp,8
     d2a:	0000                	unimp
     d2c:	0d08                	addi	a0,sp,656
     d2e:	0000                	unimp
     d30:	74f4                	flw	fa3,108(s1)
     d32:	8000                	0x8000
     d34:	0042                	c.slli	zero,0x10
     d36:	0000                	unimp
     d38:	0e42                	slli	t3,t3,0x10
     d3a:	4c20                	lw	s0,88(s0)
     d3c:	0288                	addi	a0,sp,320
     d3e:	0389                	addi	t2,t2,2
     d40:	0492                	slli	s1,s1,0x4
     d42:	06940593          	addi	a1,s0,105
     d46:	0181                	addi	gp,gp,0
     d48:	c166                	sw	s9,128(sp)
     d4a:	c842                	sw	a6,16(sp)
     d4c:	c942                	sw	a6,144(sp)
     d4e:	d242                	sw	a6,36(sp)
     d50:	d342                	sw	a6,164(sp)
     d52:	d442                	sw	a6,40(sp)
     d54:	0e42                	slli	t3,t3,0x10
     d56:	0000                	unimp
     d58:	0020                	addi	s0,sp,8
     d5a:	0000                	unimp
     d5c:	0d08                	addi	a0,sp,656
	...
     d66:	0000                	unimp
     d68:	0e44                	addi	s1,sp,788
     d6a:	4410                	lw	a2,8(s0)
     d6c:	0288                	addi	a0,sp,320
     d6e:	0181                	addi	gp,gp,0
     d70:	0a40                	addi	s0,sp,276
     d72:	42c1                	li	t0,16
     d74:	42c8                	lw	a0,4(a3)
     d76:	000e                	c.slli	zero,0x3
     d78:	0b42                	slli	s6,s6,0x10
     d7a:	0000                	unimp
     d7c:	0048                	addi	a0,sp,4
     d7e:	0000                	unimp
     d80:	0d08                	addi	a0,sp,656
     d82:	0000                	unimp
     d84:	7536                	flw	fa0,108(sp)
     d86:	8000                	0x8000
     d88:	029e                	slli	t0,t0,0x7
     d8a:	0000                	unimp
     d8c:	0e42                	slli	t3,t3,0x10
     d8e:	01a0                	addi	s0,sp,200
     d90:	8856                	mv	a6,s5
     d92:	8902                	jr	s2
     d94:	93049203          	lh	tp,-1744(s1)
     d98:	8105                	srli	a0,a0,0x1
     d9a:	9401                	srai	s0,s0,0x20
     d9c:	9506                	add	a0,a0,ra
     d9e:	97089607          	0x97089607
     da2:	9809                	andi	s0,s0,-30
     da4:	990a                	add	s2,s2,sp
     da6:	0124030b          	0x124030b
     daa:	c10a                	sw	sp,128(sp)
     dac:	c842                	sw	a6,16(sp)
     dae:	c942                	sw	a6,144(sp)
     db0:	d242                	sw	a6,36(sp)
     db2:	d342                	sw	a6,164(sp)
     db4:	d442                	sw	a6,40(sp)
     db6:	d542                	sw	a6,168(sp)
     db8:	d642                	sw	a6,44(sp)
     dba:	d742                	sw	a6,172(sp)
     dbc:	d842                	sw	a6,48(sp)
     dbe:	d942                	sw	a6,176(sp)
     dc0:	0e42                	slli	t3,t3,0x10
     dc2:	4200                	lw	s0,0(a2)
     dc4:	0000000b          	0xb
     dc8:	000c                	0xc
     dca:	0000                	unimp
     dcc:	0d08                	addi	a0,sp,656
	...
     dd6:	0000                	unimp
     dd8:	000c                	0xc
     dda:	0000                	unimp
     ddc:	ffff                	0xffff
     dde:	ffff                	0xffff
     de0:	0001                	nop
     de2:	7c01                	lui	s8,0xfffe0
     de4:	0d01                	addi	s10,s10,0
     de6:	0002                	c.slli64	zero
     de8:	0028                	addi	a0,sp,8
     dea:	0000                	unimp
     dec:	0dd8                	addi	a4,sp,724
     dee:	0000                	unimp
     df0:	77d4                	flw	fa3,44(a5)
     df2:	8000                	0x8000
     df4:	0086                	slli	ra,ra,0x1
     df6:	0000                	unimp
     df8:	0e42                	slli	t3,t3,0x10
     dfa:	4420                	lw	s0,72(s0)
     dfc:	0288                	addi	a0,sp,320
     dfe:	0181                	addi	gp,gp,0
     e00:	4002                	0x4002
     e02:	c80a                	sw	sp,16(sp)
     e04:	c142                	sw	a6,128(sp)
     e06:	0e42                	slli	t3,t3,0x10
     e08:	4400                	lw	s0,8(s0)
     e0a:	42c1720b          	0x42c1720b
     e0e:	42c8                	lw	a0,4(a3)
     e10:	000e                	c.slli	zero,0x3
     e12:	0000                	unimp
     e14:	000c                	0xc
     e16:	0000                	unimp
     e18:	0dd8                	addi	a4,sp,724
	...
     e22:	0000                	unimp
     e24:	000c                	0xc
     e26:	0000                	unimp
     e28:	ffff                	0xffff
     e2a:	ffff                	0xffff
     e2c:	0001                	nop
     e2e:	7c01                	lui	s8,0xfffe0
     e30:	0d01                	addi	s10,s10,0
     e32:	0002                	c.slli64	zero
     e34:	0020                	addi	s0,sp,8
     e36:	0000                	unimp
     e38:	0e24                	addi	s1,sp,792
	...
     e42:	0000                	unimp
     e44:	0e42                	slli	t3,t3,0x10
     e46:	4210                	lw	a2,0(a2)
     e48:	0288                	addi	a0,sp,320
     e4a:	8948                	0x8948
     e4c:	40018103          	lb	sp,1024(gp) # 90001850 <__global_pointer$+0x400>
     e50:	42c8                	lw	a0,4(a3)
     e52:	44c1                	li	s1,16
     e54:	42c9                	li	t0,18
     e56:	000e                	c.slli	zero,0x3
     e58:	0038                	addi	a4,sp,8
     e5a:	0000                	unimp
     e5c:	0e24                	addi	s1,sp,792
	...
     e66:	0000                	unimp
     e68:	0e40                	addi	s0,sp,788
     e6a:	4a20                	lw	s0,80(a2)
     e6c:	0288                	addi	a0,sp,320
     e6e:	0181                	addi	gp,gp,0
     e70:	0389                	addi	t2,t2,2
     e72:	0492                	slli	s1,s1,0x4
     e74:	00020593          	mv	a1,tp
     e78:	c80a                	sw	sp,16(sp)
     e7a:	c142                	sw	a6,128(sp)
     e7c:	c942                	sw	a6,144(sp)
     e7e:	d242                	sw	a6,36(sp)
     e80:	d342                	sw	a6,164(sp)
     e82:	0e42                	slli	t3,t3,0x10
     e84:	4000                	lw	s0,0(s0)
     e86:	42c1400b          	0x42c1400b
     e8a:	42c8                	lw	a0,4(a3)
     e8c:	42c9                	li	t0,18
     e8e:	42d2                	lw	t0,20(sp)
     e90:	000e42d3          	fadd.s	ft5,ft8,ft0,rmm
     e94:	000c                	0xc
     e96:	0000                	unimp
     e98:	ffff                	0xffff
     e9a:	ffff                	0xffff
     e9c:	0001                	nop
     e9e:	7c01                	lui	s8,0xfffe0
     ea0:	0d01                	addi	s10,s10,0
     ea2:	0002                	c.slli64	zero
     ea4:	001c                	0x1c
     ea6:	0000                	unimp
     ea8:	0e94                	addi	a3,sp,848
     eaa:	0000                	unimp
     eac:	785a                	flw	fa6,180(sp)
     eae:	8000                	0x8000
     eb0:	002a                	c.slli	zero,0xa
     eb2:	0000                	unimp
     eb4:	0e42                	slli	t3,t3,0x10
     eb6:	4210                	lw	a2,0(a2)
     eb8:	0288                	addi	a0,sp,320
     eba:	814a                	mv	sp,s2
     ebc:	5601                	li	a2,-32
     ebe:	42c1                	li	t0,16
     ec0:	42c8                	lw	a0,4(a3)
     ec2:	000e                	c.slli	zero,0x3
     ec4:	000c                	0xc
     ec6:	0000                	unimp
     ec8:	ffff                	0xffff
     eca:	ffff                	0xffff
     ecc:	0001                	nop
     ece:	7c01                	lui	s8,0xfffe0
     ed0:	0d01                	addi	s10,s10,0
     ed2:	0002                	c.slli64	zero
     ed4:	0020                	addi	s0,sp,8
     ed6:	0000                	unimp
     ed8:	0ec4                	addi	s1,sp,852
     eda:	0000                	unimp
     edc:	7884                	flw	fs1,48(s1)
     ede:	8000                	0x8000
     ee0:	0030                	addi	a2,sp,8
     ee2:	0000                	unimp
     ee4:	0e42                	slli	t3,t3,0x10
     ee6:	4210                	lw	a2,0(a2)
     ee8:	0288                	addi	a0,sp,320
     eea:	8148                	0x8148
     eec:	4e01                	li	t3,0
     eee:	c10a                	sw	sp,128(sp)
     ef0:	c842                	sw	a6,16(sp)
     ef2:	0e42                	slli	t3,t3,0x10
     ef4:	4200                	lw	s0,0(a2)
     ef6:	000c000b          	0xc000b
     efa:	0000                	unimp
     efc:	0ec4                	addi	s1,sp,852
	...
     f06:	0000                	unimp
     f08:	0028                	addi	a0,sp,8
     f0a:	0000                	unimp
     f0c:	0ec4                	addi	s1,sp,852
     f0e:	0000                	unimp
     f10:	78b4                	flw	fa3,112(s1)
     f12:	8000                	0x8000
     f14:	0050                	addi	a2,sp,4
     f16:	0000                	unimp
     f18:	0e46                	slli	t3,t3,0x11
     f1a:	4a20                	lw	s0,80(a2)
     f1c:	0288                	addi	a0,sp,320
     f1e:	0389                	addi	t2,t2,2
     f20:	0492                	slli	s1,s1,0x4
     f22:	01810593          	addi	a1,sp,24
     f26:	c86c                	sw	a1,84(s0)
     f28:	c142                	sw	a6,128(sp)
     f2a:	d346                	sw	a7,164(sp)
     f2c:	d242                	sw	a6,36(sp)
     f2e:	c944                	sw	s1,20(a0)
     f30:	0e42                	slli	t3,t3,0x10
     f32:	0000                	unimp
     f34:	0020                	addi	s0,sp,8
     f36:	0000                	unimp
     f38:	0ec4                	addi	s1,sp,852
     f3a:	0000                	unimp
     f3c:	7904                	flw	fs1,48(a0)
     f3e:	8000                	0x8000
     f40:	0036                	c.slli	zero,0xd
     f42:	0000                	unimp
     f44:	0e42                	slli	t3,t3,0x10
     f46:	4210                	lw	a2,0(a2)
     f48:	0288                	addi	a0,sp,320
     f4a:	8148                	0x8148
     f4c:	5801                	li	a6,-32
     f4e:	c10a                	sw	sp,128(sp)
     f50:	c842                	sw	a6,16(sp)
     f52:	0e42                	slli	t3,t3,0x10
     f54:	4200                	lw	s0,0(a2)
     f56:	000c000b          	0xc000b
     f5a:	0000                	unimp
     f5c:	0ec4                	addi	s1,sp,852
     f5e:	0000                	unimp
     f60:	793a                	flw	fs2,172(sp)
     f62:	8000                	0x8000
     f64:	0006                	c.slli	zero,0x1
     f66:	0000                	unimp
     f68:	000c                	0xc
     f6a:	0000                	unimp
     f6c:	ffff                	0xffff
     f6e:	ffff                	0xffff
     f70:	0001                	nop
     f72:	7c01                	lui	s8,0xfffe0
     f74:	0d01                	addi	s10,s10,0
     f76:	0002                	c.slli64	zero
     f78:	001c                	0x1c
     f7a:	0000                	unimp
     f7c:	0f68                	addi	a0,sp,924
     f7e:	0000                	unimp
     f80:	7940                	flw	fs0,52(a0)
     f82:	8000                	0x8000
     f84:	002a                	c.slli	zero,0xa
     f86:	0000                	unimp
     f88:	0e42                	slli	t3,t3,0x10
     f8a:	4210                	lw	a2,0(a2)
     f8c:	0288                	addi	a0,sp,320
     f8e:	814a                	mv	sp,s2
     f90:	5601                	li	a2,-32
     f92:	42c1                	li	t0,16
     f94:	42c8                	lw	a0,4(a3)
     f96:	000e                	c.slli	zero,0x3
     f98:	000c                	0xc
     f9a:	0000                	unimp
     f9c:	ffff                	0xffff
     f9e:	ffff                	0xffff
     fa0:	0001                	nop
     fa2:	7c01                	lui	s8,0xfffe0
     fa4:	0d01                	addi	s10,s10,0
     fa6:	0002                	c.slli64	zero
     fa8:	001c                	0x1c
     faa:	0000                	unimp
     fac:	0f98                	addi	a4,sp,976
     fae:	0000                	unimp
     fb0:	796a                	flw	fs2,184(sp)
     fb2:	8000                	0x8000
     fb4:	002c                	addi	a1,sp,8
     fb6:	0000                	unimp
     fb8:	0e42                	slli	t3,t3,0x10
     fba:	4210                	lw	a2,0(a2)
     fbc:	0288                	addi	a0,sp,320
     fbe:	814c                	0x814c
     fc0:	5601                	li	a2,-32
     fc2:	42c1                	li	t0,16
     fc4:	42c8                	lw	a0,4(a3)
     fc6:	000e                	c.slli	zero,0x3
     fc8:	000c                	0xc
     fca:	0000                	unimp
     fcc:	ffff                	0xffff
     fce:	ffff                	0xffff
     fd0:	0001                	nop
     fd2:	7c01                	lui	s8,0xfffe0
     fd4:	0d01                	addi	s10,s10,0
     fd6:	0002                	c.slli64	zero
     fd8:	001c                	0x1c
     fda:	0000                	unimp
     fdc:	0fc8                	addi	a0,sp,980
     fde:	0000                	unimp
     fe0:	7996                	flw	fs3,100(sp)
     fe2:	8000                	0x8000
     fe4:	002a                	c.slli	zero,0xa
     fe6:	0000                	unimp
     fe8:	0e42                	slli	t3,t3,0x10
     fea:	4210                	lw	a2,0(a2)
     fec:	0288                	addi	a0,sp,320
     fee:	814a                	mv	sp,s2
     ff0:	5601                	li	a2,-32
     ff2:	42c1                	li	t0,16
     ff4:	42c8                	lw	a0,4(a3)
     ff6:	000e                	c.slli	zero,0x3
     ff8:	000c                	0xc
     ffa:	0000                	unimp
     ffc:	ffff                	0xffff
     ffe:	ffff                	0xffff
    1000:	0001                	nop
    1002:	7c01                	lui	s8,0xfffe0
    1004:	0d01                	addi	s10,s10,0
    1006:	0002                	c.slli64	zero
    1008:	0024                	addi	s1,sp,8
    100a:	0000                	unimp
    100c:	0ff8                	addi	a4,sp,988
	...
    1016:	0000                	unimp
    1018:	0e40                	addi	s0,sp,788
    101a:	8110                	0x8110
    101c:	8801                	andi	s0,s0,0
    101e:	4002                	0x4002
    1020:	42c1                	li	t0,16
    1022:	42c8                	lw	a0,4(a3)
    1024:	000e                	c.slli	zero,0x3
    1026:	0e44                	addi	s1,sp,788
    1028:	4010                	lw	a2,0(s0)
    102a:	0288                	addi	a0,sp,320
    102c:	0181                	addi	gp,gp,0
    102e:	0000                	unimp
    1030:	000c                	0xc
    1032:	0000                	unimp
    1034:	0ff8                	addi	a4,sp,988
	...
    103e:	0000                	unimp
    1040:	000c                	0xc
    1042:	0000                	unimp
    1044:	0ff8                	addi	a4,sp,988
	...
    104e:	0000                	unimp
    1050:	000c                	0xc
    1052:	0000                	unimp
    1054:	ffff                	0xffff
    1056:	ffff                	0xffff
    1058:	0001                	nop
    105a:	7c01                	lui	s8,0xfffe0
    105c:	0d01                	addi	s10,s10,0
    105e:	0002                	c.slli64	zero
    1060:	001c                	0x1c
    1062:	0000                	unimp
    1064:	1050                	addi	a2,sp,36
    1066:	0000                	unimp
    1068:	79c0                	flw	fs0,52(a1)
    106a:	8000                	0x8000
    106c:	002e                	c.slli	zero,0xb
    106e:	0000                	unimp
    1070:	0e42                	slli	t3,t3,0x10
    1072:	4210                	lw	a2,0(a2)
    1074:	0288                	addi	a0,sp,320
    1076:	814e                	mv	sp,s3
    1078:	5601                	li	a2,-32
    107a:	42c1                	li	t0,16
    107c:	42c8                	lw	a0,4(a3)
    107e:	000e                	c.slli	zero,0x3
    1080:	000c                	0xc
    1082:	0000                	unimp
    1084:	ffff                	0xffff
    1086:	ffff                	0xffff
    1088:	0001                	nop
    108a:	7c01                	lui	s8,0xfffe0
    108c:	0d01                	addi	s10,s10,0
    108e:	0002                	c.slli64	zero
    1090:	000c                	0xc
    1092:	0000                	unimp
    1094:	1080                	addi	s0,sp,96
	...
    109e:	0000                	unimp
    10a0:	0014                	0x14
    10a2:	0000                	unimp
    10a4:	1080                	addi	s0,sp,96
    10a6:	0000                	unimp
    10a8:	79ee                	flw	fs3,248(sp)
    10aa:	8000                	0x8000
    10ac:	003a                	c.slli	zero,0xe
    10ae:	0000                	unimp
    10b0:	0e44                	addi	s1,sp,788
    10b2:	5a10                	lw	a2,48(a2)
    10b4:	000e                	c.slli	zero,0x3
    10b6:	0000                	unimp
    10b8:	000c                	0xc
    10ba:	0000                	unimp
    10bc:	ffff                	0xffff
    10be:	ffff                	0xffff
    10c0:	0001                	nop
    10c2:	7c01                	lui	s8,0xfffe0
    10c4:	0d01                	addi	s10,s10,0
    10c6:	0002                	c.slli64	zero
    10c8:	000c                	0xc
    10ca:	0000                	unimp
    10cc:	10b8                	addi	a4,sp,104
    10ce:	0000                	unimp
    10d0:	7a28                	flw	fa0,112(a2)
    10d2:	8000                	0x8000
    10d4:	0002                	c.slli64	zero
    10d6:	0000                	unimp
    10d8:	000c                	0xc
    10da:	0000                	unimp
    10dc:	10b8                	addi	a4,sp,104
    10de:	0000                	unimp
    10e0:	7a2a                	flw	fs4,168(sp)
    10e2:	8000                	0x8000
    10e4:	0002                	c.slli64	zero
    10e6:	0000                	unimp
    10e8:	000c                	0xc
    10ea:	0000                	unimp
    10ec:	ffff                	0xffff
    10ee:	ffff                	0xffff
    10f0:	0001                	nop
    10f2:	7c01                	lui	s8,0xfffe0
    10f4:	0d01                	addi	s10,s10,0
    10f6:	0002                	c.slli64	zero
    10f8:	001c                	0x1c
    10fa:	0000                	unimp
    10fc:	10e8                	addi	a0,sp,108
    10fe:	0000                	unimp
    1100:	7a2c                	flw	fa1,112(a2)
    1102:	8000                	0x8000
    1104:	002e                	c.slli	zero,0xb
    1106:	0000                	unimp
    1108:	0e42                	slli	t3,t3,0x10
    110a:	4210                	lw	a2,0(a2)
    110c:	0288                	addi	a0,sp,320
    110e:	814e                	mv	sp,s3
    1110:	5601                	li	a2,-32
    1112:	42c1                	li	t0,16
    1114:	42c8                	lw	a0,4(a3)
    1116:	000e                	c.slli	zero,0x3
    1118:	000c                	0xc
    111a:	0000                	unimp
    111c:	ffff                	0xffff
    111e:	ffff                	0xffff
    1120:	0001                	nop
    1122:	7c01                	lui	s8,0xfffe0
    1124:	0d01                	addi	s10,s10,0
    1126:	0002                	c.slli64	zero
    1128:	000c                	0xc
    112a:	0000                	unimp
    112c:	1118                	addi	a4,sp,160
	...
    1136:	0000                	unimp
    1138:	000c                	0xc
    113a:	0000                	unimp
    113c:	1118                	addi	a4,sp,160
    113e:	0000                	unimp
    1140:	7a5a                	flw	fs4,180(sp)
    1142:	8000                	0x8000
    1144:	0020                	addi	s0,sp,8
    1146:	0000                	unimp
    1148:	000c                	0xc
    114a:	0000                	unimp
    114c:	ffff                	0xffff
    114e:	ffff                	0xffff
    1150:	0001                	nop
    1152:	7c01                	lui	s8,0xfffe0
    1154:	0d01                	addi	s10,s10,0
    1156:	0002                	c.slli64	zero
    1158:	0030                	addi	a2,sp,8
    115a:	0000                	unimp
    115c:	1148                	addi	a0,sp,164
    115e:	0000                	unimp
    1160:	7a7a                	flw	fs4,188(sp)
    1162:	8000                	0x8000
    1164:	0730                	addi	a2,sp,904
    1166:	0000                	unimp
    1168:	0e46                	slli	t3,t3,0x11
    116a:	4c20                	lw	s0,88(s0)
    116c:	0389                	addi	t2,t2,2
    116e:	9366                	add	t1,t1,s9
    1170:	8105                	srli	a0,a0,0x1
    1172:	8801                	andi	s0,s0,0
    1174:	9202                	jalr	tp
    1176:	0304                	addi	s1,sp,384
    1178:	0134                	addi	a3,sp,136
    117a:	c10a                	sw	sp,128(sp)
    117c:	c842                	sw	a6,16(sp)
    117e:	c94a                	sw	s2,144(sp)
    1180:	d242                	sw	a6,36(sp)
    1182:	d342                	sw	a6,164(sp)
    1184:	0e46                	slli	t3,t3,0x11
    1186:	4200                	lw	s0,0(a2)
    1188:	0000000b          	0xb
    118c:	000c                	0xc
    118e:	0000                	unimp
    1190:	ffff                	0xffff
    1192:	ffff                	0xffff
    1194:	0001                	nop
    1196:	7c01                	lui	s8,0xfffe0
    1198:	0d01                	addi	s10,s10,0
    119a:	0002                	c.slli64	zero
    119c:	000c                	0xc
    119e:	0000                	unimp
    11a0:	118c                	addi	a1,sp,224
    11a2:	0000                	unimp
    11a4:	81aa                	mv	gp,a0
    11a6:	8000                	0x8000
    11a8:	006a                	c.slli	zero,0x1a
    11aa:	0000                	unimp
    11ac:	000c                	0xc
    11ae:	0000                	unimp
    11b0:	ffff                	0xffff
    11b2:	ffff                	0xffff
    11b4:	0001                	nop
    11b6:	7c01                	lui	s8,0xfffe0
    11b8:	0d01                	addi	s10,s10,0
    11ba:	0002                	c.slli64	zero
    11bc:	003c                	addi	a5,sp,8
    11be:	0000                	unimp
    11c0:	11ac                	addi	a1,sp,232
    11c2:	0000                	unimp
    11c4:	8214                	0x8214
    11c6:	8000                	0x8000
    11c8:	04ac                	addi	a1,sp,584
    11ca:	0000                	unimp
    11cc:	0e42                	slli	t3,t3,0x10
    11ce:	4a40                	lw	s0,20(a2)
    11d0:	0288                	addi	a0,sp,320
    11d2:	0492                	slli	s1,s1,0x4
    11d4:	0694                	addi	a3,sp,832
    11d6:	8150                	0x8150
    11d8:	8901                	andi	a0,a0,0
    11da:	95059303          	lh	t1,-1712(a1)
    11de:	97089607          	0x97089607
    11e2:	0209                	addi	tp,tp,2
    11e4:	0ac8                	addi	a0,sp,340
    11e6:	42c1                	li	t0,16
    11e8:	44c8                	lw	a0,12(s1)
    11ea:	42d2                	lw	t0,20(sp)
    11ec:	42c9                	li	t0,18
    11ee:	42d442d3          	0x42d442d3
    11f2:	42d5                	li	t0,21
    11f4:	42d6                	lw	t0,84(sp)
    11f6:	000e42d7          	0xe42d7
    11fa:	0b42                	slli	s6,s6,0x10
    11fc:	000c                	0xc
    11fe:	0000                	unimp
    1200:	ffff                	0xffff
    1202:	ffff                	0xffff
    1204:	0001                	nop
    1206:	7c01                	lui	s8,0xfffe0
    1208:	0d01                	addi	s10,s10,0
    120a:	0002                	c.slli64	zero
    120c:	0030                	addi	a2,sp,8
    120e:	0000                	unimp
    1210:	11fc                	addi	a5,sp,236
    1212:	0000                	unimp
    1214:	86c0                	0x86c0
    1216:	8000                	0x8000
    1218:	073e                	slli	a4,a4,0xf
    121a:	0000                	unimp
    121c:	0e48                	addi	a0,sp,788
    121e:	5420                	lw	s0,104(s0)
    1220:	0288                	addi	a0,sp,320
    1222:	0389                	addi	t2,t2,2
    1224:	8150                	0x8150
    1226:	9201                	srli	a2,a2,0x20
    1228:	9304                	0x9304
    122a:	0305                	addi	t1,t1,1
    122c:	0148                	addi	a0,sp,132
    122e:	c10a                	sw	sp,128(sp)
    1230:	c842                	sw	a6,16(sp)
    1232:	c942                	sw	a6,144(sp)
    1234:	d242                	sw	a6,36(sp)
    1236:	d342                	sw	a6,164(sp)
    1238:	0e46                	slli	t3,t3,0x11
    123a:	4200                	lw	s0,0(a2)
    123c:	0000000b          	0xb
    1240:	000c                	0xc
    1242:	0000                	unimp
    1244:	ffff                	0xffff
    1246:	ffff                	0xffff
    1248:	0001                	nop
    124a:	7c01                	lui	s8,0xfffe0
    124c:	0d01                	addi	s10,s10,0
    124e:	0002                	c.slli64	zero
    1250:	000c                	0xc
    1252:	0000                	unimp
    1254:	1240                	addi	s0,sp,292
    1256:	0000                	unimp
    1258:	8dfe                	mv	s11,t6
    125a:	8000                	0x8000
    125c:	003c                	addi	a5,sp,8
    125e:	0000                	unimp
    1260:	000c                	0xc
    1262:	0000                	unimp
    1264:	ffff                	0xffff
    1266:	ffff                	0xffff
    1268:	0001                	nop
    126a:	7c01                	lui	s8,0xfffe0
    126c:	0d01                	addi	s10,s10,0
    126e:	0002                	c.slli64	zero
    1270:	000c                	0xc
    1272:	0000                	unimp
    1274:	1260                	addi	s0,sp,300
    1276:	0000                	unimp
    1278:	8e3a                	mv	t3,a4
    127a:	8000                	0x8000
    127c:	0068                	addi	a0,sp,12
    127e:	0000                	unimp
    1280:	000c                	0xc
    1282:	0000                	unimp
    1284:	ffff                	0xffff
    1286:	ffff                	0xffff
    1288:	0001                	nop
    128a:	7c01                	lui	s8,0xfffe0
    128c:	0d01                	addi	s10,s10,0
    128e:	0002                	c.slli64	zero
    1290:	0024                	addi	s1,sp,8
    1292:	0000                	unimp
    1294:	1280                	addi	s0,sp,352
    1296:	0000                	unimp
    1298:	8ea2                	mv	t4,s0
    129a:	8000                	0x8000
    129c:	0072                	c.slli	zero,0x1c
    129e:	0000                	unimp
    12a0:	0e42                	slli	t3,t3,0x10
    12a2:	4610                	lw	a2,8(a2)
    12a4:	0181                	addi	gp,gp,0
    12a6:	0288                	addi	a0,sp,320
    12a8:	0389                	addi	t2,t2,2
    12aa:	5002                	0x5002
    12ac:	c10a                	sw	sp,128(sp)
    12ae:	c842                	sw	a6,16(sp)
    12b0:	c946                	sw	a7,144(sp)
    12b2:	0e42                	slli	t3,t3,0x10
    12b4:	4200                	lw	s0,0(a2)
    12b6:	000c000b          	0xc000b
    12ba:	0000                	unimp
    12bc:	ffff                	0xffff
    12be:	ffff                	0xffff
    12c0:	0001                	nop
    12c2:	7c01                	lui	s8,0xfffe0
    12c4:	0d01                	addi	s10,s10,0
    12c6:	0002                	c.slli64	zero
    12c8:	0018                	0x18
    12ca:	0000                	unimp
    12cc:	12b8                	addi	a4,sp,360
    12ce:	0000                	unimp
    12d0:	8f14                	0x8f14
    12d2:	8000                	0x8000
    12d4:	021e                	slli	tp,tp,0x7
    12d6:	0000                	unimp
    12d8:	0e6a                	slli	t3,t3,0x1a
    12da:	0210                	addi	a2,sp,256
    12dc:	0a5a                	slli	s4,s4,0x16
    12de:	000e                	c.slli	zero,0x3
    12e0:	0b42                	slli	s6,s6,0x10
	...
